
QAMDecFS2019.elf:     file format elf32-avr

Sections:
Idx Name          Size      VMA       LMA       File off  Algn
  0 .text         00006a5a  00000000  00000000  00000094  2**1
                  CONTENTS, ALLOC, LOAD, READONLY, CODE
  1 .data         00000094  00802000  00006a5a  00006aee  2**0
                  CONTENTS, ALLOC, LOAD, DATA
  2 .bss          000011c5  00802094  00802094  00006b82  2**0
                  ALLOC
  3 .comment      00000030  00000000  00000000  00006b82  2**0
                  CONTENTS, READONLY
  4 .note.gnu.avr.deviceinfo 00000040  00000000  00000000  00006bb4  2**2
                  CONTENTS, READONLY
  5 .debug_aranges 00000870  00000000  00000000  00006bf4  2**0
                  CONTENTS, READONLY, DEBUGGING
  6 .debug_info   0000d587  00000000  00000000  00007464  2**0
                  CONTENTS, READONLY, DEBUGGING
  7 .debug_abbrev 00004a42  00000000  00000000  000149eb  2**0
                  CONTENTS, READONLY, DEBUGGING
  8 .debug_line   00006249  00000000  00000000  0001942d  2**0
                  CONTENTS, READONLY, DEBUGGING
  9 .debug_frame  00002064  00000000  00000000  0001f678  2**2
                  CONTENTS, READONLY, DEBUGGING
 10 .debug_str    00007759  00000000  00000000  000216dc  2**0
                  CONTENTS, READONLY, DEBUGGING
 11 .debug_loc    0000445f  00000000  00000000  00028e35  2**0
                  CONTENTS, READONLY, DEBUGGING
 12 .debug_ranges 00000758  00000000  00000000  0002d294  2**0
                  CONTENTS, READONLY, DEBUGGING

Disassembly of section .text:

00000000 <__vectors>:
       0:	0c 94 22 01 	jmp	0x244	; 0x244 <__ctors_end>
       4:	0c 94 4c 01 	jmp	0x298	; 0x298 <__bad_interrupt>
       8:	0c 94 4c 01 	jmp	0x298	; 0x298 <__bad_interrupt>
       c:	0c 94 4c 01 	jmp	0x298	; 0x298 <__bad_interrupt>
      10:	0c 94 4c 01 	jmp	0x298	; 0x298 <__bad_interrupt>
      14:	0c 94 4c 01 	jmp	0x298	; 0x298 <__bad_interrupt>
      18:	0c 94 91 02 	jmp	0x522	; 0x522 <__vector_6>
      1c:	0c 94 df 02 	jmp	0x5be	; 0x5be <__vector_7>
      20:	0c 94 4c 01 	jmp	0x298	; 0x298 <__bad_interrupt>
      24:	0c 94 4c 01 	jmp	0x298	; 0x298 <__bad_interrupt>
      28:	0c 94 4c 01 	jmp	0x298	; 0x298 <__bad_interrupt>
      2c:	0c 94 4c 01 	jmp	0x298	; 0x298 <__bad_interrupt>
      30:	0c 94 4c 01 	jmp	0x298	; 0x298 <__bad_interrupt>
      34:	0c 94 4c 01 	jmp	0x298	; 0x298 <__bad_interrupt>
      38:	0c 94 66 0d 	jmp	0x1acc	; 0x1acc <__vector_14>
      3c:	0c 94 4c 01 	jmp	0x298	; 0x298 <__bad_interrupt>
      40:	0c 94 4c 01 	jmp	0x298	; 0x298 <__bad_interrupt>
      44:	0c 94 4c 01 	jmp	0x298	; 0x298 <__bad_interrupt>
      48:	0c 94 4c 01 	jmp	0x298	; 0x298 <__bad_interrupt>
      4c:	0c 94 4c 01 	jmp	0x298	; 0x298 <__bad_interrupt>
      50:	0c 94 6b 02 	jmp	0x4d6	; 0x4d6 <__vector_20>
      54:	0c 94 4c 01 	jmp	0x298	; 0x298 <__bad_interrupt>
      58:	0c 94 4c 01 	jmp	0x298	; 0x298 <__bad_interrupt>
      5c:	0c 94 4c 01 	jmp	0x298	; 0x298 <__bad_interrupt>
      60:	0c 94 4c 01 	jmp	0x298	; 0x298 <__bad_interrupt>
      64:	0c 94 4c 01 	jmp	0x298	; 0x298 <__bad_interrupt>
      68:	0c 94 4c 01 	jmp	0x298	; 0x298 <__bad_interrupt>
      6c:	0c 94 4c 01 	jmp	0x298	; 0x298 <__bad_interrupt>
      70:	0c 94 4c 01 	jmp	0x298	; 0x298 <__bad_interrupt>
      74:	0c 94 4c 01 	jmp	0x298	; 0x298 <__bad_interrupt>
      78:	0c 94 4c 01 	jmp	0x298	; 0x298 <__bad_interrupt>
      7c:	0c 94 4c 01 	jmp	0x298	; 0x298 <__bad_interrupt>
      80:	0c 94 4c 01 	jmp	0x298	; 0x298 <__bad_interrupt>
      84:	0c 94 4c 01 	jmp	0x298	; 0x298 <__bad_interrupt>
      88:	0c 94 4c 01 	jmp	0x298	; 0x298 <__bad_interrupt>
      8c:	0c 94 4c 01 	jmp	0x298	; 0x298 <__bad_interrupt>
      90:	0c 94 4c 01 	jmp	0x298	; 0x298 <__bad_interrupt>
      94:	0c 94 4c 01 	jmp	0x298	; 0x298 <__bad_interrupt>
      98:	0c 94 4c 01 	jmp	0x298	; 0x298 <__bad_interrupt>
      9c:	0c 94 4c 01 	jmp	0x298	; 0x298 <__bad_interrupt>
      a0:	0c 94 4c 01 	jmp	0x298	; 0x298 <__bad_interrupt>
      a4:	0c 94 4c 01 	jmp	0x298	; 0x298 <__bad_interrupt>
      a8:	0c 94 4c 01 	jmp	0x298	; 0x298 <__bad_interrupt>
      ac:	0c 94 4c 01 	jmp	0x298	; 0x298 <__bad_interrupt>
      b0:	0c 94 4c 01 	jmp	0x298	; 0x298 <__bad_interrupt>
      b4:	0c 94 4c 01 	jmp	0x298	; 0x298 <__bad_interrupt>
      b8:	0c 94 4c 01 	jmp	0x298	; 0x298 <__bad_interrupt>
      bc:	0c 94 4c 01 	jmp	0x298	; 0x298 <__bad_interrupt>
      c0:	0c 94 4c 01 	jmp	0x298	; 0x298 <__bad_interrupt>
      c4:	0c 94 4c 01 	jmp	0x298	; 0x298 <__bad_interrupt>
      c8:	0c 94 4c 01 	jmp	0x298	; 0x298 <__bad_interrupt>
      cc:	0c 94 4c 01 	jmp	0x298	; 0x298 <__bad_interrupt>
      d0:	0c 94 4c 01 	jmp	0x298	; 0x298 <__bad_interrupt>
      d4:	0c 94 4c 01 	jmp	0x298	; 0x298 <__bad_interrupt>
      d8:	0c 94 4c 01 	jmp	0x298	; 0x298 <__bad_interrupt>
      dc:	0c 94 4c 01 	jmp	0x298	; 0x298 <__bad_interrupt>
      e0:	0c 94 4c 01 	jmp	0x298	; 0x298 <__bad_interrupt>
      e4:	0c 94 4c 01 	jmp	0x298	; 0x298 <__bad_interrupt>
      e8:	0c 94 4c 01 	jmp	0x298	; 0x298 <__bad_interrupt>
      ec:	0c 94 4c 01 	jmp	0x298	; 0x298 <__bad_interrupt>
      f0:	0c 94 4c 01 	jmp	0x298	; 0x298 <__bad_interrupt>
      f4:	0c 94 4c 01 	jmp	0x298	; 0x298 <__bad_interrupt>
      f8:	0c 94 4c 01 	jmp	0x298	; 0x298 <__bad_interrupt>
      fc:	0c 94 4c 01 	jmp	0x298	; 0x298 <__bad_interrupt>
     100:	0c 94 4c 01 	jmp	0x298	; 0x298 <__bad_interrupt>
     104:	0c 94 4c 01 	jmp	0x298	; 0x298 <__bad_interrupt>
     108:	0c 94 4c 01 	jmp	0x298	; 0x298 <__bad_interrupt>
     10c:	0c 94 4c 01 	jmp	0x298	; 0x298 <__bad_interrupt>
     110:	0c 94 4c 01 	jmp	0x298	; 0x298 <__bad_interrupt>
     114:	0c 94 4c 01 	jmp	0x298	; 0x298 <__bad_interrupt>
     118:	0c 94 4c 01 	jmp	0x298	; 0x298 <__bad_interrupt>
     11c:	0c 94 4c 01 	jmp	0x298	; 0x298 <__bad_interrupt>
     120:	0c 94 4c 01 	jmp	0x298	; 0x298 <__bad_interrupt>
     124:	0c 94 4c 01 	jmp	0x298	; 0x298 <__bad_interrupt>
     128:	0c 94 4c 01 	jmp	0x298	; 0x298 <__bad_interrupt>
     12c:	0c 94 4c 01 	jmp	0x298	; 0x298 <__bad_interrupt>
     130:	0c 94 4c 01 	jmp	0x298	; 0x298 <__bad_interrupt>
     134:	0c 94 4c 01 	jmp	0x298	; 0x298 <__bad_interrupt>
     138:	0c 94 4c 01 	jmp	0x298	; 0x298 <__bad_interrupt>
     13c:	0c 94 4c 01 	jmp	0x298	; 0x298 <__bad_interrupt>
     140:	0c 94 4c 01 	jmp	0x298	; 0x298 <__bad_interrupt>
     144:	0c 94 4c 01 	jmp	0x298	; 0x298 <__bad_interrupt>
     148:	0c 94 4c 01 	jmp	0x298	; 0x298 <__bad_interrupt>
     14c:	0c 94 4c 01 	jmp	0x298	; 0x298 <__bad_interrupt>
     150:	0c 94 4c 01 	jmp	0x298	; 0x298 <__bad_interrupt>
     154:	0c 94 4c 01 	jmp	0x298	; 0x298 <__bad_interrupt>
     158:	0c 94 4c 01 	jmp	0x298	; 0x298 <__bad_interrupt>
     15c:	0c 94 4c 01 	jmp	0x298	; 0x298 <__bad_interrupt>
     160:	0c 94 4c 01 	jmp	0x298	; 0x298 <__bad_interrupt>
     164:	0c 94 4c 01 	jmp	0x298	; 0x298 <__bad_interrupt>
     168:	0c 94 4c 01 	jmp	0x298	; 0x298 <__bad_interrupt>
     16c:	0c 94 4c 01 	jmp	0x298	; 0x298 <__bad_interrupt>
     170:	0c 94 4c 01 	jmp	0x298	; 0x298 <__bad_interrupt>
     174:	0c 94 4c 01 	jmp	0x298	; 0x298 <__bad_interrupt>
     178:	0c 94 4c 01 	jmp	0x298	; 0x298 <__bad_interrupt>
     17c:	0c 94 4c 01 	jmp	0x298	; 0x298 <__bad_interrupt>
     180:	0c 94 4c 01 	jmp	0x298	; 0x298 <__bad_interrupt>
     184:	0c 94 4c 01 	jmp	0x298	; 0x298 <__bad_interrupt>
     188:	0c 94 4c 01 	jmp	0x298	; 0x298 <__bad_interrupt>
     18c:	0c 94 4c 01 	jmp	0x298	; 0x298 <__bad_interrupt>
     190:	0c 94 4c 01 	jmp	0x298	; 0x298 <__bad_interrupt>
     194:	0c 94 4c 01 	jmp	0x298	; 0x298 <__bad_interrupt>
     198:	0c 94 4c 01 	jmp	0x298	; 0x298 <__bad_interrupt>
     19c:	0c 94 4c 01 	jmp	0x298	; 0x298 <__bad_interrupt>
     1a0:	0c 94 4c 01 	jmp	0x298	; 0x298 <__bad_interrupt>
     1a4:	0c 94 4c 01 	jmp	0x298	; 0x298 <__bad_interrupt>
     1a8:	0c 94 4c 01 	jmp	0x298	; 0x298 <__bad_interrupt>
     1ac:	0c 94 4c 01 	jmp	0x298	; 0x298 <__bad_interrupt>
     1b0:	0c 94 42 23 	jmp	0x4684	; 0x4684 <__vector_108>
     1b4:	0c 94 4c 01 	jmp	0x298	; 0x298 <__bad_interrupt>
     1b8:	0c 94 4c 01 	jmp	0x298	; 0x298 <__bad_interrupt>
     1bc:	0c 94 4c 01 	jmp	0x298	; 0x298 <__bad_interrupt>
     1c0:	0c 94 4c 01 	jmp	0x298	; 0x298 <__bad_interrupt>
     1c4:	0c 94 4c 01 	jmp	0x298	; 0x298 <__bad_interrupt>
     1c8:	0c 94 4c 01 	jmp	0x298	; 0x298 <__bad_interrupt>
     1cc:	0c 94 4c 01 	jmp	0x298	; 0x298 <__bad_interrupt>
     1d0:	0c 94 4c 01 	jmp	0x298	; 0x298 <__bad_interrupt>
     1d4:	0c 94 4c 01 	jmp	0x298	; 0x298 <__bad_interrupt>
     1d8:	0c 94 4c 01 	jmp	0x298	; 0x298 <__bad_interrupt>
     1dc:	0c 94 4c 01 	jmp	0x298	; 0x298 <__bad_interrupt>
     1e0:	0c 94 4c 01 	jmp	0x298	; 0x298 <__bad_interrupt>
     1e4:	0c 94 4c 01 	jmp	0x298	; 0x298 <__bad_interrupt>
     1e8:	0c 94 4c 01 	jmp	0x298	; 0x298 <__bad_interrupt>
     1ec:	0c 94 4c 01 	jmp	0x298	; 0x298 <__bad_interrupt>
     1f0:	0c 94 4c 01 	jmp	0x298	; 0x298 <__bad_interrupt>
     1f4:	0c 94 4c 01 	jmp	0x298	; 0x298 <__bad_interrupt>
     1f8:	0c 94 4c 01 	jmp	0x298	; 0x298 <__bad_interrupt>
     1fc:	d3 1f       	adc	r29, r19
     1fe:	d3 1f       	adc	r29, r19
     200:	d3 1f       	adc	r29, r19
     202:	5a 20       	and	r5, r10
     204:	26 20       	and	r2, r6
     206:	54 20       	and	r5, r4
     208:	d3 1f       	adc	r29, r19
     20a:	d3 1f       	adc	r29, r19
     20c:	5a 20       	and	r5, r10
     20e:	26 20       	and	r2, r6

00000210 <__trampolines_start>:
     210:	0c 94 54 20 	jmp	0x40a8	; 0x40a8 <__stack+0xa9>
     214:	0c 94 8d 2c 	jmp	0x591a	; 0x591a <vPhase_Detection>
     218:	0c 94 fb 22 	jmp	0x45f6	; 0x45f6 <vWrite_Display>
     21c:	0c 94 d3 1f 	jmp	0x3fa6	; 0x3fa6 <prvProcessReceivedCommands+0xce>
     220:	0c 94 0e 1b 	jmp	0x361c	; 0x361c <prvIdleTask>
     224:	0c 94 d5 25 	jmp	0x4baa	; 0x4baa <vDisplayUpdateTask>
     228:	0c 94 5a 20 	jmp	0x40b4	; 0x40b4 <__stack+0xb5>
     22c:	0c 94 1b 2f 	jmp	0x5e36	; 0x5e36 <vRead_Peaks>
     230:	0c 94 26 20 	jmp	0x404c	; 0x404c <__stack+0x4d>
     234:	0c 94 23 03 	jmp	0x646	; 0x646 <vTask_DMAHandler>
     238:	0c 94 e2 22 	jmp	0x45c4	; 0x45c4 <vLedBlink>
     23c:	0c 94 44 08 	jmp	0x1088	; 0x1088 <vEventGroupSetBitsCallback>
     240:	0c 94 b5 1d 	jmp	0x3b6a	; 0x3b6a <prvTimerTask>

00000244 <__ctors_end>:
     244:	11 24       	eor	r1, r1
     246:	1f be       	out	0x3f, r1	; 63
     248:	cf ef       	ldi	r28, 0xFF	; 255
     24a:	cd bf       	out	0x3d, r28	; 61
     24c:	df e3       	ldi	r29, 0x3F	; 63
     24e:	de bf       	out	0x3e, r29	; 62
     250:	00 e0       	ldi	r16, 0x00	; 0
     252:	0c bf       	out	0x3c, r16	; 60

00000254 <init_mem>:
// !!! Never call this function, it is part of .init-Code
void __attribute__ ((naked, section(".init3"))) init_mem (void);
void init_mem (void)
{
   //  Use inline assembler so it works even with optimization turned off
   __asm volatile (
     254:	e9 e5       	ldi	r30, 0x59	; 89
     256:	f2 e3       	ldi	r31, 0x32	; 50
     258:	8a ea       	ldi	r24, 0xAA	; 170
     25a:	90 e4       	ldi	r25, 0x40	; 64
     25c:	81 93       	st	Z+, r24
     25e:	e0 30       	cpi	r30, 0x00	; 0
     260:	f9 07       	cpc	r31, r25
     262:	e0 f3       	brcs	.-8      	; 0x25c <init_mem+0x8>
	...

00000266 <__do_copy_data>:
     266:	10 e2       	ldi	r17, 0x20	; 32
     268:	a0 e0       	ldi	r26, 0x00	; 0
     26a:	b0 e2       	ldi	r27, 0x20	; 32
     26c:	ea e5       	ldi	r30, 0x5A	; 90
     26e:	fa e6       	ldi	r31, 0x6A	; 106
     270:	00 e0       	ldi	r16, 0x00	; 0
     272:	0b bf       	out	0x3b, r16	; 59
     274:	02 c0       	rjmp	.+4      	; 0x27a <__do_copy_data+0x14>
     276:	07 90       	elpm	r0, Z+
     278:	0d 92       	st	X+, r0
     27a:	a4 39       	cpi	r26, 0x94	; 148
     27c:	b1 07       	cpc	r27, r17
     27e:	d9 f7       	brne	.-10     	; 0x276 <__do_copy_data+0x10>

00000280 <__do_clear_bss>:
     280:	22 e3       	ldi	r18, 0x32	; 50
     282:	a4 e9       	ldi	r26, 0x94	; 148
     284:	b0 e2       	ldi	r27, 0x20	; 32
     286:	01 c0       	rjmp	.+2      	; 0x28a <.do_clear_bss_start>

00000288 <.do_clear_bss_loop>:
     288:	1d 92       	st	X+, r1

0000028a <.do_clear_bss_start>:
     28a:	a9 35       	cpi	r26, 0x59	; 89
     28c:	b2 07       	cpc	r27, r18
     28e:	e1 f7       	brne	.-8      	; 0x288 <.do_clear_bss_loop>
     290:	0e 94 05 22 	call	0x440a	; 0x440a <main>
     294:	0c 94 2b 35 	jmp	0x6a56	; 0x6a56 <_exit>

00000298 <__bad_interrupt>:
     298:	0c 94 00 00 	jmp	0	; 0x0 <__vectors>

0000029c <sys_InitADC>:

uint8_t buffer_length = 32;

//Initialisiert den ADC im Freerunning Mode
void sys_InitADC(void)
{
     29c:	cf 93       	push	r28
     29e:	df 93       	push	r29
     2a0:	cd b7       	in	r28, 0x3d	; 61
     2a2:	de b7       	in	r29, 0x3e	; 62
	
	// Free Running mode: On
	// Conversion mode: Unsigned, 8Bit
	ADCB.CTRLB=(ADCB.CTRLB & (~(ADC_CONMODE_bm | ADC_FREERUN_bm | ADC_RESOLUTION_gm))) | ADC_RESOLUTION_12BIT_gc; // | ADC_FREERUN_bm;
     2a4:	80 e4       	ldi	r24, 0x40	; 64
     2a6:	92 e0       	ldi	r25, 0x02	; 2
     2a8:	20 e4       	ldi	r18, 0x40	; 64
     2aa:	32 e0       	ldi	r19, 0x02	; 2
     2ac:	f9 01       	movw	r30, r18
     2ae:	21 81       	ldd	r18, Z+1	; 0x01
     2b0:	21 7e       	andi	r18, 0xE1	; 225
     2b2:	fc 01       	movw	r30, r24
     2b4:	21 83       	std	Z+1, r18	; 0x01
	// Reference 1V and configuration of prescaler to 256
	ADCB.PRESCALER=(ADCB.PRESCALER & (~ADC_PRESCALER_gm)) | ADC_PRESCALER_DIV32_gc; //clockdivider to 16 or 32, since adc max. is 2MHz
     2b6:	80 e4       	ldi	r24, 0x40	; 64
     2b8:	92 e0       	ldi	r25, 0x02	; 2
     2ba:	20 e4       	ldi	r18, 0x40	; 64
     2bc:	32 e0       	ldi	r19, 0x02	; 2
     2be:	f9 01       	movw	r30, r18
     2c0:	24 81       	ldd	r18, Z+4	; 0x04
     2c2:	28 7f       	andi	r18, 0xF8	; 248
     2c4:	23 60       	ori	r18, 0x03	; 3
     2c6:	fc 01       	movw	r30, r24
     2c8:	24 83       	std	Z+4, r18	; 0x04
	ADCB.REFCTRL = ADC_REFSEL_INT1V_gc;			//internal 1V , maybe INTVCC to take for bigger measure range
     2ca:	80 e4       	ldi	r24, 0x40	; 64
     2cc:	92 e0       	ldi	r25, 0x02	; 2
     2ce:	fc 01       	movw	r30, r24
     2d0:	12 82       	std	Z+2, r1	; 0x02

	// Read and save the ADC offset using channel 0
	ADCB.CH0.CTRL=(ADCB.CH0.CTRL & (~(ADC_CH_START_bm | ADC_CH_GAIN_gm | ADC_CH_INPUTMODE_gm))) | ADC_CH_INPUTMODE_SINGLEENDED_gc;
     2d2:	80 e4       	ldi	r24, 0x40	; 64
     2d4:	92 e0       	ldi	r25, 0x02	; 2
     2d6:	20 e4       	ldi	r18, 0x40	; 64
     2d8:	32 e0       	ldi	r19, 0x02	; 2
     2da:	f9 01       	movw	r30, r18
     2dc:	20 a1       	ldd	r18, Z+32	; 0x20
     2de:	20 76       	andi	r18, 0x60	; 96
     2e0:	21 60       	ori	r18, 0x01	; 1
     2e2:	fc 01       	movw	r30, r24
     2e4:	20 a3       	std	Z+32, r18	; 0x20
	ADCB.CH0.MUXCTRL = ADC_CH_MUXPOS_PIN0_gc ;	// PORTB:0
     2e6:	80 e4       	ldi	r24, 0x40	; 64
     2e8:	92 e0       	ldi	r25, 0x02	; 2
     2ea:	fc 01       	movw	r30, r24
     2ec:	11 a2       	std	Z+33, r1	; 0x21
	//ADCB.CH1.MUXCTRL = ADC_CH_MUXPOS_PIN1_gc ;	// PORTB:1	
	
	//ADCB.CH2.CTRL = ADC_CH_GAIN_1X_gc | ADC_CH_INPUTMODE_INTERNAL_gc;
	//ADCB.CH2.MUXCTRL = ADC_CH_MUXINT_TEMP_gc;  //Temp Mux
	
	ADCB.EVCTRL = ADC_EVSEL_7_gc | ADC_EVACT_CH0_gc;  /* First event triggers channel 0 */
     2ee:	80 e4       	ldi	r24, 0x40	; 64
     2f0:	92 e0       	ldi	r25, 0x02	; 2
     2f2:	29 e3       	ldi	r18, 0x39	; 57
     2f4:	fc 01       	movw	r30, r24
     2f6:	23 83       	std	Z+3, r18	; 0x03
	
	// Enable the ADC in order to read the offset
	ADCB.CTRLA|=ADC_ENABLE_bm;
     2f8:	80 e4       	ldi	r24, 0x40	; 64
     2fa:	92 e0       	ldi	r25, 0x02	; 2
     2fc:	20 e4       	ldi	r18, 0x40	; 64
     2fe:	32 e0       	ldi	r19, 0x02	; 2
     300:	f9 01       	movw	r30, r18
     302:	20 81       	ld	r18, Z
     304:	21 60       	ori	r18, 0x01	; 1
     306:	fc 01       	movw	r30, r24
     308:	20 83       	st	Z, r18
}
     30a:	00 00       	nop
     30c:	df 91       	pop	r29
     30e:	cf 91       	pop	r28
     310:	08 95       	ret

00000312 <vInitDMA>:

void vInitDMA()
{
     312:	cf 93       	push	r28
     314:	df 93       	push	r29
     316:	cd b7       	in	r28, 0x3d	; 61
     318:	de b7       	in	r29, 0x3e	; 62
	//ADC8 PB0 Input
	PORTB.DIRCLR = PIN0_bm;
     31a:	80 e2       	ldi	r24, 0x20	; 32
     31c:	96 e0       	ldi	r25, 0x06	; 6
     31e:	21 e0       	ldi	r18, 0x01	; 1
     320:	fc 01       	movw	r30, r24
     322:	22 83       	std	Z+2, r18	; 0x02
	PORTB.DIRCLR = PIN1_bm;
     324:	80 e2       	ldi	r24, 0x20	; 32
     326:	96 e0       	ldi	r25, 0x06	; 6
     328:	22 e0       	ldi	r18, 0x02	; 2
     32a:	fc 01       	movw	r30, r24
     32c:	22 83       	std	Z+2, r18	; 0x02
	// set TCC1 to 11024Hz overflow, actually 11019.2838Hz (-0.052% error)
	TCC1.CTRLA = 0; // stop if running
     32e:	80 e4       	ldi	r24, 0x40	; 64
     330:	98 e0       	ldi	r25, 0x08	; 8
     332:	fc 01       	movw	r30, r24
     334:	10 82       	st	Z, r1
	TCC1.CNT = 0;
     336:	80 e4       	ldi	r24, 0x40	; 64
     338:	98 e0       	ldi	r25, 0x08	; 8
     33a:	fc 01       	movw	r30, r24
     33c:	10 a2       	std	Z+32, r1	; 0x20
     33e:	11 a2       	std	Z+33, r1	; 0x21
	TCC1.PER = 1000-1;
     340:	80 e4       	ldi	r24, 0x40	; 64
     342:	98 e0       	ldi	r25, 0x08	; 8
     344:	27 ee       	ldi	r18, 0xE7	; 231
     346:	33 e0       	ldi	r19, 0x03	; 3
     348:	fc 01       	movw	r30, r24
     34a:	26 a3       	std	Z+38, r18	; 0x26
     34c:	37 a3       	std	Z+39, r19	; 0x27

			
	sys_InitADC();
     34e:	0e 94 4e 01 	call	0x29c	; 0x29c <sys_InitADC>
	//double_buff_synch();

	EVSYS.CH7MUX = EVSYS_CHMUX_TCC1_OVF_gc; // trigger on ch7
     352:	80 e8       	ldi	r24, 0x80	; 128
     354:	91 e0       	ldi	r25, 0x01	; 1
     356:	28 ec       	ldi	r18, 0xC8	; 200
     358:	fc 01       	movw	r30, r24
     35a:	27 83       	std	Z+7, r18	; 0x07


	// reset DMA controller
	DMA.CTRL = 0;
     35c:	80 e0       	ldi	r24, 0x00	; 0
     35e:	91 e0       	ldi	r25, 0x01	; 1
     360:	fc 01       	movw	r30, r24
     362:	10 82       	st	Z, r1
	DMA.CTRL = DMA_RESET_bm;
     364:	80 e0       	ldi	r24, 0x00	; 0
     366:	91 e0       	ldi	r25, 0x01	; 1
     368:	20 e4       	ldi	r18, 0x40	; 64
     36a:	fc 01       	movw	r30, r24
     36c:	20 83       	st	Z, r18
	while ((DMA.CTRL & DMA_RESET_bm) != 0);
     36e:	00 00       	nop
     370:	80 e0       	ldi	r24, 0x00	; 0
     372:	91 e0       	ldi	r25, 0x01	; 1
     374:	fc 01       	movw	r30, r24
     376:	80 81       	ld	r24, Z
     378:	88 2f       	mov	r24, r24
     37a:	90 e0       	ldi	r25, 0x00	; 0
     37c:	80 74       	andi	r24, 0x40	; 64
     37e:	99 27       	eor	r25, r25
     380:	89 2b       	or	r24, r25
     382:	b1 f7       	brne	.-20     	; 0x370 <vInitDMA+0x5e>
	
	DMA.CTRL			= DMA_CH_ENABLE_bm | DMA_DBUFMODE_CH01_gc; // double buffered with channels 0 and 1
     384:	80 e0       	ldi	r24, 0x00	; 0
     386:	91 e0       	ldi	r25, 0x01	; 1
     388:	24 e8       	ldi	r18, 0x84	; 132
     38a:	fc 01       	movw	r30, r24
     38c:	20 83       	st	Z, r18
	//Bei Double Buffering wird automatisch aus Channel 0 und 1 ein "Pair" gebildet. 
	//Siehe dazu AVR1304.P8
	
	// channel 0
	// **** TODO: reset dma channels
	DMA.CH0.REPCNT		= 0;
     38e:	80 e0       	ldi	r24, 0x00	; 0
     390:	91 e0       	ldi	r25, 0x01	; 1
     392:	fc 01       	movw	r30, r24
     394:	16 8a       	std	Z+22, r1	; 0x16
	DMA.CH0.CTRLA		=  DMA_CH_BURSTLEN_2BYTE_gc | DMA_CH_SINGLE_bm | DMA_CH_REPEAT_bm; // ADC result is 1 byte (8 bit word)
     396:	80 e0       	ldi	r24, 0x00	; 0
     398:	91 e0       	ldi	r25, 0x01	; 1
     39a:	25 e2       	ldi	r18, 0x25	; 37
     39c:	fc 01       	movw	r30, r24
     39e:	20 8b       	std	Z+16, r18	; 0x10
	DMA.CH0.CTRLB		= DMA_CH_TRNINTLVL_LO_gc; // set interrupt when burs length reached
     3a0:	80 e0       	ldi	r24, 0x00	; 0
     3a2:	91 e0       	ldi	r25, 0x01	; 1
     3a4:	21 e0       	ldi	r18, 0x01	; 1
     3a6:	fc 01       	movw	r30, r24
     3a8:	21 8b       	std	Z+17, r18	; 0x11
	DMA.CH0.ADDRCTRL	= DMA_CH_SRCRELOAD_BURST_gc | DMA_CH_SRCDIR_INC_gc | // reload source after every burst
     3aa:	80 e0       	ldi	r24, 0x00	; 0
     3ac:	91 e0       	ldi	r25, 0x01	; 1
     3ae:	2d e9       	ldi	r18, 0x9D	; 157
     3b0:	fc 01       	movw	r30, r24
     3b2:	22 8b       	std	Z+18, r18	; 0x12
	DMA_CH_DESTRELOAD_TRANSACTION_gc | DMA_CH_DESTDIR_INC_gc; // reload destination after every transaction
	DMA.CH0.TRIGSRC		= DMA_CH_TRIGSRC_ADCB_CH0_gc;	//DMA0 gets synched by ADCB CH0
     3b4:	80 e0       	ldi	r24, 0x00	; 0
     3b6:	91 e0       	ldi	r25, 0x01	; 1
     3b8:	20 e2       	ldi	r18, 0x20	; 32
     3ba:	fc 01       	movw	r30, r24
     3bc:	23 8b       	std	Z+19, r18	; 0x13
	DMA.CH0.TRFCNT		= 32; // always the number of bytes, even if burst length > 1
     3be:	80 e0       	ldi	r24, 0x00	; 0
     3c0:	91 e0       	ldi	r25, 0x01	; 1
     3c2:	20 e2       	ldi	r18, 0x20	; 32
     3c4:	30 e0       	ldi	r19, 0x00	; 0
     3c6:	fc 01       	movw	r30, r24
     3c8:	24 8b       	std	Z+20, r18	; 0x14
     3ca:	35 8b       	std	Z+21, r19	; 0x15
	DMA.CH0.DESTADDR0	= (( (uint16_t) buffer_a) >> 0) & 0xFF;
     3cc:	80 e0       	ldi	r24, 0x00	; 0
     3ce:	91 e0       	ldi	r25, 0x01	; 1
     3d0:	24 e0       	ldi	r18, 0x04	; 4
     3d2:	31 e3       	ldi	r19, 0x31	; 49
     3d4:	fc 01       	movw	r30, r24
     3d6:	24 8f       	std	Z+28, r18	; 0x1c
	DMA.CH0.DESTADDR1	= (( (uint16_t) buffer_a) >> 8) & 0xFF;
     3d8:	80 e0       	ldi	r24, 0x00	; 0
     3da:	91 e0       	ldi	r25, 0x01	; 1
     3dc:	24 e0       	ldi	r18, 0x04	; 4
     3de:	31 e3       	ldi	r19, 0x31	; 49
     3e0:	23 2f       	mov	r18, r19
     3e2:	33 27       	eor	r19, r19
     3e4:	fc 01       	movw	r30, r24
     3e6:	25 8f       	std	Z+29, r18	; 0x1d
	DMA.CH0.DESTADDR2	= 0;
     3e8:	80 e0       	ldi	r24, 0x00	; 0
     3ea:	91 e0       	ldi	r25, 0x01	; 1
     3ec:	fc 01       	movw	r30, r24
     3ee:	16 8e       	std	Z+30, r1	; 0x1e
	DMA.CH0.SRCADDR0	= (( (uint16_t) &ADCB.CH0.RES) >> 0) & 0xFF;
     3f0:	80 e0       	ldi	r24, 0x00	; 0
     3f2:	91 e0       	ldi	r25, 0x01	; 1
     3f4:	24 e6       	ldi	r18, 0x64	; 100
     3f6:	fc 01       	movw	r30, r24
     3f8:	20 8f       	std	Z+24, r18	; 0x18
	DMA.CH0.SRCADDR1	= (( (uint16_t) &ADCB.CH0.RES) >> 8) & 0xFF;
     3fa:	80 e0       	ldi	r24, 0x00	; 0
     3fc:	91 e0       	ldi	r25, 0x01	; 1
     3fe:	22 e0       	ldi	r18, 0x02	; 2
     400:	fc 01       	movw	r30, r24
     402:	21 8f       	std	Z+25, r18	; 0x19
	DMA.CH0.SRCADDR2	= 0;
     404:	80 e0       	ldi	r24, 0x00	; 0
     406:	91 e0       	ldi	r25, 0x01	; 1
     408:	fc 01       	movw	r30, r24
     40a:	12 8e       	std	Z+26, r1	; 0x1a

	// channel 1
	DMA.CH1.REPCNT		= 0;
     40c:	80 e0       	ldi	r24, 0x00	; 0
     40e:	91 e0       	ldi	r25, 0x01	; 1
     410:	fc 01       	movw	r30, r24
     412:	16 a2       	std	Z+38, r1	; 0x26
	DMA.CH1.CTRLA		= DMA_CH_BURSTLEN_2BYTE_gc | DMA_CH_SINGLE_bm | DMA_CH_REPEAT_bm; // ADC result is 1 byte (8 bit word)
     414:	80 e0       	ldi	r24, 0x00	; 0
     416:	91 e0       	ldi	r25, 0x01	; 1
     418:	25 e2       	ldi	r18, 0x25	; 37
     41a:	fc 01       	movw	r30, r24
     41c:	20 a3       	std	Z+32, r18	; 0x20
	DMA.CH1.CTRLB		= DMA_CH_TRNINTLVL_LO_gc; // set interrupt when burs length reached
     41e:	80 e0       	ldi	r24, 0x00	; 0
     420:	91 e0       	ldi	r25, 0x01	; 1
     422:	21 e0       	ldi	r18, 0x01	; 1
     424:	fc 01       	movw	r30, r24
     426:	21 a3       	std	Z+33, r18	; 0x21
	DMA.CH1.ADDRCTRL	= DMA_CH_SRCRELOAD_BURST_gc | DMA_CH_SRCDIR_INC_gc | // reload source after every burst
     428:	80 e0       	ldi	r24, 0x00	; 0
     42a:	91 e0       	ldi	r25, 0x01	; 1
     42c:	2d e9       	ldi	r18, 0x9D	; 157
     42e:	fc 01       	movw	r30, r24
     430:	22 a3       	std	Z+34, r18	; 0x22
	DMA_CH_DESTRELOAD_TRANSACTION_gc | DMA_CH_DESTDIR_INC_gc; // reload destination after every transaction
	DMA.CH1.TRIGSRC		= DMA_CH_TRIGSRC_ADCB_CH0_gc; //DMA1 gets synched by ADCB CH0
     432:	80 e0       	ldi	r24, 0x00	; 0
     434:	91 e0       	ldi	r25, 0x01	; 1
     436:	20 e2       	ldi	r18, 0x20	; 32
     438:	fc 01       	movw	r30, r24
     43a:	23 a3       	std	Z+35, r18	; 0x23
	DMA.CH1.TRFCNT		= 32; // always the number of bytes, even if burst length > 1
     43c:	80 e0       	ldi	r24, 0x00	; 0
     43e:	91 e0       	ldi	r25, 0x01	; 1
     440:	20 e2       	ldi	r18, 0x20	; 32
     442:	30 e0       	ldi	r19, 0x00	; 0
     444:	fc 01       	movw	r30, r24
     446:	24 a3       	std	Z+36, r18	; 0x24
     448:	35 a3       	std	Z+37, r19	; 0x25
	DMA.CH1.DESTADDR0	= (( (uint16_t) buffer_b) >> 0) & 0xFF;
     44a:	80 e0       	ldi	r24, 0x00	; 0
     44c:	91 e0       	ldi	r25, 0x01	; 1
     44e:	24 ec       	ldi	r18, 0xC4	; 196
     450:	30 e3       	ldi	r19, 0x30	; 48
     452:	fc 01       	movw	r30, r24
     454:	24 a7       	std	Z+44, r18	; 0x2c
	DMA.CH1.DESTADDR1	= (( (uint16_t) buffer_b) >> 8) & 0xFF;
     456:	80 e0       	ldi	r24, 0x00	; 0
     458:	91 e0       	ldi	r25, 0x01	; 1
     45a:	24 ec       	ldi	r18, 0xC4	; 196
     45c:	30 e3       	ldi	r19, 0x30	; 48
     45e:	23 2f       	mov	r18, r19
     460:	33 27       	eor	r19, r19
     462:	fc 01       	movw	r30, r24
     464:	25 a7       	std	Z+45, r18	; 0x2d
	DMA.CH1.DESTADDR2	= 0;
     466:	80 e0       	ldi	r24, 0x00	; 0
     468:	91 e0       	ldi	r25, 0x01	; 1
     46a:	fc 01       	movw	r30, r24
     46c:	16 a6       	std	Z+46, r1	; 0x2e
	DMA.CH1.SRCADDR0	= (( (uint16_t) &ADCB.CH0.RES) >> 0) & 0xFF;
     46e:	80 e0       	ldi	r24, 0x00	; 0
     470:	91 e0       	ldi	r25, 0x01	; 1
     472:	24 e6       	ldi	r18, 0x64	; 100
     474:	fc 01       	movw	r30, r24
     476:	20 a7       	std	Z+40, r18	; 0x28
	DMA.CH1.SRCADDR1	= (( (uint16_t) &ADCB.CH0.RES) >> 8) & 0xFF;
     478:	80 e0       	ldi	r24, 0x00	; 0
     47a:	91 e0       	ldi	r25, 0x01	; 1
     47c:	22 e0       	ldi	r18, 0x02	; 2
     47e:	fc 01       	movw	r30, r24
     480:	21 a7       	std	Z+41, r18	; 0x29
	DMA.CH1.SRCADDR2	= 0;
     482:	80 e0       	ldi	r24, 0x00	; 0
     484:	91 e0       	ldi	r25, 0x01	; 1
     486:	fc 01       	movw	r30, r24
     488:	12 a6       	std	Z+42, r1	; 0x2a


	
	DMA.CH0.CTRLA		|= DMA_CH_ENABLE_bm; //enable DMA channel 0
     48a:	80 e0       	ldi	r24, 0x00	; 0
     48c:	91 e0       	ldi	r25, 0x01	; 1
     48e:	20 e0       	ldi	r18, 0x00	; 0
     490:	31 e0       	ldi	r19, 0x01	; 1
     492:	f9 01       	movw	r30, r18
     494:	20 89       	ldd	r18, Z+16	; 0x10
     496:	20 68       	ori	r18, 0x80	; 128
     498:	fc 01       	movw	r30, r24
     49a:	20 8b       	std	Z+16, r18	; 0x10
	DMA.CH1.CTRLA		|= DMA_CH_ENABLE_bm; //enable DMA channel 1
     49c:	80 e0       	ldi	r24, 0x00	; 0
     49e:	91 e0       	ldi	r25, 0x01	; 1
     4a0:	20 e0       	ldi	r18, 0x00	; 0
     4a2:	31 e0       	ldi	r19, 0x01	; 1
     4a4:	f9 01       	movw	r30, r18
     4a6:	20 a1       	ldd	r18, Z+32	; 0x20
     4a8:	20 68       	ori	r18, 0x80	; 128
     4aa:	fc 01       	movw	r30, r24
     4ac:	20 a3       	std	Z+32, r18	; 0x20
	

	/*Activate Timer */

			TCC1.CTRLA			= TC_CLKSEL_DIV1_gc; // start timer, and in turn ADC
     4ae:	80 e4       	ldi	r24, 0x40	; 64
     4b0:	98 e0       	ldi	r25, 0x08	; 8
     4b2:	21 e0       	ldi	r18, 0x01	; 1
     4b4:	fc 01       	movw	r30, r24
     4b6:	20 83       	st	Z, r18
			TCC1.INTCTRLA		= TC_OVFINTLVL_LO_gc;
     4b8:	80 e4       	ldi	r24, 0x40	; 64
     4ba:	98 e0       	ldi	r25, 0x08	; 8
     4bc:	21 e0       	ldi	r18, 0x01	; 1
     4be:	fc 01       	movw	r30, r24
     4c0:	26 83       	std	Z+6, r18	; 0x06
	
	PMIC_CTRL = PMIC_LOLVLEN_bm;
     4c2:	82 ea       	ldi	r24, 0xA2	; 162
     4c4:	90 e0       	ldi	r25, 0x00	; 0
     4c6:	21 e0       	ldi	r18, 0x01	; 1
     4c8:	fc 01       	movw	r30, r24
     4ca:	20 83       	st	Z, r18
	sei();
     4cc:	78 94       	sei

}
     4ce:	00 00       	nop
     4d0:	df 91       	pop	r29
     4d2:	cf 91       	pop	r28
     4d4:	08 95       	ret

000004d6 <__vector_20>:

ISR(TCC1_OVF_vect)
{
     4d6:	1f 92       	push	r1
     4d8:	0f 92       	push	r0
     4da:	00 90 3f 00 	lds	r0, 0x003F	; 0x80003f <__TEXT_REGION_LENGTH__+0x70003f>
     4de:	0f 92       	push	r0
     4e0:	11 24       	eor	r1, r1
     4e2:	8f 93       	push	r24
     4e4:	9f 93       	push	r25
     4e6:	cf 93       	push	r28
     4e8:	df 93       	push	r29
     4ea:	1f 92       	push	r1
     4ec:	1f 92       	push	r1
     4ee:	cd b7       	in	r28, 0x3d	; 61
     4f0:	de b7       	in	r29, 0x3e	; 62
	int count;
	if (count == 32)
     4f2:	89 81       	ldd	r24, Y+1	; 0x01
     4f4:	9a 81       	ldd	r25, Y+2	; 0x02
     4f6:	80 97       	sbiw	r24, 0x20	; 32
     4f8:	11 f4       	brne	.+4      	; 0x4fe <__vector_20+0x28>
	{
		count = 0;
     4fa:	19 82       	std	Y+1, r1	; 0x01
     4fc:	1a 82       	std	Y+2, r1	; 0x02
	}
	count++;
     4fe:	89 81       	ldd	r24, Y+1	; 0x01
     500:	9a 81       	ldd	r25, Y+2	; 0x02
     502:	01 96       	adiw	r24, 0x01	; 1
     504:	89 83       	std	Y+1, r24	; 0x01
     506:	9a 83       	std	Y+2, r25	; 0x02
}
     508:	00 00       	nop
     50a:	0f 90       	pop	r0
     50c:	0f 90       	pop	r0
     50e:	df 91       	pop	r29
     510:	cf 91       	pop	r28
     512:	9f 91       	pop	r25
     514:	8f 91       	pop	r24
     516:	0f 90       	pop	r0
     518:	00 92 3f 00 	sts	0x003F, r0	; 0x80003f <__TEXT_REGION_LENGTH__+0x70003f>
     51c:	0f 90       	pop	r0
     51e:	1f 90       	pop	r1
     520:	18 95       	reti

00000522 <__vector_6>:


ISR(DMA_CH0_vect)
	{
     522:	1f 92       	push	r1
     524:	0f 92       	push	r0
     526:	00 90 3f 00 	lds	r0, 0x003F	; 0x80003f <__TEXT_REGION_LENGTH__+0x70003f>
     52a:	0f 92       	push	r0
     52c:	11 24       	eor	r1, r1
     52e:	00 90 3b 00 	lds	r0, 0x003B	; 0x80003b <__TEXT_REGION_LENGTH__+0x70003b>
     532:	0f 92       	push	r0
     534:	2f 93       	push	r18
     536:	3f 93       	push	r19
     538:	4f 93       	push	r20
     53a:	5f 93       	push	r21
     53c:	6f 93       	push	r22
     53e:	7f 93       	push	r23
     540:	8f 93       	push	r24
     542:	9f 93       	push	r25
     544:	af 93       	push	r26
     546:	bf 93       	push	r27
     548:	ef 93       	push	r30
     54a:	ff 93       	push	r31
     54c:	cf 93       	push	r28
     54e:	df 93       	push	r29
     550:	1f 92       	push	r1
     552:	1f 92       	push	r1
     554:	cd b7       	in	r28, 0x3d	; 61
     556:	de b7       	in	r29, 0x3e	; 62
 		DMA.INTFLAGS = DMA_CH0TRNIF_bm;
     558:	80 e0       	ldi	r24, 0x00	; 0
     55a:	91 e0       	ldi	r25, 0x01	; 1
     55c:	21 e0       	ldi	r18, 0x01	; 1
     55e:	fc 01       	movw	r30, r24
     560:	23 83       	std	Z+3, r18	; 0x03

		//Interrupt quittieren
		//DMA.CH0.CTRLB |= 0x10;
		//TCC1.INTFLAGS |= 0x01;
		PORTF.OUTTGL = 0x01;
     562:	80 ea       	ldi	r24, 0xA0	; 160
     564:	96 e0       	ldi	r25, 0x06	; 6
     566:	21 e0       	ldi	r18, 0x01	; 1
     568:	fc 01       	movw	r30, r24
     56a:	27 83       	std	Z+7, r18	; 0x07
		
		BaseType_t xHigherPriorityTaskWoken, xResult;

		/* xHigherPriorityTaskWoken must be initialised to pdFALSE. */
		xHigherPriorityTaskWoken = pdFALSE;
     56c:	1a 82       	std	Y+2, r1	; 0x02

		/* Set bit 0 and bit 4 in xEventGroup. */
		xResult = xEventGroupSetBitsFromISR(
     56e:	80 91 4a 2d 	lds	r24, 0x2D4A	; 0x802d4a <xDMAProcessEventGroup>
     572:	90 91 4b 2d 	lds	r25, 0x2D4B	; 0x802d4b <xDMAProcessEventGroup+0x1>
     576:	9e 01       	movw	r18, r28
     578:	2e 5f       	subi	r18, 0xFE	; 254
     57a:	3f 4f       	sbci	r19, 0xFF	; 255
     57c:	41 e0       	ldi	r20, 0x01	; 1
     57e:	50 e0       	ldi	r21, 0x00	; 0
     580:	60 e0       	ldi	r22, 0x00	; 0
     582:	70 e0       	ldi	r23, 0x00	; 0
     584:	0e 94 a9 08 	call	0x1152	; 0x1152 <xEventGroupSetBitsFromISR>
     588:	89 83       	std	Y+1, r24	; 0x01
			switch should be requested.  The macro used is port specific and will
			be either portYIELD_FROM_ISR() or portEND_SWITCHING_ISR() - refer to
			the documentation page for the port being used. */
			//portYIELD_FROM_ISR( xHigherPriorityTaskWoken );
		}	
	}
     58a:	00 00       	nop
     58c:	0f 90       	pop	r0
     58e:	0f 90       	pop	r0
     590:	df 91       	pop	r29
     592:	cf 91       	pop	r28
     594:	ff 91       	pop	r31
     596:	ef 91       	pop	r30
     598:	bf 91       	pop	r27
     59a:	af 91       	pop	r26
     59c:	9f 91       	pop	r25
     59e:	8f 91       	pop	r24
     5a0:	7f 91       	pop	r23
     5a2:	6f 91       	pop	r22
     5a4:	5f 91       	pop	r21
     5a6:	4f 91       	pop	r20
     5a8:	3f 91       	pop	r19
     5aa:	2f 91       	pop	r18
     5ac:	0f 90       	pop	r0
     5ae:	00 92 3b 00 	sts	0x003B, r0	; 0x80003b <__TEXT_REGION_LENGTH__+0x70003b>
     5b2:	0f 90       	pop	r0
     5b4:	00 92 3f 00 	sts	0x003F, r0	; 0x80003f <__TEXT_REGION_LENGTH__+0x70003f>
     5b8:	0f 90       	pop	r0
     5ba:	1f 90       	pop	r1
     5bc:	18 95       	reti

000005be <__vector_7>:

ISR(DMA_CH1_vect)
	//else if (!(DMA.INTFLAGS & DMA_CH0TRNIF_bm))
{
     5be:	1f 92       	push	r1
     5c0:	0f 92       	push	r0
     5c2:	00 90 3f 00 	lds	r0, 0x003F	; 0x80003f <__TEXT_REGION_LENGTH__+0x70003f>
     5c6:	0f 92       	push	r0
     5c8:	11 24       	eor	r1, r1
     5ca:	00 90 3b 00 	lds	r0, 0x003B	; 0x80003b <__TEXT_REGION_LENGTH__+0x70003b>
     5ce:	0f 92       	push	r0
     5d0:	2f 93       	push	r18
     5d2:	3f 93       	push	r19
     5d4:	4f 93       	push	r20
     5d6:	5f 93       	push	r21
     5d8:	6f 93       	push	r22
     5da:	7f 93       	push	r23
     5dc:	8f 93       	push	r24
     5de:	9f 93       	push	r25
     5e0:	af 93       	push	r26
     5e2:	bf 93       	push	r27
     5e4:	ef 93       	push	r30
     5e6:	ff 93       	push	r31
     5e8:	cf 93       	push	r28
     5ea:	df 93       	push	r29
     5ec:	1f 92       	push	r1
     5ee:	1f 92       	push	r1
     5f0:	cd b7       	in	r28, 0x3d	; 61
     5f2:	de b7       	in	r29, 0x3e	; 62

		
		BaseType_t xHigherPriorityTaskWoken, xResult;

		/* xHigherPriorityTaskWoken must be initialised to pdFALSE. */
		xHigherPriorityTaskWoken = pdFALSE;
     5f4:	1a 82       	std	Y+2, r1	; 0x02

		/* Set bit 0 and bit 4 in xEventGroup. */
		xResult = xEventGroupSetBitsFromISR(
     5f6:	80 91 4a 2d 	lds	r24, 0x2D4A	; 0x802d4a <xDMAProcessEventGroup>
     5fa:	90 91 4b 2d 	lds	r25, 0x2D4B	; 0x802d4b <xDMAProcessEventGroup+0x1>
     5fe:	9e 01       	movw	r18, r28
     600:	2e 5f       	subi	r18, 0xFE	; 254
     602:	3f 4f       	sbci	r19, 0xFF	; 255
     604:	42 e0       	ldi	r20, 0x02	; 2
     606:	50 e0       	ldi	r21, 0x00	; 0
     608:	60 e0       	ldi	r22, 0x00	; 0
     60a:	70 e0       	ldi	r23, 0x00	; 0
     60c:	0e 94 a9 08 	call	0x1152	; 0x1152 <xEventGroupSetBitsFromISR>
     610:	89 83       	std	Y+1, r24	; 0x01
			switch should be requested.  The macro used is port specific and will
			be either portYIELD_FROM_ISR() or portEND_SWITCHING_ISR() - refer to
			the documentation page for the port being used. */
			//portYIELD_FROM_ISR( xHigherPriorityTaskWoken );
		}	
}
     612:	00 00       	nop
     614:	0f 90       	pop	r0
     616:	0f 90       	pop	r0
     618:	df 91       	pop	r29
     61a:	cf 91       	pop	r28
     61c:	ff 91       	pop	r31
     61e:	ef 91       	pop	r30
     620:	bf 91       	pop	r27
     622:	af 91       	pop	r26
     624:	9f 91       	pop	r25
     626:	8f 91       	pop	r24
     628:	7f 91       	pop	r23
     62a:	6f 91       	pop	r22
     62c:	5f 91       	pop	r21
     62e:	4f 91       	pop	r20
     630:	3f 91       	pop	r19
     632:	2f 91       	pop	r18
     634:	0f 90       	pop	r0
     636:	00 92 3b 00 	sts	0x003B, r0	; 0x80003b <__TEXT_REGION_LENGTH__+0x70003b>
     63a:	0f 90       	pop	r0
     63c:	00 92 3f 00 	sts	0x003F, r0	; 0x80003f <__TEXT_REGION_LENGTH__+0x70003f>
     640:	0f 90       	pop	r0
     642:	1f 90       	pop	r1
     644:	18 95       	reti

00000646 <vTask_DMAHandler>:
				//24.254842,6.215822,254.00000,0247.784178,229.745158,201.648727,166.245158,127.000000,87.754842,52.351273,24.254842,6.215822,0.000000,6.215822,24.254842,52.351273,87.754842,127.000000,166.245158,
				//201.648727,229.745158,247.784178,127.000000,166.245158,201.648727,229.745158,247.784178,254.000000,247.784178,229.745158,201.648727,166.245158,127.000000,87.754842,52.351273,24.254842,6.215822};
*/

void vTask_DMAHandler(void *pvParameters) 
{
     646:	cf 92       	push	r12
     648:	df 92       	push	r13
     64a:	ef 92       	push	r14
     64c:	ff 92       	push	r15
     64e:	0f 93       	push	r16
     650:	cf 93       	push	r28
     652:	df 93       	push	r29
     654:	cd b7       	in	r28, 0x3d	; 61
     656:	de b7       	in	r29, 0x3e	; 62
     658:	2b 97       	sbiw	r28, 0x0b	; 11
     65a:	cd bf       	out	0x3d, r28	; 61
     65c:	de bf       	out	0x3e, r29	; 62
     65e:	8a 87       	std	Y+10, r24	; 0x0a
     660:	9b 87       	std	Y+11, r25	; 0x0b
	/*Do things and Stuff with DMA!*/
	xDMAProcessEventGroup = xEventGroupCreate();
     662:	0e 94 96 05 	call	0xb2c	; 0xb2c <xEventGroupCreate>
     666:	80 93 4a 2d 	sts	0x2D4A, r24	; 0x802d4a <xDMAProcessEventGroup>
     66a:	90 93 4b 2d 	sts	0x2D4B, r25	; 0x802d4b <xDMAProcessEventGroup+0x1>
	EventBits_t uxBits;
	BaseType_t xResult;
	int i,n,no_signal_counter = 0;
     66e:	1c 82       	std	Y+4, r1	; 0x04
     670:	1d 82       	std	Y+5, r1	; 0x05
	PORTF.DIRSET = PIN1_bm; /*LED1*/
     672:	80 ea       	ldi	r24, 0xA0	; 160
     674:	96 e0       	ldi	r25, 0x06	; 6
     676:	22 e0       	ldi	r18, 0x02	; 2
     678:	fc 01       	movw	r30, r24
     67a:	21 83       	std	Z+1, r18	; 0x01
	PORTF.DIRSET = PIN2_bm; /*LED2*/
     67c:	80 ea       	ldi	r24, 0xA0	; 160
     67e:	96 e0       	ldi	r25, 0x06	; 6
     680:	24 e0       	ldi	r18, 0x04	; 4
     682:	fc 01       	movw	r30, r24
     684:	21 83       	std	Z+1, r18	; 0x01
	PORTE.DIRSET = PIN0_bm;
     686:	80 e8       	ldi	r24, 0x80	; 128
     688:	96 e0       	ldi	r25, 0x06	; 6
     68a:	21 e0       	ldi	r18, 0x01	; 1
     68c:	fc 01       	movw	r30, r24
     68e:	21 83       	std	Z+1, r18	; 0x01
	PORTE.DIRSET = PIN1_bm;
     690:	80 e8       	ldi	r24, 0x80	; 128
     692:	96 e0       	ldi	r25, 0x06	; 6
     694:	22 e0       	ldi	r18, 0x02	; 2
     696:	fc 01       	movw	r30, r24
     698:	21 83       	std	Z+1, r18	; 0x01

	
	while(1)
	{
		uxBits = xEventGroupWaitBits(
     69a:	80 91 4a 2d 	lds	r24, 0x2D4A	; 0x802d4a <xDMAProcessEventGroup>
     69e:	90 91 4b 2d 	lds	r25, 0x2D4B	; 0x802d4b <xDMAProcessEventGroup+0x1>
     6a2:	cc 24       	eor	r12, r12
     6a4:	ca 94       	dec	r12
     6a6:	dc 2c       	mov	r13, r12
     6a8:	76 01       	movw	r14, r12
     6aa:	00 e0       	ldi	r16, 0x00	; 0
     6ac:	21 e0       	ldi	r18, 0x01	; 1
     6ae:	43 e0       	ldi	r20, 0x03	; 3
     6b0:	50 e0       	ldi	r21, 0x00	; 0
     6b2:	60 e0       	ldi	r22, 0x00	; 0
     6b4:	70 e0       	ldi	r23, 0x00	; 0
     6b6:	0e 94 b9 05 	call	0xb72	; 0xb72 <xEventGroupWaitBits>
     6ba:	dc 01       	movw	r26, r24
     6bc:	cb 01       	movw	r24, r22
     6be:	8e 83       	std	Y+6, r24	; 0x06
     6c0:	9f 83       	std	Y+7, r25	; 0x07
     6c2:	a8 87       	std	Y+8, r26	; 0x08
     6c4:	b9 87       	std	Y+9, r27	; 0x09
		pdTRUE,        /* Bits should be cleared before returning. */
		pdFALSE,       /* Don't wait for both bits, either bit will do. */
		portMAX_DELAY );/* Wait a maximum for either bit to be set. */
			
		//Check Event bits
		if(uxBits & DMA_EVT_GRP_BufferA)
     6c6:	8e 81       	ldd	r24, Y+6	; 0x06
     6c8:	9f 81       	ldd	r25, Y+7	; 0x07
     6ca:	a8 85       	ldd	r26, Y+8	; 0x08
     6cc:	b9 85       	ldd	r27, Y+9	; 0x09
     6ce:	81 70       	andi	r24, 0x01	; 1
     6d0:	99 27       	eor	r25, r25
     6d2:	aa 27       	eor	r26, r26
     6d4:	bb 27       	eor	r27, r27
     6d6:	89 2b       	or	r24, r25
     6d8:	8a 2b       	or	r24, r26
     6da:	8b 2b       	or	r24, r27
     6dc:	09 f4       	brne	.+2      	; 0x6e0 <vTask_DMAHandler+0x9a>
     6de:	67 c0       	rjmp	.+206    	; 0x7ae <vTask_DMAHandler+0x168>
		{
			//Do stuff with BufferA
			//buffer_a ....
			for (i=0;i<buffer_length;i++)//Detect signal 
     6e0:	1a 82       	std	Y+2, r1	; 0x02
     6e2:	1b 82       	std	Y+3, r1	; 0x03
     6e4:	42 c0       	rjmp	.+132    	; 0x76a <vTask_DMAHandler+0x124>
			{
				if ((xtest_array_length < 135)&(xtest_array_length > 120))		/*after testing variable is buffer_a				// if value is under threshold, it shall stop calculating the signal*/
     6e6:	80 91 48 2e 	lds	r24, 0x2E48	; 0x802e48 <xtest_array_length>
     6ea:	90 91 49 2e 	lds	r25, 0x2E49	; 0x802e49 <xtest_array_length+0x1>
     6ee:	31 e0       	ldi	r19, 0x01	; 1
     6f0:	87 38       	cpi	r24, 0x87	; 135
     6f2:	91 05       	cpc	r25, r1
     6f4:	0c f0       	brlt	.+2      	; 0x6f8 <vTask_DMAHandler+0xb2>
     6f6:	30 e0       	ldi	r19, 0x00	; 0
     6f8:	80 91 48 2e 	lds	r24, 0x2E48	; 0x802e48 <xtest_array_length>
     6fc:	90 91 49 2e 	lds	r25, 0x2E49	; 0x802e49 <xtest_array_length+0x1>
     700:	21 e0       	ldi	r18, 0x01	; 1
     702:	89 37       	cpi	r24, 0x79	; 121
     704:	91 05       	cpc	r25, r1
     706:	0c f4       	brge	.+2      	; 0x70a <vTask_DMAHandler+0xc4>
     708:	20 e0       	ldi	r18, 0x00	; 0
     70a:	83 2f       	mov	r24, r19
     70c:	82 23       	and	r24, r18
     70e:	88 23       	and	r24, r24
     710:	c1 f0       	breq	.+48     	; 0x742 <vTask_DMAHandler+0xfc>
				{
					no_signal_counter++;							// wait 100 counts to make sure that signal has stopped
     712:	8c 81       	ldd	r24, Y+4	; 0x04
     714:	9d 81       	ldd	r25, Y+5	; 0x05
     716:	01 96       	adiw	r24, 0x01	; 1
     718:	8c 83       	std	Y+4, r24	; 0x04
     71a:	9d 83       	std	Y+5, r25	; 0x05
					if (no_signal_counter >=100)					// no signal stop calculating -> set event bits to 0
     71c:	8c 81       	ldd	r24, Y+4	; 0x04
     71e:	9d 81       	ldd	r25, Y+5	; 0x05
     720:	84 36       	cpi	r24, 0x64	; 100
     722:	91 05       	cpc	r25, r1
     724:	ec f0       	brlt	.+58     	; 0x760 <vTask_DMAHandler+0x11a>
					{											// no signal stop calculating -> set event bits to 0
						xResult = xEventGroupClearBits(			// clear event bits
     726:	80 91 46 2e 	lds	r24, 0x2E46	; 0x802e46 <xSignalProcessEventGroup>
     72a:	90 91 47 2e 	lds	r25, 0x2E47	; 0x802e47 <xSignalProcessEventGroup+0x1>
     72e:	43 e0       	ldi	r20, 0x03	; 3
     730:	50 e0       	ldi	r21, 0x00	; 0
     732:	60 e0       	ldi	r22, 0x00	; 0
     734:	70 e0       	ldi	r23, 0x00	; 0
     736:	0e 94 f1 06 	call	0xde2	; 0xde2 <xEventGroupClearBits>
     73a:	dc 01       	movw	r26, r24
     73c:	cb 01       	movw	r24, r22
     73e:	89 83       	std	Y+1, r24	; 0x01
     740:	0f c0       	rjmp	.+30     	; 0x760 <vTask_DMAHandler+0x11a>
											);												
					}
				}
				else
				{
					xResult = xEventGroupSetBits(
     742:	80 91 46 2e 	lds	r24, 0x2E46	; 0x802e46 <xSignalProcessEventGroup>
     746:	90 91 47 2e 	lds	r25, 0x2E47	; 0x802e47 <xSignalProcessEventGroup+0x1>
     74a:	42 e0       	ldi	r20, 0x02	; 2
     74c:	50 e0       	ldi	r21, 0x00	; 0
     74e:	60 e0       	ldi	r22, 0x00	; 0
     750:	70 e0       	ldi	r23, 0x00	; 0
     752:	0e 94 3c 07 	call	0xe78	; 0xe78 <xEventGroupSetBits>
     756:	dc 01       	movw	r26, r24
     758:	cb 01       	movw	r24, r22
     75a:	89 83       	std	Y+1, r24	; 0x01
					);
					if( xResult & Process_Signal_BufferB )		//test if Eventgroup bit is set
					{
						//count_array_a++;
					}
					no_signal_counter = 0;
     75c:	1c 82       	std	Y+4, r1	; 0x04
     75e:	1d 82       	std	Y+5, r1	; 0x05
		//Check Event bits
		if(uxBits & DMA_EVT_GRP_BufferA)
		{
			//Do stuff with BufferA
			//buffer_a ....
			for (i=0;i<buffer_length;i++)//Detect signal 
     760:	8a 81       	ldd	r24, Y+2	; 0x02
     762:	9b 81       	ldd	r25, Y+3	; 0x03
     764:	01 96       	adiw	r24, 0x01	; 1
     766:	8a 83       	std	Y+2, r24	; 0x02
     768:	9b 83       	std	Y+3, r25	; 0x03
     76a:	80 91 00 20 	lds	r24, 0x2000	; 0x802000 <__data_start>
     76e:	28 2f       	mov	r18, r24
     770:	30 e0       	ldi	r19, 0x00	; 0
     772:	8a 81       	ldd	r24, Y+2	; 0x02
     774:	9b 81       	ldd	r25, Y+3	; 0x03
     776:	82 17       	cp	r24, r18
     778:	93 07       	cpc	r25, r19
     77a:	0c f4       	brge	.+2      	; 0x77e <vTask_DMAHandler+0x138>
     77c:	b4 cf       	rjmp	.-152    	; 0x6e6 <vTask_DMAHandler+0xa0>
						//count_array_a++;
					}
					no_signal_counter = 0;
				}
			}
			count_buffer_a++;
     77e:	80 91 94 20 	lds	r24, 0x2094	; 0x802094 <__data_end>
     782:	8f 5f       	subi	r24, 0xFF	; 255
     784:	80 93 94 20 	sts	0x2094, r24	; 0x802094 <__data_end>
			
			//Debug Output
			PORTF.OUT = (PORTF.OUT & (0xFF - 0x02));
     788:	80 ea       	ldi	r24, 0xA0	; 160
     78a:	96 e0       	ldi	r25, 0x06	; 6
     78c:	20 ea       	ldi	r18, 0xA0	; 160
     78e:	36 e0       	ldi	r19, 0x06	; 6
     790:	f9 01       	movw	r30, r18
     792:	24 81       	ldd	r18, Z+4	; 0x04
     794:	2d 7f       	andi	r18, 0xFD	; 253
     796:	fc 01       	movw	r30, r24
     798:	24 83       	std	Z+4, r18	; 0x04
			PORTF.OUT |= 0x04;	
     79a:	80 ea       	ldi	r24, 0xA0	; 160
     79c:	96 e0       	ldi	r25, 0x06	; 6
     79e:	20 ea       	ldi	r18, 0xA0	; 160
     7a0:	36 e0       	ldi	r19, 0x06	; 6
     7a2:	f9 01       	movw	r30, r18
     7a4:	24 81       	ldd	r18, Z+4	; 0x04
     7a6:	24 60       	ori	r18, 0x04	; 4
     7a8:	fc 01       	movw	r30, r24
     7aa:	24 83       	std	Z+4, r18	; 0x04
     7ac:	60 c0       	rjmp	.+192    	; 0x86e <vTask_DMAHandler+0x228>
		
		else //When it was not DMA_EVT_GRP_BufferA, then it was probably B. Since we only use two bits!
		{						
			//Do stuff with BufferB
			//buffer_b ....
			for (i=0;i<buffer_length;i++)
     7ae:	1a 82       	std	Y+2, r1	; 0x02
     7b0:	1b 82       	std	Y+3, r1	; 0x03
     7b2:	3c c0       	rjmp	.+120    	; 0x82c <vTask_DMAHandler+0x1e6>
			{				
				if (buffer_b[i] >= 20)
     7b4:	8a 81       	ldd	r24, Y+2	; 0x02
     7b6:	9b 81       	ldd	r25, Y+3	; 0x03
     7b8:	8c 53       	subi	r24, 0x3C	; 60
     7ba:	9f 4c       	sbci	r25, 0xCF	; 207
     7bc:	fc 01       	movw	r30, r24
     7be:	80 81       	ld	r24, Z
     7c0:	84 31       	cpi	r24, 0x14	; 20
     7c2:	68 f0       	brcs	.+26     	; 0x7de <vTask_DMAHandler+0x198>
				{
				xResult = xEventGroupSetBits(
     7c4:	80 91 46 2e 	lds	r24, 0x2E46	; 0x802e46 <xSignalProcessEventGroup>
     7c8:	90 91 47 2e 	lds	r25, 0x2E47	; 0x802e47 <xSignalProcessEventGroup+0x1>
     7cc:	41 e0       	ldi	r20, 0x01	; 1
     7ce:	50 e0       	ldi	r21, 0x00	; 0
     7d0:	60 e0       	ldi	r22, 0x00	; 0
     7d2:	70 e0       	ldi	r23, 0x00	; 0
     7d4:	0e 94 3c 07 	call	0xe78	; 0xe78 <xEventGroupSetBits>
     7d8:	dc 01       	movw	r26, r24
     7da:	cb 01       	movw	r24, r22
     7dc:	89 83       	std	Y+1, r24	; 0x01
									xSignalProcessEventGroup,   /* The event group being updated. */
									Process_Signal_BufferA		/* The bits being set. */
									);	
				}
				if(xResult & Process_Signal_BufferA)			//test if Eventgroup bit is set
     7de:	89 81       	ldd	r24, Y+1	; 0x01
     7e0:	08 2e       	mov	r0, r24
     7e2:	00 0c       	add	r0, r0
     7e4:	99 0b       	sbc	r25, r25
     7e6:	81 70       	andi	r24, 0x01	; 1
     7e8:	99 27       	eor	r25, r25
     7ea:	89 2b       	or	r24, r25
     7ec:	19 f0       	breq	.+6      	; 0x7f4 <vTask_DMAHandler+0x1ae>
				{
					{
						//count_array_b++;
					}
					count_buffer_a = 0;
     7ee:	10 92 94 20 	sts	0x2094, r1	; 0x802094 <__data_end>
     7f2:	17 c0       	rjmp	.+46     	; 0x822 <vTask_DMAHandler+0x1dc>
				}
				else											// if value is under threshold, it shall stop calculating the signal
				{
					no_signal_counter++;					
     7f4:	8c 81       	ldd	r24, Y+4	; 0x04
     7f6:	9d 81       	ldd	r25, Y+5	; 0x05
     7f8:	01 96       	adiw	r24, 0x01	; 1
     7fa:	8c 83       	std	Y+4, r24	; 0x04
     7fc:	9d 83       	std	Y+5, r25	; 0x05
					if (no_signal_counter >=100)					// wait 100 counts to make sure that signal has stopped
     7fe:	8c 81       	ldd	r24, Y+4	; 0x04
     800:	9d 81       	ldd	r25, Y+5	; 0x05
     802:	84 36       	cpi	r24, 0x64	; 100
     804:	91 05       	cpc	r25, r1
     806:	6c f0       	brlt	.+26     	; 0x822 <vTask_DMAHandler+0x1dc>
					{									
						xResult = xEventGroupClearBits(			// clear event bits
     808:	80 91 46 2e 	lds	r24, 0x2E46	; 0x802e46 <xSignalProcessEventGroup>
     80c:	90 91 47 2e 	lds	r25, 0x2E47	; 0x802e47 <xSignalProcessEventGroup+0x1>
     810:	43 e0       	ldi	r20, 0x03	; 3
     812:	50 e0       	ldi	r21, 0x00	; 0
     814:	60 e0       	ldi	r22, 0x00	; 0
     816:	70 e0       	ldi	r23, 0x00	; 0
     818:	0e 94 f1 06 	call	0xde2	; 0xde2 <xEventGroupClearBits>
     81c:	dc 01       	movw	r26, r24
     81e:	cb 01       	movw	r24, r22
     820:	89 83       	std	Y+1, r24	; 0x01
		
		else //When it was not DMA_EVT_GRP_BufferA, then it was probably B. Since we only use two bits!
		{						
			//Do stuff with BufferB
			//buffer_b ....
			for (i=0;i<buffer_length;i++)
     822:	8a 81       	ldd	r24, Y+2	; 0x02
     824:	9b 81       	ldd	r25, Y+3	; 0x03
     826:	01 96       	adiw	r24, 0x01	; 1
     828:	8a 83       	std	Y+2, r24	; 0x02
     82a:	9b 83       	std	Y+3, r25	; 0x03
     82c:	80 91 00 20 	lds	r24, 0x2000	; 0x802000 <__data_start>
     830:	28 2f       	mov	r18, r24
     832:	30 e0       	ldi	r19, 0x00	; 0
     834:	8a 81       	ldd	r24, Y+2	; 0x02
     836:	9b 81       	ldd	r25, Y+3	; 0x03
     838:	82 17       	cp	r24, r18
     83a:	93 07       	cpc	r25, r19
     83c:	0c f4       	brge	.+2      	; 0x840 <vTask_DMAHandler+0x1fa>
     83e:	ba cf       	rjmp	.-140    	; 0x7b4 <vTask_DMAHandler+0x16e>
												Process_Signal_BufferA|Process_Signal_BufferB
												);										// no signal stop calculating -> set event bits to 0
						}
				}
			}
			count_buffer_b++;
     840:	80 91 95 20 	lds	r24, 0x2095	; 0x802095 <count_buffer_b>
     844:	8f 5f       	subi	r24, 0xFF	; 255
     846:	80 93 95 20 	sts	0x2095, r24	; 0x802095 <count_buffer_b>
			//Debug Output
			PORTF.OUT = (PORTF.OUT & (0xFF - 0x04));
     84a:	80 ea       	ldi	r24, 0xA0	; 160
     84c:	96 e0       	ldi	r25, 0x06	; 6
     84e:	20 ea       	ldi	r18, 0xA0	; 160
     850:	36 e0       	ldi	r19, 0x06	; 6
     852:	f9 01       	movw	r30, r18
     854:	24 81       	ldd	r18, Z+4	; 0x04
     856:	2b 7f       	andi	r18, 0xFB	; 251
     858:	fc 01       	movw	r30, r24
     85a:	24 83       	std	Z+4, r18	; 0x04
			PORTF.OUT |= 0x02;
     85c:	80 ea       	ldi	r24, 0xA0	; 160
     85e:	96 e0       	ldi	r25, 0x06	; 6
     860:	20 ea       	ldi	r18, 0xA0	; 160
     862:	36 e0       	ldi	r19, 0x06	; 6
     864:	f9 01       	movw	r30, r18
     866:	24 81       	ldd	r18, Z+4	; 0x04
     868:	22 60       	ori	r18, 0x02	; 2
     86a:	fc 01       	movw	r30, r24
     86c:	24 83       	std	Z+4, r18	; 0x04
		}
	vTaskDelay(100 / portTICK_RATE_MS);
     86e:	64 e6       	ldi	r22, 0x64	; 100
     870:	70 e0       	ldi	r23, 0x00	; 0
     872:	80 e0       	ldi	r24, 0x00	; 0
     874:	90 e0       	ldi	r25, 0x00	; 0
     876:	0e 94 ad 15 	call	0x2b5a	; 0x2b5a <vTaskDelay>
	}
     87a:	0f cf       	rjmp	.-482    	; 0x69a <vTask_DMAHandler+0x54>

0000087c <CCPWrite>:
 *
 *  \param address A pointer to the address to write to.
 *  \param value   The value to put in to the register.
 */
void CCPWrite( volatile uint8_t * address, uint8_t value )
{
     87c:	0f 93       	push	r16
     87e:	cf 93       	push	r28
     880:	df 93       	push	r29
     882:	00 d0       	rcall	.+0      	; 0x884 <CCPWrite+0x8>
     884:	00 d0       	rcall	.+0      	; 0x886 <CCPWrite+0xa>
     886:	cd b7       	in	r28, 0x3d	; 61
     888:	de b7       	in	r29, 0x3e	; 62
     88a:	8c 83       	std	Y+4, r24	; 0x04
     88c:	9d 83       	std	Y+5, r25	; 0x05
     88e:	6e 83       	std	Y+6, r22	; 0x06

	// Restore global interrupt setting from scratch register.
        asm("out  0x3F, R1");

#elif defined __GNUC__
	AVR_ENTER_CRITICAL_REGION( );
     890:	8f e3       	ldi	r24, 0x3F	; 63
     892:	90 e0       	ldi	r25, 0x00	; 0
     894:	fc 01       	movw	r30, r24
     896:	80 81       	ld	r24, Z
     898:	8b 83       	std	Y+3, r24	; 0x03
     89a:	f8 94       	cli
	volatile uint8_t * tmpAddr = address;
     89c:	8c 81       	ldd	r24, Y+4	; 0x04
     89e:	9d 81       	ldd	r25, Y+5	; 0x05
     8a0:	89 83       	std	Y+1, r24	; 0x01
     8a2:	9a 83       	std	Y+2, r25	; 0x02
#ifdef RAMPZ
	RAMPZ = 0;
     8a4:	8b e3       	ldi	r24, 0x3B	; 59
     8a6:	90 e0       	ldi	r25, 0x00	; 0
     8a8:	fc 01       	movw	r30, r24
     8aa:	10 82       	st	Z, r1
#endif
	asm volatile(
     8ac:	89 81       	ldd	r24, Y+1	; 0x01
     8ae:	9a 81       	ldd	r25, Y+2	; 0x02
     8b0:	2e 81       	ldd	r18, Y+6	; 0x06
     8b2:	fc 01       	movw	r30, r24
     8b4:	08 ed       	ldi	r16, 0xD8	; 216
     8b6:	04 bf       	out	0x34, r16	; 52
     8b8:	20 83       	st	Z, r18
		:
		: "r" (tmpAddr), "r" (value), "M" (CCP_IOREG_gc), "i" (&CCP)
		: "r16", "r30", "r31"
		);

	AVR_LEAVE_CRITICAL_REGION( );
     8ba:	8f e3       	ldi	r24, 0x3F	; 63
     8bc:	90 e0       	ldi	r25, 0x00	; 0
     8be:	2b 81       	ldd	r18, Y+3	; 0x03
     8c0:	fc 01       	movw	r30, r24
     8c2:	20 83       	st	Z, r18
#endif
}
     8c4:	00 00       	nop
     8c6:	26 96       	adiw	r28, 0x06	; 6
     8c8:	cd bf       	out	0x3d, r28	; 61
     8ca:	de bf       	out	0x3e, r29	; 62
     8cc:	df 91       	pop	r29
     8ce:	cf 91       	pop	r28
     8d0:	0f 91       	pop	r16
     8d2:	08 95       	ret

000008d4 <CLKSYS_XOSC_Config>:
 *                             external clock) and startup times.
 */
void CLKSYS_XOSC_Config( OSC_FRQRANGE_t freqRange,
                         bool lowPower32kHz,
                         OSC_XOSCSEL_t xoscModeSelection )
{
     8d4:	cf 93       	push	r28
     8d6:	df 93       	push	r29
     8d8:	00 d0       	rcall	.+0      	; 0x8da <CLKSYS_XOSC_Config+0x6>
     8da:	cd b7       	in	r28, 0x3d	; 61
     8dc:	de b7       	in	r29, 0x3e	; 62
     8de:	89 83       	std	Y+1, r24	; 0x01
     8e0:	6a 83       	std	Y+2, r22	; 0x02
     8e2:	4b 83       	std	Y+3, r20	; 0x03
	OSC.XOSCCTRL = (uint8_t) freqRange |
     8e4:	80 e5       	ldi	r24, 0x50	; 80
     8e6:	90 e0       	ldi	r25, 0x00	; 0
     8e8:	2a 81       	ldd	r18, Y+2	; 0x02
     8ea:	22 23       	and	r18, r18
     8ec:	11 f0       	breq	.+4      	; 0x8f2 <CLKSYS_XOSC_Config+0x1e>
     8ee:	20 e2       	ldi	r18, 0x20	; 32
     8f0:	01 c0       	rjmp	.+2      	; 0x8f4 <CLKSYS_XOSC_Config+0x20>
     8f2:	20 e0       	ldi	r18, 0x00	; 0
     8f4:	39 81       	ldd	r19, Y+1	; 0x01
     8f6:	32 2b       	or	r19, r18
     8f8:	2b 81       	ldd	r18, Y+3	; 0x03
     8fa:	23 2b       	or	r18, r19
     8fc:	fc 01       	movw	r30, r24
     8fe:	22 83       	std	Z+2, r18	; 0x02
	               ( lowPower32kHz ? OSC_X32KLPM_bm : 0 ) |
	               xoscModeSelection;
}
     900:	00 00       	nop
     902:	23 96       	adiw	r28, 0x03	; 3
     904:	cd bf       	out	0x3d, r28	; 61
     906:	de bf       	out	0x3e, r29	; 62
     908:	df 91       	pop	r29
     90a:	cf 91       	pop	r28
     90c:	08 95       	ret

0000090e <CLKSYS_PLL_Config>:
 *                      must be above 0.4MHz.
 *  \param  factor      PLL multiplication factor, must be
 *                      from 1 to 31, inclusive.
 */
void CLKSYS_PLL_Config( OSC_PLLSRC_t clockSource, uint8_t factor )
{
     90e:	cf 93       	push	r28
     910:	df 93       	push	r29
     912:	1f 92       	push	r1
     914:	1f 92       	push	r1
     916:	cd b7       	in	r28, 0x3d	; 61
     918:	de b7       	in	r29, 0x3e	; 62
     91a:	89 83       	std	Y+1, r24	; 0x01
     91c:	6a 83       	std	Y+2, r22	; 0x02
	factor &= OSC_PLLFAC_gm;
     91e:	8a 81       	ldd	r24, Y+2	; 0x02
     920:	8f 71       	andi	r24, 0x1F	; 31
     922:	8a 83       	std	Y+2, r24	; 0x02
	OSC.PLLCTRL = (uint8_t) clockSource | ( factor << OSC_PLLFAC_gp );
     924:	80 e5       	ldi	r24, 0x50	; 80
     926:	90 e0       	ldi	r25, 0x00	; 0
     928:	39 81       	ldd	r19, Y+1	; 0x01
     92a:	2a 81       	ldd	r18, Y+2	; 0x02
     92c:	23 2b       	or	r18, r19
     92e:	fc 01       	movw	r30, r24
     930:	25 83       	std	Z+5, r18	; 0x05
}
     932:	00 00       	nop
     934:	0f 90       	pop	r0
     936:	0f 90       	pop	r0
     938:	df 91       	pop	r29
     93a:	cf 91       	pop	r28
     93c:	08 95       	ret

0000093e <CLKSYS_Disable>:
 *                 OSC_XOSCEN_bm, OSC_PLLEN_bm.
 *
 *  \return  Non-zero if oscillator was disabled successfully.
 */
uint8_t CLKSYS_Disable( uint8_t oscSel )
{
     93e:	cf 93       	push	r28
     940:	df 93       	push	r29
     942:	1f 92       	push	r1
     944:	1f 92       	push	r1
     946:	cd b7       	in	r28, 0x3d	; 61
     948:	de b7       	in	r29, 0x3e	; 62
     94a:	8a 83       	std	Y+2, r24	; 0x02
	OSC.CTRL &= ~oscSel;
     94c:	80 e5       	ldi	r24, 0x50	; 80
     94e:	90 e0       	ldi	r25, 0x00	; 0
     950:	20 e5       	ldi	r18, 0x50	; 80
     952:	30 e0       	ldi	r19, 0x00	; 0
     954:	f9 01       	movw	r30, r18
     956:	20 81       	ld	r18, Z
     958:	32 2f       	mov	r19, r18
     95a:	2a 81       	ldd	r18, Y+2	; 0x02
     95c:	20 95       	com	r18
     95e:	23 23       	and	r18, r19
     960:	fc 01       	movw	r30, r24
     962:	20 83       	st	Z, r18
	uint8_t clkEnabled = OSC.CTRL & oscSel;
     964:	80 e5       	ldi	r24, 0x50	; 80
     966:	90 e0       	ldi	r25, 0x00	; 0
     968:	fc 01       	movw	r30, r24
     96a:	90 81       	ld	r25, Z
     96c:	8a 81       	ldd	r24, Y+2	; 0x02
     96e:	89 23       	and	r24, r25
     970:	89 83       	std	Y+1, r24	; 0x01
	return clkEnabled;
     972:	89 81       	ldd	r24, Y+1	; 0x01
}
     974:	0f 90       	pop	r0
     976:	0f 90       	pop	r0
     978:	df 91       	pop	r29
     97a:	cf 91       	pop	r28
     97c:	08 95       	ret

0000097e <CLKSYS_Prescalers_Config>:
 *  \param  PSBCfactor  Prescaler B and C division factor, in the combination
 *                      of (1,1), (1,2), (4,1) or (2,2).
 */
void CLKSYS_Prescalers_Config( CLK_PSADIV_t PSAfactor,
                               CLK_PSBCDIV_t PSBCfactor )
{
     97e:	cf 93       	push	r28
     980:	df 93       	push	r29
     982:	00 d0       	rcall	.+0      	; 0x984 <CLKSYS_Prescalers_Config+0x6>
     984:	cd b7       	in	r28, 0x3d	; 61
     986:	de b7       	in	r29, 0x3e	; 62
     988:	8a 83       	std	Y+2, r24	; 0x02
     98a:	6b 83       	std	Y+3, r22	; 0x03
	uint8_t PSconfig = (uint8_t) PSAfactor | PSBCfactor;
     98c:	9a 81       	ldd	r25, Y+2	; 0x02
     98e:	8b 81       	ldd	r24, Y+3	; 0x03
     990:	89 2b       	or	r24, r25
     992:	89 83       	std	Y+1, r24	; 0x01
	CCPWrite( &CLK.PSCTRL, PSconfig );
     994:	69 81       	ldd	r22, Y+1	; 0x01
     996:	81 e4       	ldi	r24, 0x41	; 65
     998:	90 e0       	ldi	r25, 0x00	; 0
     99a:	0e 94 3e 04 	call	0x87c	; 0x87c <CCPWrite>
}
     99e:	00 00       	nop
     9a0:	23 96       	adiw	r28, 0x03	; 3
     9a2:	cd bf       	out	0x3d, r28	; 61
     9a4:	de bf       	out	0x3e, r29	; 62
     9a6:	df 91       	pop	r29
     9a8:	cf 91       	pop	r28
     9aa:	08 95       	ret

000009ac <CLKSYS_Main_ClockSource_Select>:
 *                       prescaler block.
 *
 *  \return  Non-zero if change was successful.
 */
uint8_t CLKSYS_Main_ClockSource_Select( CLK_SCLKSEL_t clockSource )
{
     9ac:	cf 93       	push	r28
     9ae:	df 93       	push	r29
     9b0:	1f 92       	push	r1
     9b2:	1f 92       	push	r1
     9b4:	cd b7       	in	r28, 0x3d	; 61
     9b6:	de b7       	in	r29, 0x3e	; 62
     9b8:	8a 83       	std	Y+2, r24	; 0x02
	uint8_t clkCtrl = ( CLK.CTRL & ~CLK_SCLKSEL_gm ) | clockSource;
     9ba:	80 e4       	ldi	r24, 0x40	; 64
     9bc:	90 e0       	ldi	r25, 0x00	; 0
     9be:	fc 01       	movw	r30, r24
     9c0:	80 81       	ld	r24, Z
     9c2:	98 2f       	mov	r25, r24
     9c4:	98 7f       	andi	r25, 0xF8	; 248
     9c6:	8a 81       	ldd	r24, Y+2	; 0x02
     9c8:	89 2b       	or	r24, r25
     9ca:	89 83       	std	Y+1, r24	; 0x01
	CCPWrite( &CLK.CTRL, clkCtrl );
     9cc:	69 81       	ldd	r22, Y+1	; 0x01
     9ce:	80 e4       	ldi	r24, 0x40	; 64
     9d0:	90 e0       	ldi	r25, 0x00	; 0
     9d2:	0e 94 3e 04 	call	0x87c	; 0x87c <CCPWrite>
	clkCtrl = ( CLK.CTRL & clockSource );
     9d6:	80 e4       	ldi	r24, 0x40	; 64
     9d8:	90 e0       	ldi	r25, 0x00	; 0
     9da:	fc 01       	movw	r30, r24
     9dc:	90 81       	ld	r25, Z
     9de:	8a 81       	ldd	r24, Y+2	; 0x02
     9e0:	89 23       	and	r24, r25
     9e2:	89 83       	std	Y+1, r24	; 0x01
	return clkCtrl;
     9e4:	89 81       	ldd	r24, Y+1	; 0x01
}
     9e6:	0f 90       	pop	r0
     9e8:	0f 90       	pop	r0
     9ea:	df 91       	pop	r29
     9ec:	cf 91       	pop	r28
     9ee:	08 95       	ret

000009f0 <TC0_ConfigClockSource>:
	/* Make sure only CCxEN bits are set in disableMask. */
	disableMask &= ( TC1_CCAEN_bm | TC1_CCBEN_bm );

	/* Disable channels. */
	tc->CTRLB &= ~disableMask;
}
     9f0:	cf 93       	push	r28
     9f2:	df 93       	push	r29
     9f4:	00 d0       	rcall	.+0      	; 0x9f6 <TC0_ConfigClockSource+0x6>
     9f6:	cd b7       	in	r28, 0x3d	; 61
     9f8:	de b7       	in	r29, 0x3e	; 62
     9fa:	89 83       	std	Y+1, r24	; 0x01
     9fc:	9a 83       	std	Y+2, r25	; 0x02
     9fe:	6b 83       	std	Y+3, r22	; 0x03
     a00:	89 81       	ldd	r24, Y+1	; 0x01
     a02:	9a 81       	ldd	r25, Y+2	; 0x02
     a04:	fc 01       	movw	r30, r24
     a06:	80 81       	ld	r24, Z
     a08:	98 2f       	mov	r25, r24
     a0a:	90 7f       	andi	r25, 0xF0	; 240
     a0c:	8b 81       	ldd	r24, Y+3	; 0x03
     a0e:	89 2b       	or	r24, r25
     a10:	28 2f       	mov	r18, r24
     a12:	89 81       	ldd	r24, Y+1	; 0x01
     a14:	9a 81       	ldd	r25, Y+2	; 0x02
     a16:	fc 01       	movw	r30, r24
     a18:	20 83       	st	Z, r18
     a1a:	00 00       	nop
     a1c:	23 96       	adiw	r28, 0x03	; 3
     a1e:	cd bf       	out	0x3d, r28	; 61
     a20:	de bf       	out	0x3e, r29	; 62
     a22:	df 91       	pop	r29
     a24:	cf 91       	pop	r28
     a26:	08 95       	ret

00000a28 <TC0_ConfigWGM>:
     a28:	cf 93       	push	r28
     a2a:	df 93       	push	r29
     a2c:	00 d0       	rcall	.+0      	; 0xa2e <TC0_ConfigWGM+0x6>
     a2e:	cd b7       	in	r28, 0x3d	; 61
     a30:	de b7       	in	r29, 0x3e	; 62
     a32:	89 83       	std	Y+1, r24	; 0x01
     a34:	9a 83       	std	Y+2, r25	; 0x02
     a36:	6b 83       	std	Y+3, r22	; 0x03
     a38:	89 81       	ldd	r24, Y+1	; 0x01
     a3a:	9a 81       	ldd	r25, Y+2	; 0x02
     a3c:	fc 01       	movw	r30, r24
     a3e:	81 81       	ldd	r24, Z+1	; 0x01
     a40:	98 2f       	mov	r25, r24
     a42:	98 7f       	andi	r25, 0xF8	; 248
     a44:	8b 81       	ldd	r24, Y+3	; 0x03
     a46:	89 2b       	or	r24, r25
     a48:	28 2f       	mov	r18, r24
     a4a:	89 81       	ldd	r24, Y+1	; 0x01
     a4c:	9a 81       	ldd	r25, Y+2	; 0x02
     a4e:	fc 01       	movw	r30, r24
     a50:	21 83       	std	Z+1, r18	; 0x01
     a52:	00 00       	nop
     a54:	23 96       	adiw	r28, 0x03	; 3
     a56:	cd bf       	out	0x3d, r28	; 61
     a58:	de bf       	out	0x3e, r29	; 62
     a5a:	df 91       	pop	r29
     a5c:	cf 91       	pop	r28
     a5e:	08 95       	ret

00000a60 <TC0_SetOverflowIntLevel>:
 *
 *  \param tc               Timer/Counter module instance.
 *  \param intLevel         New overflow interrupt level.
 */
void TC0_SetOverflowIntLevel( volatile TC0_t * tc, TC_OVFINTLVL_t intLevel )
{
     a60:	cf 93       	push	r28
     a62:	df 93       	push	r29
     a64:	00 d0       	rcall	.+0      	; 0xa66 <TC0_SetOverflowIntLevel+0x6>
     a66:	cd b7       	in	r28, 0x3d	; 61
     a68:	de b7       	in	r29, 0x3e	; 62
     a6a:	89 83       	std	Y+1, r24	; 0x01
     a6c:	9a 83       	std	Y+2, r25	; 0x02
     a6e:	6b 83       	std	Y+3, r22	; 0x03
	tc->INTCTRLA = ( tc->INTCTRLA & ~TC0_OVFINTLVL_gm ) | intLevel;
     a70:	89 81       	ldd	r24, Y+1	; 0x01
     a72:	9a 81       	ldd	r25, Y+2	; 0x02
     a74:	fc 01       	movw	r30, r24
     a76:	86 81       	ldd	r24, Z+6	; 0x06
     a78:	98 2f       	mov	r25, r24
     a7a:	9c 7f       	andi	r25, 0xFC	; 252
     a7c:	8b 81       	ldd	r24, Y+3	; 0x03
     a7e:	89 2b       	or	r24, r25
     a80:	28 2f       	mov	r18, r24
     a82:	89 81       	ldd	r24, Y+1	; 0x01
     a84:	9a 81       	ldd	r25, Y+2	; 0x02
     a86:	fc 01       	movw	r30, r24
     a88:	26 83       	std	Z+6, r18	; 0x06
}
     a8a:	00 00       	nop
     a8c:	23 96       	adiw	r28, 0x03	; 3
     a8e:	cd bf       	out	0x3d, r28	; 61
     a90:	de bf       	out	0x3e, r29	; 62
     a92:	df 91       	pop	r29
     a94:	cf 91       	pop	r28
     a96:	08 95       	ret

00000a98 <vApplicationStackOverflowHook>:
 {
	 (void)errCode;

	 uint8_t a=42; (void)a;

 }
     a98:	cf 93       	push	r28
     a9a:	df 93       	push	r29
     a9c:	00 d0       	rcall	.+0      	; 0xa9e <vApplicationStackOverflowHook+0x6>
     a9e:	1f 92       	push	r1
     aa0:	cd b7       	in	r28, 0x3d	; 61
     aa2:	de b7       	in	r29, 0x3e	; 62
     aa4:	89 83       	std	Y+1, r24	; 0x01
     aa6:	9a 83       	std	Y+2, r25	; 0x02
     aa8:	6b 83       	std	Y+3, r22	; 0x03
     aaa:	7c 83       	std	Y+4, r23	; 0x04
     aac:	8b e2       	ldi	r24, 0x2B	; 43
     aae:	0e 94 60 05 	call	0xac0	; 0xac0 <error>
     ab2:	00 00       	nop
     ab4:	24 96       	adiw	r28, 0x04	; 4
     ab6:	cd bf       	out	0x3d, r28	; 61
     ab8:	de bf       	out	0x3e, r29	; 62
     aba:	df 91       	pop	r29
     abc:	cf 91       	pop	r28
     abe:	08 95       	ret

00000ac0 <error>:

 //----------------------------------------------
 //
 void error(uint8_t errCode)
 {
     ac0:	cf 93       	push	r28
     ac2:	df 93       	push	r29
     ac4:	1f 92       	push	r1
     ac6:	1f 92       	push	r1
     ac8:	cd b7       	in	r28, 0x3d	; 61
     aca:	de b7       	in	r29, 0x3e	; 62
     acc:	8a 83       	std	Y+2, r24	; 0x02
	 uint8_t a;

	 if(errCode==ERR_STACK_OVERFLOW)
     ace:	8a 81       	ldd	r24, Y+2	; 0x02
     ad0:	8b 32       	cpi	r24, 0x2B	; 43
     ad2:	19 f4       	brne	.+6      	; 0xada <error+0x1a>
	 a = 1;
     ad4:	81 e0       	ldi	r24, 0x01	; 1
     ad6:	89 83       	std	Y+1, r24	; 0x01
     ad8:	0e c0       	rjmp	.+28     	; 0xaf6 <error+0x36>
	 else if(errCode==ERR_QUEUE_SEND_FAILED)
     ada:	8a 81       	ldd	r24, Y+2	; 0x02
     adc:	8c 32       	cpi	r24, 0x2C	; 44
     ade:	19 f4       	brne	.+6      	; 0xae6 <error+0x26>
	 a = 2;
     ae0:	82 e0       	ldi	r24, 0x02	; 2
     ae2:	89 83       	std	Y+1, r24	; 0x01
     ae4:	08 c0       	rjmp	.+16     	; 0xaf6 <error+0x36>
	 else if(errCode==ERR_BYTES_SHOULD_BE_AVAILABLE)
     ae6:	8a 81       	ldd	r24, Y+2	; 0x02
     ae8:	8f 32       	cpi	r24, 0x2F	; 47
     aea:	19 f4       	brne	.+6      	; 0xaf2 <error+0x32>
	 a = 3;
     aec:	83 e0       	ldi	r24, 0x03	; 3
     aee:	89 83       	std	Y+1, r24	; 0x01
     af0:	02 c0       	rjmp	.+4      	; 0xaf6 <error+0x36>
	 else
	 a = 4;
     af2:	84 e0       	ldi	r24, 0x04	; 4
     af4:	89 83       	std	Y+1, r24	; 0x01
	 // TODO from here:
	 //
	 // - log the occurance of any error in flash mem (inc counter)
	 // - print a message

	 software_reset();
     af6:	0e 94 83 05 	call	0xb06	; 0xb06 <software_reset>
 }
     afa:	00 00       	nop
     afc:	0f 90       	pop	r0
     afe:	0f 90       	pop	r0
     b00:	df 91       	pop	r29
     b02:	cf 91       	pop	r28
     b04:	08 95       	ret

00000b06 <software_reset>:

 //----------------------------------------------
 //
 void software_reset(void)
 {	 
     b06:	cf 93       	push	r28
     b08:	df 93       	push	r29
     b0a:	cd b7       	in	r28, 0x3d	; 61
     b0c:	de b7       	in	r29, 0x3e	; 62
	 asm("nop");
     b0e:	00 00       	nop
	 CPU_CCP  = CCP_IOREG_gc;
     b10:	84 e3       	ldi	r24, 0x34	; 52
     b12:	90 e0       	ldi	r25, 0x00	; 0
     b14:	28 ed       	ldi	r18, 0xD8	; 216
     b16:	fc 01       	movw	r30, r24
     b18:	20 83       	st	Z, r18
	 RST.CTRL = RST_SWRST_bm ;	 
     b1a:	88 e7       	ldi	r24, 0x78	; 120
     b1c:	90 e0       	ldi	r25, 0x00	; 0
     b1e:	21 e0       	ldi	r18, 0x01	; 1
     b20:	fc 01       	movw	r30, r24
     b22:	21 83       	std	Z+1, r18	; 0x01
     b24:	00 00       	nop
     b26:	df 91       	pop	r29
     b28:	cf 91       	pop	r28
     b2a:	08 95       	ret

00000b2c <xEventGroupCreate>:
/* For internal use only - execute a 'clear bits' command that was pended from
an interrupt. */
void vEventGroupClearBitsCallback( void *pvEventGroup, const uint32_t ulBitsToClear )
{
	( void ) xEventGroupClearBits( pvEventGroup, ( EventBits_t ) ulBitsToClear );
}
     b2c:	cf 93       	push	r28
     b2e:	df 93       	push	r29
     b30:	1f 92       	push	r1
     b32:	1f 92       	push	r1
     b34:	cd b7       	in	r28, 0x3d	; 61
     b36:	de b7       	in	r29, 0x3e	; 62
     b38:	80 e1       	ldi	r24, 0x10	; 16
     b3a:	90 e0       	ldi	r25, 0x00	; 0
     b3c:	0e 94 d3 08 	call	0x11a6	; 0x11a6 <pvPortMalloc>
     b40:	89 83       	std	Y+1, r24	; 0x01
     b42:	9a 83       	std	Y+2, r25	; 0x02
     b44:	89 81       	ldd	r24, Y+1	; 0x01
     b46:	9a 81       	ldd	r25, Y+2	; 0x02
     b48:	89 2b       	or	r24, r25
     b4a:	61 f0       	breq	.+24     	; 0xb64 <xEventGroupCreate+0x38>
     b4c:	89 81       	ldd	r24, Y+1	; 0x01
     b4e:	9a 81       	ldd	r25, Y+2	; 0x02
     b50:	fc 01       	movw	r30, r24
     b52:	10 82       	st	Z, r1
     b54:	11 82       	std	Z+1, r1	; 0x01
     b56:	12 82       	std	Z+2, r1	; 0x02
     b58:	13 82       	std	Z+3, r1	; 0x03
     b5a:	89 81       	ldd	r24, Y+1	; 0x01
     b5c:	9a 81       	ldd	r25, Y+2	; 0x02
     b5e:	04 96       	adiw	r24, 0x04	; 4
     b60:	0e 94 25 09 	call	0x124a	; 0x124a <vListInitialise>
     b64:	89 81       	ldd	r24, Y+1	; 0x01
     b66:	9a 81       	ldd	r25, Y+2	; 0x02
     b68:	0f 90       	pop	r0
     b6a:	0f 90       	pop	r0
     b6c:	df 91       	pop	r29
     b6e:	cf 91       	pop	r28
     b70:	08 95       	ret

00000b72 <xEventGroupWaitBits>:
     b72:	cf 92       	push	r12
     b74:	df 92       	push	r13
     b76:	ef 92       	push	r14
     b78:	ff 92       	push	r15
     b7a:	0f 93       	push	r16
     b7c:	1f 93       	push	r17
     b7e:	cf 93       	push	r28
     b80:	df 93       	push	r29
     b82:	cd b7       	in	r28, 0x3d	; 61
     b84:	de b7       	in	r29, 0x3e	; 62
     b86:	6d 97       	sbiw	r28, 0x1d	; 29
     b88:	cd bf       	out	0x3d, r28	; 61
     b8a:	de bf       	out	0x3e, r29	; 62
     b8c:	8a 8b       	std	Y+18, r24	; 0x12
     b8e:	9b 8b       	std	Y+19, r25	; 0x13
     b90:	4c 8b       	std	Y+20, r20	; 0x14
     b92:	5d 8b       	std	Y+21, r21	; 0x15
     b94:	6e 8b       	std	Y+22, r22	; 0x16
     b96:	7f 8b       	std	Y+23, r23	; 0x17
     b98:	28 8f       	std	Y+24, r18	; 0x18
     b9a:	09 8f       	std	Y+25, r16	; 0x19
     b9c:	ca 8e       	std	Y+26, r12	; 0x1a
     b9e:	db 8e       	std	Y+27, r13	; 0x1b
     ba0:	ec 8e       	std	Y+28, r14	; 0x1c
     ba2:	fd 8e       	std	Y+29, r15	; 0x1d
     ba4:	8a 89       	ldd	r24, Y+18	; 0x12
     ba6:	9b 89       	ldd	r25, Y+19	; 0x13
     ba8:	89 87       	std	Y+9, r24	; 0x09
     baa:	9a 87       	std	Y+10, r25	; 0x0a
     bac:	1d 82       	std	Y+5, r1	; 0x05
     bae:	1e 82       	std	Y+6, r1	; 0x06
     bb0:	1f 82       	std	Y+7, r1	; 0x07
     bb2:	18 86       	std	Y+8, r1	; 0x08
     bb4:	1b 86       	std	Y+11, r1	; 0x0b
     bb6:	0e 94 27 16 	call	0x2c4e	; 0x2c4e <vTaskSuspendAll>
     bba:	89 85       	ldd	r24, Y+9	; 0x09
     bbc:	9a 85       	ldd	r25, Y+10	; 0x0a
     bbe:	fc 01       	movw	r30, r24
     bc0:	80 81       	ld	r24, Z
     bc2:	91 81       	ldd	r25, Z+1	; 0x01
     bc4:	a2 81       	ldd	r26, Z+2	; 0x02
     bc6:	b3 81       	ldd	r27, Z+3	; 0x03
     bc8:	8c 87       	std	Y+12, r24	; 0x0c
     bca:	9d 87       	std	Y+13, r25	; 0x0d
     bcc:	ae 87       	std	Y+14, r26	; 0x0e
     bce:	bf 87       	std	Y+15, r27	; 0x0f
     bd0:	2c 89       	ldd	r18, Y+20	; 0x14
     bd2:	3d 89       	ldd	r19, Y+21	; 0x15
     bd4:	4e 89       	ldd	r20, Y+22	; 0x16
     bd6:	5f 89       	ldd	r21, Y+23	; 0x17
     bd8:	8c 85       	ldd	r24, Y+12	; 0x0c
     bda:	9d 85       	ldd	r25, Y+13	; 0x0d
     bdc:	ae 85       	ldd	r26, Y+14	; 0x0e
     bde:	bf 85       	ldd	r27, Y+15	; 0x0f
     be0:	09 8d       	ldd	r16, Y+25	; 0x19
     be2:	bc 01       	movw	r22, r24
     be4:	cd 01       	movw	r24, r26
     be6:	0e 94 62 08 	call	0x10c4	; 0x10c4 <prvTestWaitCondition>
     bea:	88 8b       	std	Y+16, r24	; 0x10
     bec:	88 89       	ldd	r24, Y+16	; 0x10
     bee:	88 23       	and	r24, r24
     bf0:	59 f1       	breq	.+86     	; 0xc48 <xEventGroupWaitBits+0xd6>
     bf2:	8c 85       	ldd	r24, Y+12	; 0x0c
     bf4:	9d 85       	ldd	r25, Y+13	; 0x0d
     bf6:	ae 85       	ldd	r26, Y+14	; 0x0e
     bf8:	bf 85       	ldd	r27, Y+15	; 0x0f
     bfa:	89 83       	std	Y+1, r24	; 0x01
     bfc:	9a 83       	std	Y+2, r25	; 0x02
     bfe:	ab 83       	std	Y+3, r26	; 0x03
     c00:	bc 83       	std	Y+4, r27	; 0x04
     c02:	1a 8e       	std	Y+26, r1	; 0x1a
     c04:	1b 8e       	std	Y+27, r1	; 0x1b
     c06:	1c 8e       	std	Y+28, r1	; 0x1c
     c08:	1d 8e       	std	Y+29, r1	; 0x1d
     c0a:	88 8d       	ldd	r24, Y+24	; 0x18
     c0c:	88 23       	and	r24, r24
     c0e:	09 f4       	brne	.+2      	; 0xc12 <xEventGroupWaitBits+0xa0>
     c10:	65 c0       	rjmp	.+202    	; 0xcdc <xEventGroupWaitBits+0x16a>
     c12:	89 85       	ldd	r24, Y+9	; 0x09
     c14:	9a 85       	ldd	r25, Y+10	; 0x0a
     c16:	fc 01       	movw	r30, r24
     c18:	20 81       	ld	r18, Z
     c1a:	31 81       	ldd	r19, Z+1	; 0x01
     c1c:	42 81       	ldd	r20, Z+2	; 0x02
     c1e:	53 81       	ldd	r21, Z+3	; 0x03
     c20:	8c 89       	ldd	r24, Y+20	; 0x14
     c22:	9d 89       	ldd	r25, Y+21	; 0x15
     c24:	ae 89       	ldd	r26, Y+22	; 0x16
     c26:	bf 89       	ldd	r27, Y+23	; 0x17
     c28:	80 95       	com	r24
     c2a:	90 95       	com	r25
     c2c:	a0 95       	com	r26
     c2e:	b0 95       	com	r27
     c30:	82 23       	and	r24, r18
     c32:	93 23       	and	r25, r19
     c34:	a4 23       	and	r26, r20
     c36:	b5 23       	and	r27, r21
     c38:	29 85       	ldd	r18, Y+9	; 0x09
     c3a:	3a 85       	ldd	r19, Y+10	; 0x0a
     c3c:	f9 01       	movw	r30, r18
     c3e:	80 83       	st	Z, r24
     c40:	91 83       	std	Z+1, r25	; 0x01
     c42:	a2 83       	std	Z+2, r26	; 0x02
     c44:	b3 83       	std	Z+3, r27	; 0x03
     c46:	4a c0       	rjmp	.+148    	; 0xcdc <xEventGroupWaitBits+0x16a>
     c48:	8a 8d       	ldd	r24, Y+26	; 0x1a
     c4a:	9b 8d       	ldd	r25, Y+27	; 0x1b
     c4c:	ac 8d       	ldd	r26, Y+28	; 0x1c
     c4e:	bd 8d       	ldd	r27, Y+29	; 0x1d
     c50:	89 2b       	or	r24, r25
     c52:	8a 2b       	or	r24, r26
     c54:	8b 2b       	or	r24, r27
     c56:	59 f4       	brne	.+22     	; 0xc6e <xEventGroupWaitBits+0xfc>
     c58:	8c 85       	ldd	r24, Y+12	; 0x0c
     c5a:	9d 85       	ldd	r25, Y+13	; 0x0d
     c5c:	ae 85       	ldd	r26, Y+14	; 0x0e
     c5e:	bf 85       	ldd	r27, Y+15	; 0x0f
     c60:	89 83       	std	Y+1, r24	; 0x01
     c62:	9a 83       	std	Y+2, r25	; 0x02
     c64:	ab 83       	std	Y+3, r26	; 0x03
     c66:	bc 83       	std	Y+4, r27	; 0x04
     c68:	81 e0       	ldi	r24, 0x01	; 1
     c6a:	8b 87       	std	Y+11, r24	; 0x0b
     c6c:	37 c0       	rjmp	.+110    	; 0xcdc <xEventGroupWaitBits+0x16a>
     c6e:	88 8d       	ldd	r24, Y+24	; 0x18
     c70:	88 23       	and	r24, r24
     c72:	49 f0       	breq	.+18     	; 0xc86 <xEventGroupWaitBits+0x114>
     c74:	8d 81       	ldd	r24, Y+5	; 0x05
     c76:	9e 81       	ldd	r25, Y+6	; 0x06
     c78:	af 81       	ldd	r26, Y+7	; 0x07
     c7a:	b8 85       	ldd	r27, Y+8	; 0x08
     c7c:	b1 60       	ori	r27, 0x01	; 1
     c7e:	8d 83       	std	Y+5, r24	; 0x05
     c80:	9e 83       	std	Y+6, r25	; 0x06
     c82:	af 83       	std	Y+7, r26	; 0x07
     c84:	b8 87       	std	Y+8, r27	; 0x08
     c86:	89 8d       	ldd	r24, Y+25	; 0x19
     c88:	88 23       	and	r24, r24
     c8a:	49 f0       	breq	.+18     	; 0xc9e <xEventGroupWaitBits+0x12c>
     c8c:	8d 81       	ldd	r24, Y+5	; 0x05
     c8e:	9e 81       	ldd	r25, Y+6	; 0x06
     c90:	af 81       	ldd	r26, Y+7	; 0x07
     c92:	b8 85       	ldd	r27, Y+8	; 0x08
     c94:	b4 60       	ori	r27, 0x04	; 4
     c96:	8d 83       	std	Y+5, r24	; 0x05
     c98:	9e 83       	std	Y+6, r25	; 0x06
     c9a:	af 83       	std	Y+7, r26	; 0x07
     c9c:	b8 87       	std	Y+8, r27	; 0x08
     c9e:	2c 89       	ldd	r18, Y+20	; 0x14
     ca0:	3d 89       	ldd	r19, Y+21	; 0x15
     ca2:	4e 89       	ldd	r20, Y+22	; 0x16
     ca4:	5f 89       	ldd	r21, Y+23	; 0x17
     ca6:	8d 81       	ldd	r24, Y+5	; 0x05
     ca8:	9e 81       	ldd	r25, Y+6	; 0x06
     caa:	af 81       	ldd	r26, Y+7	; 0x07
     cac:	b8 85       	ldd	r27, Y+8	; 0x08
     cae:	82 2b       	or	r24, r18
     cb0:	93 2b       	or	r25, r19
     cb2:	a4 2b       	or	r26, r20
     cb4:	b5 2b       	or	r27, r21
     cb6:	29 85       	ldd	r18, Y+9	; 0x09
     cb8:	3a 85       	ldd	r19, Y+10	; 0x0a
     cba:	f9 01       	movw	r30, r18
     cbc:	34 96       	adiw	r30, 0x04	; 4
     cbe:	2a 8d       	ldd	r18, Y+26	; 0x1a
     cc0:	3b 8d       	ldd	r19, Y+27	; 0x1b
     cc2:	4c 8d       	ldd	r20, Y+28	; 0x1c
     cc4:	5d 8d       	ldd	r21, Y+29	; 0x1d
     cc6:	89 01       	movw	r16, r18
     cc8:	9a 01       	movw	r18, r20
     cca:	ac 01       	movw	r20, r24
     ccc:	bd 01       	movw	r22, r26
     cce:	cf 01       	movw	r24, r30
     cd0:	0e 94 fa 18 	call	0x31f4	; 0x31f4 <vTaskPlaceOnUnorderedEventList>
     cd4:	19 82       	std	Y+1, r1	; 0x01
     cd6:	1a 82       	std	Y+2, r1	; 0x02
     cd8:	1b 82       	std	Y+3, r1	; 0x03
     cda:	1c 82       	std	Y+4, r1	; 0x04
     cdc:	0e 94 34 16 	call	0x2c68	; 0x2c68 <xTaskResumeAll>
     ce0:	89 8b       	std	Y+17, r24	; 0x11
     ce2:	8a 8d       	ldd	r24, Y+26	; 0x1a
     ce4:	9b 8d       	ldd	r25, Y+27	; 0x1b
     ce6:	ac 8d       	ldd	r26, Y+28	; 0x1c
     ce8:	bd 8d       	ldd	r27, Y+29	; 0x1d
     cea:	89 2b       	or	r24, r25
     cec:	8a 2b       	or	r24, r26
     cee:	8b 2b       	or	r24, r27
     cf0:	09 f4       	brne	.+2      	; 0xcf4 <xEventGroupWaitBits+0x182>
     cf2:	65 c0       	rjmp	.+202    	; 0xdbe <xEventGroupWaitBits+0x24c>
     cf4:	89 89       	ldd	r24, Y+17	; 0x11
     cf6:	88 23       	and	r24, r24
     cf8:	11 f4       	brne	.+4      	; 0xcfe <xEventGroupWaitBits+0x18c>
     cfa:	0e 94 bc 0c 	call	0x1978	; 0x1978 <vPortYield>
     cfe:	0e 94 b8 1b 	call	0x3770	; 0x3770 <uxTaskResetEventItemValue>
     d02:	dc 01       	movw	r26, r24
     d04:	cb 01       	movw	r24, r22
     d06:	89 83       	std	Y+1, r24	; 0x01
     d08:	9a 83       	std	Y+2, r25	; 0x02
     d0a:	ab 83       	std	Y+3, r26	; 0x03
     d0c:	bc 83       	std	Y+4, r27	; 0x04
     d0e:	89 81       	ldd	r24, Y+1	; 0x01
     d10:	9a 81       	ldd	r25, Y+2	; 0x02
     d12:	ab 81       	ldd	r26, Y+3	; 0x03
     d14:	bc 81       	ldd	r27, Y+4	; 0x04
     d16:	88 27       	eor	r24, r24
     d18:	99 27       	eor	r25, r25
     d1a:	aa 27       	eor	r26, r26
     d1c:	b2 70       	andi	r27, 0x02	; 2
     d1e:	89 2b       	or	r24, r25
     d20:	8a 2b       	or	r24, r26
     d22:	8b 2b       	or	r24, r27
     d24:	09 f0       	breq	.+2      	; 0xd28 <xEventGroupWaitBits+0x1b6>
     d26:	42 c0       	rjmp	.+132    	; 0xdac <xEventGroupWaitBits+0x23a>
     d28:	f0 91 a2 00 	lds	r31, 0x00A2	; 0x8000a2 <__TEXT_REGION_LENGTH__+0x7000a2>
     d2c:	ff 93       	push	r31
     d2e:	f8 7f       	andi	r31, 0xF8	; 248
     d30:	f0 93 a2 00 	sts	0x00A2, r31	; 0x8000a2 <__TEXT_REGION_LENGTH__+0x7000a2>
     d34:	89 85       	ldd	r24, Y+9	; 0x09
     d36:	9a 85       	ldd	r25, Y+10	; 0x0a
     d38:	fc 01       	movw	r30, r24
     d3a:	80 81       	ld	r24, Z
     d3c:	91 81       	ldd	r25, Z+1	; 0x01
     d3e:	a2 81       	ldd	r26, Z+2	; 0x02
     d40:	b3 81       	ldd	r27, Z+3	; 0x03
     d42:	89 83       	std	Y+1, r24	; 0x01
     d44:	9a 83       	std	Y+2, r25	; 0x02
     d46:	ab 83       	std	Y+3, r26	; 0x03
     d48:	bc 83       	std	Y+4, r27	; 0x04
     d4a:	2c 89       	ldd	r18, Y+20	; 0x14
     d4c:	3d 89       	ldd	r19, Y+21	; 0x15
     d4e:	4e 89       	ldd	r20, Y+22	; 0x16
     d50:	5f 89       	ldd	r21, Y+23	; 0x17
     d52:	89 81       	ldd	r24, Y+1	; 0x01
     d54:	9a 81       	ldd	r25, Y+2	; 0x02
     d56:	ab 81       	ldd	r26, Y+3	; 0x03
     d58:	bc 81       	ldd	r27, Y+4	; 0x04
     d5a:	09 8d       	ldd	r16, Y+25	; 0x19
     d5c:	bc 01       	movw	r22, r24
     d5e:	cd 01       	movw	r24, r26
     d60:	0e 94 62 08 	call	0x10c4	; 0x10c4 <prvTestWaitCondition>
     d64:	88 23       	and	r24, r24
     d66:	e9 f0       	breq	.+58     	; 0xda2 <xEventGroupWaitBits+0x230>
     d68:	88 8d       	ldd	r24, Y+24	; 0x18
     d6a:	88 23       	and	r24, r24
     d6c:	d1 f0       	breq	.+52     	; 0xda2 <xEventGroupWaitBits+0x230>
     d6e:	89 85       	ldd	r24, Y+9	; 0x09
     d70:	9a 85       	ldd	r25, Y+10	; 0x0a
     d72:	fc 01       	movw	r30, r24
     d74:	20 81       	ld	r18, Z
     d76:	31 81       	ldd	r19, Z+1	; 0x01
     d78:	42 81       	ldd	r20, Z+2	; 0x02
     d7a:	53 81       	ldd	r21, Z+3	; 0x03
     d7c:	8c 89       	ldd	r24, Y+20	; 0x14
     d7e:	9d 89       	ldd	r25, Y+21	; 0x15
     d80:	ae 89       	ldd	r26, Y+22	; 0x16
     d82:	bf 89       	ldd	r27, Y+23	; 0x17
     d84:	80 95       	com	r24
     d86:	90 95       	com	r25
     d88:	a0 95       	com	r26
     d8a:	b0 95       	com	r27
     d8c:	82 23       	and	r24, r18
     d8e:	93 23       	and	r25, r19
     d90:	a4 23       	and	r26, r20
     d92:	b5 23       	and	r27, r21
     d94:	29 85       	ldd	r18, Y+9	; 0x09
     d96:	3a 85       	ldd	r19, Y+10	; 0x0a
     d98:	f9 01       	movw	r30, r18
     d9a:	80 83       	st	Z, r24
     d9c:	91 83       	std	Z+1, r25	; 0x01
     d9e:	a2 83       	std	Z+2, r26	; 0x02
     da0:	b3 83       	std	Z+3, r27	; 0x03
     da2:	81 e0       	ldi	r24, 0x01	; 1
     da4:	8b 87       	std	Y+11, r24	; 0x0b
     da6:	ff 91       	pop	r31
     da8:	f0 93 a2 00 	sts	0x00A2, r31	; 0x8000a2 <__TEXT_REGION_LENGTH__+0x7000a2>
     dac:	89 81       	ldd	r24, Y+1	; 0x01
     dae:	9a 81       	ldd	r25, Y+2	; 0x02
     db0:	ab 81       	ldd	r26, Y+3	; 0x03
     db2:	bc 81       	ldd	r27, Y+4	; 0x04
     db4:	bb 27       	eor	r27, r27
     db6:	89 83       	std	Y+1, r24	; 0x01
     db8:	9a 83       	std	Y+2, r25	; 0x02
     dba:	ab 83       	std	Y+3, r26	; 0x03
     dbc:	bc 83       	std	Y+4, r27	; 0x04
     dbe:	89 81       	ldd	r24, Y+1	; 0x01
     dc0:	9a 81       	ldd	r25, Y+2	; 0x02
     dc2:	ab 81       	ldd	r26, Y+3	; 0x03
     dc4:	bc 81       	ldd	r27, Y+4	; 0x04
     dc6:	bc 01       	movw	r22, r24
     dc8:	cd 01       	movw	r24, r26
     dca:	6d 96       	adiw	r28, 0x1d	; 29
     dcc:	cd bf       	out	0x3d, r28	; 61
     dce:	de bf       	out	0x3e, r29	; 62
     dd0:	df 91       	pop	r29
     dd2:	cf 91       	pop	r28
     dd4:	1f 91       	pop	r17
     dd6:	0f 91       	pop	r16
     dd8:	ff 90       	pop	r15
     dda:	ef 90       	pop	r14
     ddc:	df 90       	pop	r13
     dde:	cf 90       	pop	r12
     de0:	08 95       	ret

00000de2 <xEventGroupClearBits>:
     de2:	cf 93       	push	r28
     de4:	df 93       	push	r29
     de6:	cd b7       	in	r28, 0x3d	; 61
     de8:	de b7       	in	r29, 0x3e	; 62
     dea:	2c 97       	sbiw	r28, 0x0c	; 12
     dec:	cd bf       	out	0x3d, r28	; 61
     dee:	de bf       	out	0x3e, r29	; 62
     df0:	8f 83       	std	Y+7, r24	; 0x07
     df2:	98 87       	std	Y+8, r25	; 0x08
     df4:	49 87       	std	Y+9, r20	; 0x09
     df6:	5a 87       	std	Y+10, r21	; 0x0a
     df8:	6b 87       	std	Y+11, r22	; 0x0b
     dfa:	7c 87       	std	Y+12, r23	; 0x0c
     dfc:	8f 81       	ldd	r24, Y+7	; 0x07
     dfe:	98 85       	ldd	r25, Y+8	; 0x08
     e00:	89 83       	std	Y+1, r24	; 0x01
     e02:	9a 83       	std	Y+2, r25	; 0x02
     e04:	f0 91 a2 00 	lds	r31, 0x00A2	; 0x8000a2 <__TEXT_REGION_LENGTH__+0x7000a2>
     e08:	ff 93       	push	r31
     e0a:	f8 7f       	andi	r31, 0xF8	; 248
     e0c:	f0 93 a2 00 	sts	0x00A2, r31	; 0x8000a2 <__TEXT_REGION_LENGTH__+0x7000a2>
     e10:	89 81       	ldd	r24, Y+1	; 0x01
     e12:	9a 81       	ldd	r25, Y+2	; 0x02
     e14:	fc 01       	movw	r30, r24
     e16:	80 81       	ld	r24, Z
     e18:	91 81       	ldd	r25, Z+1	; 0x01
     e1a:	a2 81       	ldd	r26, Z+2	; 0x02
     e1c:	b3 81       	ldd	r27, Z+3	; 0x03
     e1e:	8b 83       	std	Y+3, r24	; 0x03
     e20:	9c 83       	std	Y+4, r25	; 0x04
     e22:	ad 83       	std	Y+5, r26	; 0x05
     e24:	be 83       	std	Y+6, r27	; 0x06
     e26:	89 81       	ldd	r24, Y+1	; 0x01
     e28:	9a 81       	ldd	r25, Y+2	; 0x02
     e2a:	fc 01       	movw	r30, r24
     e2c:	20 81       	ld	r18, Z
     e2e:	31 81       	ldd	r19, Z+1	; 0x01
     e30:	42 81       	ldd	r20, Z+2	; 0x02
     e32:	53 81       	ldd	r21, Z+3	; 0x03
     e34:	89 85       	ldd	r24, Y+9	; 0x09
     e36:	9a 85       	ldd	r25, Y+10	; 0x0a
     e38:	ab 85       	ldd	r26, Y+11	; 0x0b
     e3a:	bc 85       	ldd	r27, Y+12	; 0x0c
     e3c:	80 95       	com	r24
     e3e:	90 95       	com	r25
     e40:	a0 95       	com	r26
     e42:	b0 95       	com	r27
     e44:	82 23       	and	r24, r18
     e46:	93 23       	and	r25, r19
     e48:	a4 23       	and	r26, r20
     e4a:	b5 23       	and	r27, r21
     e4c:	29 81       	ldd	r18, Y+1	; 0x01
     e4e:	3a 81       	ldd	r19, Y+2	; 0x02
     e50:	f9 01       	movw	r30, r18
     e52:	80 83       	st	Z, r24
     e54:	91 83       	std	Z+1, r25	; 0x01
     e56:	a2 83       	std	Z+2, r26	; 0x02
     e58:	b3 83       	std	Z+3, r27	; 0x03
     e5a:	ff 91       	pop	r31
     e5c:	f0 93 a2 00 	sts	0x00A2, r31	; 0x8000a2 <__TEXT_REGION_LENGTH__+0x7000a2>
     e60:	8b 81       	ldd	r24, Y+3	; 0x03
     e62:	9c 81       	ldd	r25, Y+4	; 0x04
     e64:	ad 81       	ldd	r26, Y+5	; 0x05
     e66:	be 81       	ldd	r27, Y+6	; 0x06
     e68:	bc 01       	movw	r22, r24
     e6a:	cd 01       	movw	r24, r26
     e6c:	2c 96       	adiw	r28, 0x0c	; 12
     e6e:	cd bf       	out	0x3d, r28	; 61
     e70:	de bf       	out	0x3e, r29	; 62
     e72:	df 91       	pop	r29
     e74:	cf 91       	pop	r28
     e76:	08 95       	ret

00000e78 <xEventGroupSetBits>:
     e78:	cf 93       	push	r28
     e7a:	df 93       	push	r29
     e7c:	cd b7       	in	r28, 0x3d	; 61
     e7e:	de b7       	in	r29, 0x3e	; 62
     e80:	6d 97       	sbiw	r28, 0x1d	; 29
     e82:	cd bf       	out	0x3d, r28	; 61
     e84:	de bf       	out	0x3e, r29	; 62
     e86:	88 8f       	std	Y+24, r24	; 0x18
     e88:	99 8f       	std	Y+25, r25	; 0x19
     e8a:	4a 8f       	std	Y+26, r20	; 0x1a
     e8c:	5b 8f       	std	Y+27, r21	; 0x1b
     e8e:	6c 8f       	std	Y+28, r22	; 0x1c
     e90:	7d 8f       	std	Y+29, r23	; 0x1d
     e92:	1b 82       	std	Y+3, r1	; 0x03
     e94:	1c 82       	std	Y+4, r1	; 0x04
     e96:	1d 82       	std	Y+5, r1	; 0x05
     e98:	1e 82       	std	Y+6, r1	; 0x06
     e9a:	88 8d       	ldd	r24, Y+24	; 0x18
     e9c:	99 8d       	ldd	r25, Y+25	; 0x19
     e9e:	88 87       	std	Y+8, r24	; 0x08
     ea0:	99 87       	std	Y+9, r25	; 0x09
     ea2:	1f 82       	std	Y+7, r1	; 0x07
     ea4:	88 85       	ldd	r24, Y+8	; 0x08
     ea6:	99 85       	ldd	r25, Y+9	; 0x09
     ea8:	04 96       	adiw	r24, 0x04	; 4
     eaa:	8a 87       	std	Y+10, r24	; 0x0a
     eac:	9b 87       	std	Y+11, r25	; 0x0b
     eae:	8a 85       	ldd	r24, Y+10	; 0x0a
     eb0:	9b 85       	ldd	r25, Y+11	; 0x0b
     eb2:	03 96       	adiw	r24, 0x03	; 3
     eb4:	8c 87       	std	Y+12, r24	; 0x0c
     eb6:	9d 87       	std	Y+13, r25	; 0x0d
     eb8:	0e 94 27 16 	call	0x2c4e	; 0x2c4e <vTaskSuspendAll>
     ebc:	8a 85       	ldd	r24, Y+10	; 0x0a
     ebe:	9b 85       	ldd	r25, Y+11	; 0x0b
     ec0:	fc 01       	movw	r30, r24
     ec2:	87 81       	ldd	r24, Z+7	; 0x07
     ec4:	90 85       	ldd	r25, Z+8	; 0x08
     ec6:	89 83       	std	Y+1, r24	; 0x01
     ec8:	9a 83       	std	Y+2, r25	; 0x02
     eca:	88 85       	ldd	r24, Y+8	; 0x08
     ecc:	99 85       	ldd	r25, Y+9	; 0x09
     ece:	fc 01       	movw	r30, r24
     ed0:	20 81       	ld	r18, Z
     ed2:	31 81       	ldd	r19, Z+1	; 0x01
     ed4:	42 81       	ldd	r20, Z+2	; 0x02
     ed6:	53 81       	ldd	r21, Z+3	; 0x03
     ed8:	8a 8d       	ldd	r24, Y+26	; 0x1a
     eda:	9b 8d       	ldd	r25, Y+27	; 0x1b
     edc:	ac 8d       	ldd	r26, Y+28	; 0x1c
     ede:	bd 8d       	ldd	r27, Y+29	; 0x1d
     ee0:	82 2b       	or	r24, r18
     ee2:	93 2b       	or	r25, r19
     ee4:	a4 2b       	or	r26, r20
     ee6:	b5 2b       	or	r27, r21
     ee8:	28 85       	ldd	r18, Y+8	; 0x08
     eea:	39 85       	ldd	r19, Y+9	; 0x09
     eec:	f9 01       	movw	r30, r18
     eee:	80 83       	st	Z, r24
     ef0:	91 83       	std	Z+1, r25	; 0x01
     ef2:	a2 83       	std	Z+2, r26	; 0x02
     ef4:	b3 83       	std	Z+3, r27	; 0x03
     ef6:	95 c0       	rjmp	.+298    	; 0x1022 <xEventGroupSetBits+0x1aa>
     ef8:	89 81       	ldd	r24, Y+1	; 0x01
     efa:	9a 81       	ldd	r25, Y+2	; 0x02
     efc:	fc 01       	movw	r30, r24
     efe:	84 81       	ldd	r24, Z+4	; 0x04
     f00:	95 81       	ldd	r25, Z+5	; 0x05
     f02:	8e 87       	std	Y+14, r24	; 0x0e
     f04:	9f 87       	std	Y+15, r25	; 0x0f
     f06:	89 81       	ldd	r24, Y+1	; 0x01
     f08:	9a 81       	ldd	r25, Y+2	; 0x02
     f0a:	fc 01       	movw	r30, r24
     f0c:	80 81       	ld	r24, Z
     f0e:	91 81       	ldd	r25, Z+1	; 0x01
     f10:	a2 81       	ldd	r26, Z+2	; 0x02
     f12:	b3 81       	ldd	r27, Z+3	; 0x03
     f14:	88 8b       	std	Y+16, r24	; 0x10
     f16:	99 8b       	std	Y+17, r25	; 0x11
     f18:	aa 8b       	std	Y+18, r26	; 0x12
     f1a:	bb 8b       	std	Y+19, r27	; 0x13
     f1c:	1f 82       	std	Y+7, r1	; 0x07
     f1e:	88 89       	ldd	r24, Y+16	; 0x10
     f20:	99 89       	ldd	r25, Y+17	; 0x11
     f22:	aa 89       	ldd	r26, Y+18	; 0x12
     f24:	bb 89       	ldd	r27, Y+19	; 0x13
     f26:	88 27       	eor	r24, r24
     f28:	99 27       	eor	r25, r25
     f2a:	aa 27       	eor	r26, r26
     f2c:	8c 8b       	std	Y+20, r24	; 0x14
     f2e:	9d 8b       	std	Y+21, r25	; 0x15
     f30:	ae 8b       	std	Y+22, r26	; 0x16
     f32:	bf 8b       	std	Y+23, r27	; 0x17
     f34:	88 89       	ldd	r24, Y+16	; 0x10
     f36:	99 89       	ldd	r25, Y+17	; 0x11
     f38:	aa 89       	ldd	r26, Y+18	; 0x12
     f3a:	bb 89       	ldd	r27, Y+19	; 0x13
     f3c:	bb 27       	eor	r27, r27
     f3e:	88 8b       	std	Y+16, r24	; 0x10
     f40:	99 8b       	std	Y+17, r25	; 0x11
     f42:	aa 8b       	std	Y+18, r26	; 0x12
     f44:	bb 8b       	std	Y+19, r27	; 0x13
     f46:	8c 89       	ldd	r24, Y+20	; 0x14
     f48:	9d 89       	ldd	r25, Y+21	; 0x15
     f4a:	ae 89       	ldd	r26, Y+22	; 0x16
     f4c:	bf 89       	ldd	r27, Y+23	; 0x17
     f4e:	88 27       	eor	r24, r24
     f50:	99 27       	eor	r25, r25
     f52:	aa 27       	eor	r26, r26
     f54:	b4 70       	andi	r27, 0x04	; 4
     f56:	89 2b       	or	r24, r25
     f58:	8a 2b       	or	r24, r26
     f5a:	8b 2b       	or	r24, r27
     f5c:	b1 f4       	brne	.+44     	; 0xf8a <xEventGroupSetBits+0x112>
     f5e:	88 85       	ldd	r24, Y+8	; 0x08
     f60:	99 85       	ldd	r25, Y+9	; 0x09
     f62:	fc 01       	movw	r30, r24
     f64:	20 81       	ld	r18, Z
     f66:	31 81       	ldd	r19, Z+1	; 0x01
     f68:	42 81       	ldd	r20, Z+2	; 0x02
     f6a:	53 81       	ldd	r21, Z+3	; 0x03
     f6c:	88 89       	ldd	r24, Y+16	; 0x10
     f6e:	99 89       	ldd	r25, Y+17	; 0x11
     f70:	aa 89       	ldd	r26, Y+18	; 0x12
     f72:	bb 89       	ldd	r27, Y+19	; 0x13
     f74:	82 23       	and	r24, r18
     f76:	93 23       	and	r25, r19
     f78:	a4 23       	and	r26, r20
     f7a:	b5 23       	and	r27, r21
     f7c:	89 2b       	or	r24, r25
     f7e:	8a 2b       	or	r24, r26
     f80:	8b 2b       	or	r24, r27
     f82:	e9 f0       	breq	.+58     	; 0xfbe <xEventGroupSetBits+0x146>
     f84:	81 e0       	ldi	r24, 0x01	; 1
     f86:	8f 83       	std	Y+7, r24	; 0x07
     f88:	1a c0       	rjmp	.+52     	; 0xfbe <xEventGroupSetBits+0x146>
     f8a:	88 85       	ldd	r24, Y+8	; 0x08
     f8c:	99 85       	ldd	r25, Y+9	; 0x09
     f8e:	fc 01       	movw	r30, r24
     f90:	20 81       	ld	r18, Z
     f92:	31 81       	ldd	r19, Z+1	; 0x01
     f94:	42 81       	ldd	r20, Z+2	; 0x02
     f96:	53 81       	ldd	r21, Z+3	; 0x03
     f98:	88 89       	ldd	r24, Y+16	; 0x10
     f9a:	99 89       	ldd	r25, Y+17	; 0x11
     f9c:	aa 89       	ldd	r26, Y+18	; 0x12
     f9e:	bb 89       	ldd	r27, Y+19	; 0x13
     fa0:	28 23       	and	r18, r24
     fa2:	39 23       	and	r19, r25
     fa4:	4a 23       	and	r20, r26
     fa6:	5b 23       	and	r21, r27
     fa8:	88 89       	ldd	r24, Y+16	; 0x10
     faa:	99 89       	ldd	r25, Y+17	; 0x11
     fac:	aa 89       	ldd	r26, Y+18	; 0x12
     fae:	bb 89       	ldd	r27, Y+19	; 0x13
     fb0:	28 17       	cp	r18, r24
     fb2:	39 07       	cpc	r19, r25
     fb4:	4a 07       	cpc	r20, r26
     fb6:	5b 07       	cpc	r21, r27
     fb8:	11 f4       	brne	.+4      	; 0xfbe <xEventGroupSetBits+0x146>
     fba:	81 e0       	ldi	r24, 0x01	; 1
     fbc:	8f 83       	std	Y+7, r24	; 0x07
     fbe:	8f 81       	ldd	r24, Y+7	; 0x07
     fc0:	88 23       	and	r24, r24
     fc2:	59 f1       	breq	.+86     	; 0x101a <xEventGroupSetBits+0x1a2>
     fc4:	8c 89       	ldd	r24, Y+20	; 0x14
     fc6:	9d 89       	ldd	r25, Y+21	; 0x15
     fc8:	ae 89       	ldd	r26, Y+22	; 0x16
     fca:	bf 89       	ldd	r27, Y+23	; 0x17
     fcc:	88 27       	eor	r24, r24
     fce:	99 27       	eor	r25, r25
     fd0:	aa 27       	eor	r26, r26
     fd2:	b1 70       	andi	r27, 0x01	; 1
     fd4:	89 2b       	or	r24, r25
     fd6:	8a 2b       	or	r24, r26
     fd8:	8b 2b       	or	r24, r27
     fda:	81 f0       	breq	.+32     	; 0xffc <xEventGroupSetBits+0x184>
     fdc:	2b 81       	ldd	r18, Y+3	; 0x03
     fde:	3c 81       	ldd	r19, Y+4	; 0x04
     fe0:	4d 81       	ldd	r20, Y+5	; 0x05
     fe2:	5e 81       	ldd	r21, Y+6	; 0x06
     fe4:	88 89       	ldd	r24, Y+16	; 0x10
     fe6:	99 89       	ldd	r25, Y+17	; 0x11
     fe8:	aa 89       	ldd	r26, Y+18	; 0x12
     fea:	bb 89       	ldd	r27, Y+19	; 0x13
     fec:	82 2b       	or	r24, r18
     fee:	93 2b       	or	r25, r19
     ff0:	a4 2b       	or	r26, r20
     ff2:	b5 2b       	or	r27, r21
     ff4:	8b 83       	std	Y+3, r24	; 0x03
     ff6:	9c 83       	std	Y+4, r25	; 0x04
     ff8:	ad 83       	std	Y+5, r26	; 0x05
     ffa:	be 83       	std	Y+6, r27	; 0x06
     ffc:	88 85       	ldd	r24, Y+8	; 0x08
     ffe:	99 85       	ldd	r25, Y+9	; 0x09
    1000:	fc 01       	movw	r30, r24
    1002:	80 81       	ld	r24, Z
    1004:	91 81       	ldd	r25, Z+1	; 0x01
    1006:	a2 81       	ldd	r26, Z+2	; 0x02
    1008:	b3 81       	ldd	r27, Z+3	; 0x03
    100a:	b2 60       	ori	r27, 0x02	; 2
    100c:	29 81       	ldd	r18, Y+1	; 0x01
    100e:	3a 81       	ldd	r19, Y+2	; 0x02
    1010:	ac 01       	movw	r20, r24
    1012:	bd 01       	movw	r22, r26
    1014:	c9 01       	movw	r24, r18
    1016:	0e 94 d5 19 	call	0x33aa	; 0x33aa <vTaskRemoveFromUnorderedEventList>
    101a:	8e 85       	ldd	r24, Y+14	; 0x0e
    101c:	9f 85       	ldd	r25, Y+15	; 0x0f
    101e:	89 83       	std	Y+1, r24	; 0x01
    1020:	9a 83       	std	Y+2, r25	; 0x02
    1022:	29 81       	ldd	r18, Y+1	; 0x01
    1024:	3a 81       	ldd	r19, Y+2	; 0x02
    1026:	8c 85       	ldd	r24, Y+12	; 0x0c
    1028:	9d 85       	ldd	r25, Y+13	; 0x0d
    102a:	28 17       	cp	r18, r24
    102c:	39 07       	cpc	r19, r25
    102e:	09 f0       	breq	.+2      	; 0x1032 <xEventGroupSetBits+0x1ba>
    1030:	63 cf       	rjmp	.-314    	; 0xef8 <xEventGroupSetBits+0x80>
    1032:	88 85       	ldd	r24, Y+8	; 0x08
    1034:	99 85       	ldd	r25, Y+9	; 0x09
    1036:	fc 01       	movw	r30, r24
    1038:	20 81       	ld	r18, Z
    103a:	31 81       	ldd	r19, Z+1	; 0x01
    103c:	42 81       	ldd	r20, Z+2	; 0x02
    103e:	53 81       	ldd	r21, Z+3	; 0x03
    1040:	8b 81       	ldd	r24, Y+3	; 0x03
    1042:	9c 81       	ldd	r25, Y+4	; 0x04
    1044:	ad 81       	ldd	r26, Y+5	; 0x05
    1046:	be 81       	ldd	r27, Y+6	; 0x06
    1048:	80 95       	com	r24
    104a:	90 95       	com	r25
    104c:	a0 95       	com	r26
    104e:	b0 95       	com	r27
    1050:	82 23       	and	r24, r18
    1052:	93 23       	and	r25, r19
    1054:	a4 23       	and	r26, r20
    1056:	b5 23       	and	r27, r21
    1058:	28 85       	ldd	r18, Y+8	; 0x08
    105a:	39 85       	ldd	r19, Y+9	; 0x09
    105c:	f9 01       	movw	r30, r18
    105e:	80 83       	st	Z, r24
    1060:	91 83       	std	Z+1, r25	; 0x01
    1062:	a2 83       	std	Z+2, r26	; 0x02
    1064:	b3 83       	std	Z+3, r27	; 0x03
    1066:	0e 94 34 16 	call	0x2c68	; 0x2c68 <xTaskResumeAll>
    106a:	88 85       	ldd	r24, Y+8	; 0x08
    106c:	99 85       	ldd	r25, Y+9	; 0x09
    106e:	fc 01       	movw	r30, r24
    1070:	80 81       	ld	r24, Z
    1072:	91 81       	ldd	r25, Z+1	; 0x01
    1074:	a2 81       	ldd	r26, Z+2	; 0x02
    1076:	b3 81       	ldd	r27, Z+3	; 0x03
    1078:	bc 01       	movw	r22, r24
    107a:	cd 01       	movw	r24, r26
    107c:	6d 96       	adiw	r28, 0x1d	; 29
    107e:	cd bf       	out	0x3d, r28	; 61
    1080:	de bf       	out	0x3e, r29	; 62
    1082:	df 91       	pop	r29
    1084:	cf 91       	pop	r28
    1086:	08 95       	ret

00001088 <vEventGroupSetBitsCallback>:
    1088:	cf 93       	push	r28
    108a:	df 93       	push	r29
    108c:	00 d0       	rcall	.+0      	; 0x108e <vEventGroupSetBitsCallback+0x6>
    108e:	00 d0       	rcall	.+0      	; 0x1090 <vEventGroupSetBitsCallback+0x8>
    1090:	cd b7       	in	r28, 0x3d	; 61
    1092:	de b7       	in	r29, 0x3e	; 62
    1094:	89 83       	std	Y+1, r24	; 0x01
    1096:	9a 83       	std	Y+2, r25	; 0x02
    1098:	4b 83       	std	Y+3, r20	; 0x03
    109a:	5c 83       	std	Y+4, r21	; 0x04
    109c:	6d 83       	std	Y+5, r22	; 0x05
    109e:	7e 83       	std	Y+6, r23	; 0x06
    10a0:	8b 81       	ldd	r24, Y+3	; 0x03
    10a2:	9c 81       	ldd	r25, Y+4	; 0x04
    10a4:	ad 81       	ldd	r26, Y+5	; 0x05
    10a6:	be 81       	ldd	r27, Y+6	; 0x06
    10a8:	29 81       	ldd	r18, Y+1	; 0x01
    10aa:	3a 81       	ldd	r19, Y+2	; 0x02
    10ac:	ac 01       	movw	r20, r24
    10ae:	bd 01       	movw	r22, r26
    10b0:	c9 01       	movw	r24, r18
    10b2:	0e 94 3c 07 	call	0xe78	; 0xe78 <xEventGroupSetBits>
    10b6:	00 00       	nop
    10b8:	26 96       	adiw	r28, 0x06	; 6
    10ba:	cd bf       	out	0x3d, r28	; 61
    10bc:	de bf       	out	0x3e, r29	; 62
    10be:	df 91       	pop	r29
    10c0:	cf 91       	pop	r28
    10c2:	08 95       	ret

000010c4 <prvTestWaitCondition>:
/*-----------------------------------------------------------*/

static BaseType_t prvTestWaitCondition( const EventBits_t uxCurrentEventBits, const EventBits_t uxBitsToWaitFor, const BaseType_t xWaitForAllBits )
{
    10c4:	0f 93       	push	r16
    10c6:	cf 93       	push	r28
    10c8:	df 93       	push	r29
    10ca:	cd b7       	in	r28, 0x3d	; 61
    10cc:	de b7       	in	r29, 0x3e	; 62
    10ce:	2a 97       	sbiw	r28, 0x0a	; 10
    10d0:	cd bf       	out	0x3d, r28	; 61
    10d2:	de bf       	out	0x3e, r29	; 62
    10d4:	6a 83       	std	Y+2, r22	; 0x02
    10d6:	7b 83       	std	Y+3, r23	; 0x03
    10d8:	8c 83       	std	Y+4, r24	; 0x04
    10da:	9d 83       	std	Y+5, r25	; 0x05
    10dc:	2e 83       	std	Y+6, r18	; 0x06
    10de:	3f 83       	std	Y+7, r19	; 0x07
    10e0:	48 87       	std	Y+8, r20	; 0x08
    10e2:	59 87       	std	Y+9, r21	; 0x09
    10e4:	0a 87       	std	Y+10, r16	; 0x0a
BaseType_t xWaitConditionMet = pdFALSE;
    10e6:	19 82       	std	Y+1, r1	; 0x01

	if( xWaitForAllBits == pdFALSE )
    10e8:	8a 85       	ldd	r24, Y+10	; 0x0a
    10ea:	88 23       	and	r24, r24
    10ec:	99 f4       	brne	.+38     	; 0x1114 <prvTestWaitCondition+0x50>
	{
		/* Task only has to wait for one bit within uxBitsToWaitFor to be
		set.  Is one already set? */
		if( ( uxCurrentEventBits & uxBitsToWaitFor ) != ( EventBits_t ) 0 )
    10ee:	2a 81       	ldd	r18, Y+2	; 0x02
    10f0:	3b 81       	ldd	r19, Y+3	; 0x03
    10f2:	4c 81       	ldd	r20, Y+4	; 0x04
    10f4:	5d 81       	ldd	r21, Y+5	; 0x05
    10f6:	8e 81       	ldd	r24, Y+6	; 0x06
    10f8:	9f 81       	ldd	r25, Y+7	; 0x07
    10fa:	a8 85       	ldd	r26, Y+8	; 0x08
    10fc:	b9 85       	ldd	r27, Y+9	; 0x09
    10fe:	82 23       	and	r24, r18
    1100:	93 23       	and	r25, r19
    1102:	a4 23       	and	r26, r20
    1104:	b5 23       	and	r27, r21
    1106:	89 2b       	or	r24, r25
    1108:	8a 2b       	or	r24, r26
    110a:	8b 2b       	or	r24, r27
    110c:	d1 f0       	breq	.+52     	; 0x1142 <prvTestWaitCondition+0x7e>
		{
			xWaitConditionMet = pdTRUE;
    110e:	81 e0       	ldi	r24, 0x01	; 1
    1110:	89 83       	std	Y+1, r24	; 0x01
    1112:	17 c0       	rjmp	.+46     	; 0x1142 <prvTestWaitCondition+0x7e>
	}
	else
	{
		/* Task has to wait for all the bits in uxBitsToWaitFor to be set.
		Are they set already? */
		if( ( uxCurrentEventBits & uxBitsToWaitFor ) == uxBitsToWaitFor )
    1114:	2a 81       	ldd	r18, Y+2	; 0x02
    1116:	3b 81       	ldd	r19, Y+3	; 0x03
    1118:	4c 81       	ldd	r20, Y+4	; 0x04
    111a:	5d 81       	ldd	r21, Y+5	; 0x05
    111c:	8e 81       	ldd	r24, Y+6	; 0x06
    111e:	9f 81       	ldd	r25, Y+7	; 0x07
    1120:	a8 85       	ldd	r26, Y+8	; 0x08
    1122:	b9 85       	ldd	r27, Y+9	; 0x09
    1124:	28 23       	and	r18, r24
    1126:	39 23       	and	r19, r25
    1128:	4a 23       	and	r20, r26
    112a:	5b 23       	and	r21, r27
    112c:	8e 81       	ldd	r24, Y+6	; 0x06
    112e:	9f 81       	ldd	r25, Y+7	; 0x07
    1130:	a8 85       	ldd	r26, Y+8	; 0x08
    1132:	b9 85       	ldd	r27, Y+9	; 0x09
    1134:	28 17       	cp	r18, r24
    1136:	39 07       	cpc	r19, r25
    1138:	4a 07       	cpc	r20, r26
    113a:	5b 07       	cpc	r21, r27
    113c:	11 f4       	brne	.+4      	; 0x1142 <prvTestWaitCondition+0x7e>
		{
			xWaitConditionMet = pdTRUE;
    113e:	81 e0       	ldi	r24, 0x01	; 1
    1140:	89 83       	std	Y+1, r24	; 0x01
		{
			mtCOVERAGE_TEST_MARKER();
		}
	}

	return xWaitConditionMet;
    1142:	89 81       	ldd	r24, Y+1	; 0x01
}
    1144:	2a 96       	adiw	r28, 0x0a	; 10
    1146:	cd bf       	out	0x3d, r28	; 61
    1148:	de bf       	out	0x3e, r29	; 62
    114a:	df 91       	pop	r29
    114c:	cf 91       	pop	r28
    114e:	0f 91       	pop	r16
    1150:	08 95       	ret

00001152 <xEventGroupSetBitsFromISR>:
/*-----------------------------------------------------------*/

#if ( ( configUSE_TRACE_FACILITY == 1 ) && ( INCLUDE_xTimerPendFunctionCall == 1 ) && ( configUSE_TIMERS == 1 ) )

	BaseType_t xEventGroupSetBitsFromISR( EventGroupHandle_t xEventGroup, const EventBits_t uxBitsToSet, BaseType_t *pxHigherPriorityTaskWoken )
	{
    1152:	0f 93       	push	r16
    1154:	1f 93       	push	r17
    1156:	cf 93       	push	r28
    1158:	df 93       	push	r29
    115a:	cd b7       	in	r28, 0x3d	; 61
    115c:	de b7       	in	r29, 0x3e	; 62
    115e:	29 97       	sbiw	r28, 0x09	; 9
    1160:	cd bf       	out	0x3d, r28	; 61
    1162:	de bf       	out	0x3e, r29	; 62
    1164:	8a 83       	std	Y+2, r24	; 0x02
    1166:	9b 83       	std	Y+3, r25	; 0x03
    1168:	4c 83       	std	Y+4, r20	; 0x04
    116a:	5d 83       	std	Y+5, r21	; 0x05
    116c:	6e 83       	std	Y+6, r22	; 0x06
    116e:	7f 83       	std	Y+7, r23	; 0x07
    1170:	28 87       	std	Y+8, r18	; 0x08
    1172:	39 87       	std	Y+9, r19	; 0x09
	BaseType_t xReturn;

		traceEVENT_GROUP_SET_BITS_FROM_ISR( xEventGroup, uxBitsToSet );
		xReturn = xTimerPendFunctionCallFromISR( vEventGroupSetBitsCallback, ( void * ) xEventGroup, ( uint32_t ) uxBitsToSet, pxHigherPriorityTaskWoken );
    1174:	28 85       	ldd	r18, Y+8	; 0x08
    1176:	39 85       	ldd	r19, Y+9	; 0x09
    1178:	8c 81       	ldd	r24, Y+4	; 0x04
    117a:	9d 81       	ldd	r25, Y+5	; 0x05
    117c:	ae 81       	ldd	r26, Y+6	; 0x06
    117e:	bf 81       	ldd	r27, Y+7	; 0x07
    1180:	6a 81       	ldd	r22, Y+2	; 0x02
    1182:	7b 81       	ldd	r23, Y+3	; 0x03
    1184:	89 01       	movw	r16, r18
    1186:	9c 01       	movw	r18, r24
    1188:	ad 01       	movw	r20, r26
    118a:	84 e4       	ldi	r24, 0x44	; 68
    118c:	98 e0       	ldi	r25, 0x08	; 8
    118e:	0e 94 64 21 	call	0x42c8	; 0x42c8 <xTimerPendFunctionCallFromISR>
    1192:	89 83       	std	Y+1, r24	; 0x01

		return xReturn;
    1194:	89 81       	ldd	r24, Y+1	; 0x01
	}
    1196:	29 96       	adiw	r28, 0x09	; 9
    1198:	cd bf       	out	0x3d, r28	; 61
    119a:	de bf       	out	0x3e, r29	; 62
    119c:	df 91       	pop	r29
    119e:	cf 91       	pop	r28
    11a0:	1f 91       	pop	r17
    11a2:	0f 91       	pop	r16
    11a4:	08 95       	ret

000011a6 <pvPortMalloc>:

static size_t xNextFreeByte = ( size_t ) 0;
/*-----------------------------------------------------------*/

void *pvPortMalloc( size_t xWantedSize )
{
    11a6:	cf 93       	push	r28
    11a8:	df 93       	push	r29
    11aa:	00 d0       	rcall	.+0      	; 0x11ac <pvPortMalloc+0x6>
    11ac:	1f 92       	push	r1
    11ae:	cd b7       	in	r28, 0x3d	; 61
    11b0:	de b7       	in	r29, 0x3e	; 62
    11b2:	8b 83       	std	Y+3, r24	; 0x03
    11b4:	9c 83       	std	Y+4, r25	; 0x04
void *pvReturn = NULL; 
    11b6:	19 82       	std	Y+1, r1	; 0x01
    11b8:	1a 82       	std	Y+2, r1	; 0x02
			/* Byte alignment required. */
			xWantedSize += ( portBYTE_ALIGNMENT - ( xWantedSize & portBYTE_ALIGNMENT_MASK ) );
		}
	#endif

	vTaskSuspendAll();
    11ba:	0e 94 27 16 	call	0x2c4e	; 0x2c4e <vTaskSuspendAll>
	{
		/* Check there is enough room left for the allocation. */
		if( ( ( xNextFreeByte + xWantedSize ) < configTOTAL_HEAP_SIZE ) &&
    11be:	20 91 4e 2c 	lds	r18, 0x2C4E	; 0x802c4e <xNextFreeByte>
    11c2:	30 91 4f 2c 	lds	r19, 0x2C4F	; 0x802c4f <xNextFreeByte+0x1>
    11c6:	8b 81       	ldd	r24, Y+3	; 0x03
    11c8:	9c 81       	ldd	r25, Y+4	; 0x04
    11ca:	82 0f       	add	r24, r18
    11cc:	93 1f       	adc	r25, r19
    11ce:	88 3b       	cpi	r24, 0xB8	; 184
    11d0:	9b 40       	sbci	r25, 0x0B	; 11
    11d2:	18 f5       	brcc	.+70     	; 0x121a <pvPortMalloc+0x74>
			( ( xNextFreeByte + xWantedSize ) > xNextFreeByte )	)/* Check for overflow. */
    11d4:	20 91 4e 2c 	lds	r18, 0x2C4E	; 0x802c4e <xNextFreeByte>
    11d8:	30 91 4f 2c 	lds	r19, 0x2C4F	; 0x802c4f <xNextFreeByte+0x1>
    11dc:	8b 81       	ldd	r24, Y+3	; 0x03
    11de:	9c 81       	ldd	r25, Y+4	; 0x04
    11e0:	28 0f       	add	r18, r24
    11e2:	39 1f       	adc	r19, r25
    11e4:	80 91 4e 2c 	lds	r24, 0x2C4E	; 0x802c4e <xNextFreeByte>
    11e8:	90 91 4f 2c 	lds	r25, 0x2C4F	; 0x802c4f <xNextFreeByte+0x1>
	#endif

	vTaskSuspendAll();
	{
		/* Check there is enough room left for the allocation. */
		if( ( ( xNextFreeByte + xWantedSize ) < configTOTAL_HEAP_SIZE ) &&
    11ec:	82 17       	cp	r24, r18
    11ee:	93 07       	cpc	r25, r19
    11f0:	a0 f4       	brcc	.+40     	; 0x121a <pvPortMalloc+0x74>
			( ( xNextFreeByte + xWantedSize ) > xNextFreeByte )	)/* Check for overflow. */
		{
			/* Return the next free byte then increment the index past this
			block. */
			pvReturn = &( xHeap.ucHeap[ xNextFreeByte ] );
    11f2:	80 91 4e 2c 	lds	r24, 0x2C4E	; 0x802c4e <xNextFreeByte>
    11f6:	90 91 4f 2c 	lds	r25, 0x2C4F	; 0x802c4f <xNextFreeByte+0x1>
    11fa:	8a 56       	subi	r24, 0x6A	; 106
    11fc:	9f 4d       	sbci	r25, 0xDF	; 223
    11fe:	89 83       	std	Y+1, r24	; 0x01
    1200:	9a 83       	std	Y+2, r25	; 0x02
			xNextFreeByte += xWantedSize;			
    1202:	20 91 4e 2c 	lds	r18, 0x2C4E	; 0x802c4e <xNextFreeByte>
    1206:	30 91 4f 2c 	lds	r19, 0x2C4F	; 0x802c4f <xNextFreeByte+0x1>
    120a:	8b 81       	ldd	r24, Y+3	; 0x03
    120c:	9c 81       	ldd	r25, Y+4	; 0x04
    120e:	82 0f       	add	r24, r18
    1210:	93 1f       	adc	r25, r19
    1212:	80 93 4e 2c 	sts	0x2C4E, r24	; 0x802c4e <xNextFreeByte>
    1216:	90 93 4f 2c 	sts	0x2C4F, r25	; 0x802c4f <xNextFreeByte+0x1>
		}	
	}
	xTaskResumeAll();
    121a:	0e 94 34 16 	call	0x2c68	; 0x2c68 <xTaskResumeAll>
			vApplicationMallocFailedHook();
		}
	}
	#endif	

	return pvReturn;
    121e:	89 81       	ldd	r24, Y+1	; 0x01
    1220:	9a 81       	ldd	r25, Y+2	; 0x02
}
    1222:	24 96       	adiw	r28, 0x04	; 4
    1224:	cd bf       	out	0x3d, r28	; 61
    1226:	de bf       	out	0x3e, r29	; 62
    1228:	df 91       	pop	r29
    122a:	cf 91       	pop	r28
    122c:	08 95       	ret

0000122e <vPortFree>:
/*-----------------------------------------------------------*/

void vPortFree( void *pv )
{
    122e:	cf 93       	push	r28
    1230:	df 93       	push	r29
    1232:	1f 92       	push	r1
    1234:	1f 92       	push	r1
    1236:	cd b7       	in	r28, 0x3d	; 61
    1238:	de b7       	in	r29, 0x3e	; 62
    123a:	89 83       	std	Y+1, r24	; 0x01
    123c:	9a 83       	std	Y+2, r25	; 0x02
	http://www.FreeRTOS.org for more information. */
	( void ) pv;
	
	/* Force an assert as it is invalid to call this function. */
	configASSERT( pv == NULL );
}
    123e:	00 00       	nop
    1240:	0f 90       	pop	r0
    1242:	0f 90       	pop	r0
    1244:	df 91       	pop	r29
    1246:	cf 91       	pop	r28
    1248:	08 95       	ret

0000124a <vListInitialise>:
/*-----------------------------------------------------------
 * PUBLIC LIST API documented in list.h
 *----------------------------------------------------------*/

void vListInitialise( List_t * const pxList )
{
    124a:	cf 93       	push	r28
    124c:	df 93       	push	r29
    124e:	1f 92       	push	r1
    1250:	1f 92       	push	r1
    1252:	cd b7       	in	r28, 0x3d	; 61
    1254:	de b7       	in	r29, 0x3e	; 62
    1256:	89 83       	std	Y+1, r24	; 0x01
    1258:	9a 83       	std	Y+2, r25	; 0x02
	/* The list structure contains a list item which is used to mark the
	end of the list.  To initialise the list the list end is inserted
	as the only list entry. */
	pxList->pxIndex = ( ListItem_t * ) &( pxList->xListEnd );			/*lint !e826 !e740 The mini list structure is used as the list end to save RAM.  This is checked and valid. */
    125a:	89 81       	ldd	r24, Y+1	; 0x01
    125c:	9a 81       	ldd	r25, Y+2	; 0x02
    125e:	9c 01       	movw	r18, r24
    1260:	2d 5f       	subi	r18, 0xFD	; 253
    1262:	3f 4f       	sbci	r19, 0xFF	; 255
    1264:	89 81       	ldd	r24, Y+1	; 0x01
    1266:	9a 81       	ldd	r25, Y+2	; 0x02
    1268:	fc 01       	movw	r30, r24
    126a:	21 83       	std	Z+1, r18	; 0x01
    126c:	32 83       	std	Z+2, r19	; 0x02

	/* The list end value is the highest possible value in the list to
	ensure it remains at the end of the list. */
	pxList->xListEnd.xItemValue = portMAX_DELAY;
    126e:	29 81       	ldd	r18, Y+1	; 0x01
    1270:	3a 81       	ldd	r19, Y+2	; 0x02
    1272:	8f ef       	ldi	r24, 0xFF	; 255
    1274:	9f ef       	ldi	r25, 0xFF	; 255
    1276:	dc 01       	movw	r26, r24
    1278:	f9 01       	movw	r30, r18
    127a:	83 83       	std	Z+3, r24	; 0x03
    127c:	94 83       	std	Z+4, r25	; 0x04
    127e:	a5 83       	std	Z+5, r26	; 0x05
    1280:	b6 83       	std	Z+6, r27	; 0x06

	/* The list end next and previous pointers point to itself so we know
	when the list is empty. */
	pxList->xListEnd.pxNext = ( ListItem_t * ) &( pxList->xListEnd );	/*lint !e826 !e740 The mini list structure is used as the list end to save RAM.  This is checked and valid. */
    1282:	89 81       	ldd	r24, Y+1	; 0x01
    1284:	9a 81       	ldd	r25, Y+2	; 0x02
    1286:	9c 01       	movw	r18, r24
    1288:	2d 5f       	subi	r18, 0xFD	; 253
    128a:	3f 4f       	sbci	r19, 0xFF	; 255
    128c:	89 81       	ldd	r24, Y+1	; 0x01
    128e:	9a 81       	ldd	r25, Y+2	; 0x02
    1290:	fc 01       	movw	r30, r24
    1292:	27 83       	std	Z+7, r18	; 0x07
    1294:	30 87       	std	Z+8, r19	; 0x08
	pxList->xListEnd.pxPrevious = ( ListItem_t * ) &( pxList->xListEnd );/*lint !e826 !e740 The mini list structure is used as the list end to save RAM.  This is checked and valid. */
    1296:	89 81       	ldd	r24, Y+1	; 0x01
    1298:	9a 81       	ldd	r25, Y+2	; 0x02
    129a:	9c 01       	movw	r18, r24
    129c:	2d 5f       	subi	r18, 0xFD	; 253
    129e:	3f 4f       	sbci	r19, 0xFF	; 255
    12a0:	89 81       	ldd	r24, Y+1	; 0x01
    12a2:	9a 81       	ldd	r25, Y+2	; 0x02
    12a4:	fc 01       	movw	r30, r24
    12a6:	21 87       	std	Z+9, r18	; 0x09
    12a8:	32 87       	std	Z+10, r19	; 0x0a

	pxList->uxNumberOfItems = ( UBaseType_t ) 0U;
    12aa:	89 81       	ldd	r24, Y+1	; 0x01
    12ac:	9a 81       	ldd	r25, Y+2	; 0x02
    12ae:	fc 01       	movw	r30, r24
    12b0:	10 82       	st	Z, r1

	/* Write known values into the list if
	configUSE_LIST_DATA_INTEGRITY_CHECK_BYTES is set to 1. */
	listSET_LIST_INTEGRITY_CHECK_1_VALUE( pxList );
	listSET_LIST_INTEGRITY_CHECK_2_VALUE( pxList );
}
    12b2:	00 00       	nop
    12b4:	0f 90       	pop	r0
    12b6:	0f 90       	pop	r0
    12b8:	df 91       	pop	r29
    12ba:	cf 91       	pop	r28
    12bc:	08 95       	ret

000012be <vListInitialiseItem>:
/*-----------------------------------------------------------*/

void vListInitialiseItem( ListItem_t * const pxItem )
{
    12be:	cf 93       	push	r28
    12c0:	df 93       	push	r29
    12c2:	1f 92       	push	r1
    12c4:	1f 92       	push	r1
    12c6:	cd b7       	in	r28, 0x3d	; 61
    12c8:	de b7       	in	r29, 0x3e	; 62
    12ca:	89 83       	std	Y+1, r24	; 0x01
    12cc:	9a 83       	std	Y+2, r25	; 0x02
	/* Make sure the list item is not recorded as being on a list. */
	pxItem->pvContainer = NULL;
    12ce:	89 81       	ldd	r24, Y+1	; 0x01
    12d0:	9a 81       	ldd	r25, Y+2	; 0x02
    12d2:	fc 01       	movw	r30, r24
    12d4:	12 86       	std	Z+10, r1	; 0x0a
    12d6:	13 86       	std	Z+11, r1	; 0x0b

	/* Write known values into the list item if
	configUSE_LIST_DATA_INTEGRITY_CHECK_BYTES is set to 1. */
	listSET_FIRST_LIST_ITEM_INTEGRITY_CHECK_VALUE( pxItem );
	listSET_SECOND_LIST_ITEM_INTEGRITY_CHECK_VALUE( pxItem );
}
    12d8:	00 00       	nop
    12da:	0f 90       	pop	r0
    12dc:	0f 90       	pop	r0
    12de:	df 91       	pop	r29
    12e0:	cf 91       	pop	r28
    12e2:	08 95       	ret

000012e4 <vListInsertEnd>:
/*-----------------------------------------------------------*/

void vListInsertEnd( List_t * const pxList, ListItem_t * const pxNewListItem )
{
    12e4:	cf 93       	push	r28
    12e6:	df 93       	push	r29
    12e8:	00 d0       	rcall	.+0      	; 0x12ea <vListInsertEnd+0x6>
    12ea:	00 d0       	rcall	.+0      	; 0x12ec <vListInsertEnd+0x8>
    12ec:	cd b7       	in	r28, 0x3d	; 61
    12ee:	de b7       	in	r29, 0x3e	; 62
    12f0:	8b 83       	std	Y+3, r24	; 0x03
    12f2:	9c 83       	std	Y+4, r25	; 0x04
    12f4:	6d 83       	std	Y+5, r22	; 0x05
    12f6:	7e 83       	std	Y+6, r23	; 0x06
ListItem_t * const pxIndex = pxList->pxIndex;
    12f8:	8b 81       	ldd	r24, Y+3	; 0x03
    12fa:	9c 81       	ldd	r25, Y+4	; 0x04
    12fc:	fc 01       	movw	r30, r24
    12fe:	81 81       	ldd	r24, Z+1	; 0x01
    1300:	92 81       	ldd	r25, Z+2	; 0x02
    1302:	89 83       	std	Y+1, r24	; 0x01
    1304:	9a 83       	std	Y+2, r25	; 0x02
	listTEST_LIST_ITEM_INTEGRITY( pxNewListItem );

	/* Insert a new list item into pxList, but rather than sort the list,
	makes the new list item the last item to be removed by a call to
	listGET_OWNER_OF_NEXT_ENTRY(). */
	pxNewListItem->pxNext = pxIndex;
    1306:	8d 81       	ldd	r24, Y+5	; 0x05
    1308:	9e 81       	ldd	r25, Y+6	; 0x06
    130a:	29 81       	ldd	r18, Y+1	; 0x01
    130c:	3a 81       	ldd	r19, Y+2	; 0x02
    130e:	fc 01       	movw	r30, r24
    1310:	24 83       	std	Z+4, r18	; 0x04
    1312:	35 83       	std	Z+5, r19	; 0x05
	pxNewListItem->pxPrevious = pxIndex->pxPrevious;
    1314:	89 81       	ldd	r24, Y+1	; 0x01
    1316:	9a 81       	ldd	r25, Y+2	; 0x02
    1318:	fc 01       	movw	r30, r24
    131a:	26 81       	ldd	r18, Z+6	; 0x06
    131c:	37 81       	ldd	r19, Z+7	; 0x07
    131e:	8d 81       	ldd	r24, Y+5	; 0x05
    1320:	9e 81       	ldd	r25, Y+6	; 0x06
    1322:	fc 01       	movw	r30, r24
    1324:	26 83       	std	Z+6, r18	; 0x06
    1326:	37 83       	std	Z+7, r19	; 0x07

	/* Only used during decision coverage testing. */
	mtCOVERAGE_TEST_DELAY();

	pxIndex->pxPrevious->pxNext = pxNewListItem;
    1328:	89 81       	ldd	r24, Y+1	; 0x01
    132a:	9a 81       	ldd	r25, Y+2	; 0x02
    132c:	fc 01       	movw	r30, r24
    132e:	86 81       	ldd	r24, Z+6	; 0x06
    1330:	97 81       	ldd	r25, Z+7	; 0x07
    1332:	2d 81       	ldd	r18, Y+5	; 0x05
    1334:	3e 81       	ldd	r19, Y+6	; 0x06
    1336:	fc 01       	movw	r30, r24
    1338:	24 83       	std	Z+4, r18	; 0x04
    133a:	35 83       	std	Z+5, r19	; 0x05
	pxIndex->pxPrevious = pxNewListItem;
    133c:	89 81       	ldd	r24, Y+1	; 0x01
    133e:	9a 81       	ldd	r25, Y+2	; 0x02
    1340:	2d 81       	ldd	r18, Y+5	; 0x05
    1342:	3e 81       	ldd	r19, Y+6	; 0x06
    1344:	fc 01       	movw	r30, r24
    1346:	26 83       	std	Z+6, r18	; 0x06
    1348:	37 83       	std	Z+7, r19	; 0x07

	/* Remember which list the item is in. */
	pxNewListItem->pvContainer = ( void * ) pxList;
    134a:	8d 81       	ldd	r24, Y+5	; 0x05
    134c:	9e 81       	ldd	r25, Y+6	; 0x06
    134e:	2b 81       	ldd	r18, Y+3	; 0x03
    1350:	3c 81       	ldd	r19, Y+4	; 0x04
    1352:	fc 01       	movw	r30, r24
    1354:	22 87       	std	Z+10, r18	; 0x0a
    1356:	33 87       	std	Z+11, r19	; 0x0b

	( pxList->uxNumberOfItems )++;
    1358:	8b 81       	ldd	r24, Y+3	; 0x03
    135a:	9c 81       	ldd	r25, Y+4	; 0x04
    135c:	fc 01       	movw	r30, r24
    135e:	80 81       	ld	r24, Z
    1360:	21 e0       	ldi	r18, 0x01	; 1
    1362:	28 0f       	add	r18, r24
    1364:	8b 81       	ldd	r24, Y+3	; 0x03
    1366:	9c 81       	ldd	r25, Y+4	; 0x04
    1368:	fc 01       	movw	r30, r24
    136a:	20 83       	st	Z, r18
}
    136c:	00 00       	nop
    136e:	26 96       	adiw	r28, 0x06	; 6
    1370:	cd bf       	out	0x3d, r28	; 61
    1372:	de bf       	out	0x3e, r29	; 62
    1374:	df 91       	pop	r29
    1376:	cf 91       	pop	r28
    1378:	08 95       	ret

0000137a <vListInsert>:
/*-----------------------------------------------------------*/

void vListInsert( List_t * const pxList, ListItem_t * const pxNewListItem )
{
    137a:	cf 93       	push	r28
    137c:	df 93       	push	r29
    137e:	cd b7       	in	r28, 0x3d	; 61
    1380:	de b7       	in	r29, 0x3e	; 62
    1382:	2a 97       	sbiw	r28, 0x0a	; 10
    1384:	cd bf       	out	0x3d, r28	; 61
    1386:	de bf       	out	0x3e, r29	; 62
    1388:	8f 83       	std	Y+7, r24	; 0x07
    138a:	98 87       	std	Y+8, r25	; 0x08
    138c:	69 87       	std	Y+9, r22	; 0x09
    138e:	7a 87       	std	Y+10, r23	; 0x0a
ListItem_t *pxIterator;
const TickType_t xValueOfInsertion = pxNewListItem->xItemValue;
    1390:	89 85       	ldd	r24, Y+9	; 0x09
    1392:	9a 85       	ldd	r25, Y+10	; 0x0a
    1394:	fc 01       	movw	r30, r24
    1396:	80 81       	ld	r24, Z
    1398:	91 81       	ldd	r25, Z+1	; 0x01
    139a:	a2 81       	ldd	r26, Z+2	; 0x02
    139c:	b3 81       	ldd	r27, Z+3	; 0x03
    139e:	8b 83       	std	Y+3, r24	; 0x03
    13a0:	9c 83       	std	Y+4, r25	; 0x04
    13a2:	ad 83       	std	Y+5, r26	; 0x05
    13a4:	be 83       	std	Y+6, r27	; 0x06
	new list item should be placed after it.  This ensures that TCB's which are
	stored in ready lists (all of which have the same xItemValue value) get a
	share of the CPU.  However, if the xItemValue is the same as the back marker
	the iteration loop below will not end.  Therefore the value is checked
	first, and the algorithm slightly modified if necessary. */
	if( xValueOfInsertion == portMAX_DELAY )
    13a6:	8b 81       	ldd	r24, Y+3	; 0x03
    13a8:	9c 81       	ldd	r25, Y+4	; 0x04
    13aa:	ad 81       	ldd	r26, Y+5	; 0x05
    13ac:	be 81       	ldd	r27, Y+6	; 0x06
    13ae:	8f 3f       	cpi	r24, 0xFF	; 255
    13b0:	9f 4f       	sbci	r25, 0xFF	; 255
    13b2:	af 4f       	sbci	r26, 0xFF	; 255
    13b4:	bf 4f       	sbci	r27, 0xFF	; 255
    13b6:	41 f4       	brne	.+16     	; 0x13c8 <vListInsert+0x4e>
	{
		pxIterator = pxList->xListEnd.pxPrevious;
    13b8:	8f 81       	ldd	r24, Y+7	; 0x07
    13ba:	98 85       	ldd	r25, Y+8	; 0x08
    13bc:	fc 01       	movw	r30, r24
    13be:	81 85       	ldd	r24, Z+9	; 0x09
    13c0:	92 85       	ldd	r25, Z+10	; 0x0a
    13c2:	89 83       	std	Y+1, r24	; 0x01
    13c4:	9a 83       	std	Y+2, r25	; 0x02
    13c6:	20 c0       	rjmp	.+64     	; 0x1408 <vListInsert+0x8e>
			4) Using a queue or semaphore before it has been initialised or
			   before the scheduler has been started (are interrupts firing
			   before vTaskStartScheduler() has been called?).
		**********************************************************************/

		for( pxIterator = ( ListItem_t * ) &( pxList->xListEnd ); pxIterator->pxNext->xItemValue <= xValueOfInsertion; pxIterator = pxIterator->pxNext ) /*lint !e826 !e740 The mini list structure is used as the list end to save RAM.  This is checked and valid. */
    13c8:	8f 81       	ldd	r24, Y+7	; 0x07
    13ca:	98 85       	ldd	r25, Y+8	; 0x08
    13cc:	03 96       	adiw	r24, 0x03	; 3
    13ce:	89 83       	std	Y+1, r24	; 0x01
    13d0:	9a 83       	std	Y+2, r25	; 0x02
    13d2:	07 c0       	rjmp	.+14     	; 0x13e2 <vListInsert+0x68>
    13d4:	89 81       	ldd	r24, Y+1	; 0x01
    13d6:	9a 81       	ldd	r25, Y+2	; 0x02
    13d8:	fc 01       	movw	r30, r24
    13da:	84 81       	ldd	r24, Z+4	; 0x04
    13dc:	95 81       	ldd	r25, Z+5	; 0x05
    13de:	89 83       	std	Y+1, r24	; 0x01
    13e0:	9a 83       	std	Y+2, r25	; 0x02
    13e2:	89 81       	ldd	r24, Y+1	; 0x01
    13e4:	9a 81       	ldd	r25, Y+2	; 0x02
    13e6:	fc 01       	movw	r30, r24
    13e8:	84 81       	ldd	r24, Z+4	; 0x04
    13ea:	95 81       	ldd	r25, Z+5	; 0x05
    13ec:	fc 01       	movw	r30, r24
    13ee:	20 81       	ld	r18, Z
    13f0:	31 81       	ldd	r19, Z+1	; 0x01
    13f2:	42 81       	ldd	r20, Z+2	; 0x02
    13f4:	53 81       	ldd	r21, Z+3	; 0x03
    13f6:	8b 81       	ldd	r24, Y+3	; 0x03
    13f8:	9c 81       	ldd	r25, Y+4	; 0x04
    13fa:	ad 81       	ldd	r26, Y+5	; 0x05
    13fc:	be 81       	ldd	r27, Y+6	; 0x06
    13fe:	82 17       	cp	r24, r18
    1400:	93 07       	cpc	r25, r19
    1402:	a4 07       	cpc	r26, r20
    1404:	b5 07       	cpc	r27, r21
    1406:	30 f7       	brcc	.-52     	; 0x13d4 <vListInsert+0x5a>
			/* There is nothing to do here, just iterating to the wanted
			insertion position. */
		}
	}

	pxNewListItem->pxNext = pxIterator->pxNext;
    1408:	89 81       	ldd	r24, Y+1	; 0x01
    140a:	9a 81       	ldd	r25, Y+2	; 0x02
    140c:	fc 01       	movw	r30, r24
    140e:	24 81       	ldd	r18, Z+4	; 0x04
    1410:	35 81       	ldd	r19, Z+5	; 0x05
    1412:	89 85       	ldd	r24, Y+9	; 0x09
    1414:	9a 85       	ldd	r25, Y+10	; 0x0a
    1416:	fc 01       	movw	r30, r24
    1418:	24 83       	std	Z+4, r18	; 0x04
    141a:	35 83       	std	Z+5, r19	; 0x05
	pxNewListItem->pxNext->pxPrevious = pxNewListItem;
    141c:	89 85       	ldd	r24, Y+9	; 0x09
    141e:	9a 85       	ldd	r25, Y+10	; 0x0a
    1420:	fc 01       	movw	r30, r24
    1422:	84 81       	ldd	r24, Z+4	; 0x04
    1424:	95 81       	ldd	r25, Z+5	; 0x05
    1426:	29 85       	ldd	r18, Y+9	; 0x09
    1428:	3a 85       	ldd	r19, Y+10	; 0x0a
    142a:	fc 01       	movw	r30, r24
    142c:	26 83       	std	Z+6, r18	; 0x06
    142e:	37 83       	std	Z+7, r19	; 0x07
	pxNewListItem->pxPrevious = pxIterator;
    1430:	89 85       	ldd	r24, Y+9	; 0x09
    1432:	9a 85       	ldd	r25, Y+10	; 0x0a
    1434:	29 81       	ldd	r18, Y+1	; 0x01
    1436:	3a 81       	ldd	r19, Y+2	; 0x02
    1438:	fc 01       	movw	r30, r24
    143a:	26 83       	std	Z+6, r18	; 0x06
    143c:	37 83       	std	Z+7, r19	; 0x07
	pxIterator->pxNext = pxNewListItem;
    143e:	89 81       	ldd	r24, Y+1	; 0x01
    1440:	9a 81       	ldd	r25, Y+2	; 0x02
    1442:	29 85       	ldd	r18, Y+9	; 0x09
    1444:	3a 85       	ldd	r19, Y+10	; 0x0a
    1446:	fc 01       	movw	r30, r24
    1448:	24 83       	std	Z+4, r18	; 0x04
    144a:	35 83       	std	Z+5, r19	; 0x05

	/* Remember which list the item is in.  This allows fast removal of the
	item later. */
	pxNewListItem->pvContainer = ( void * ) pxList;
    144c:	89 85       	ldd	r24, Y+9	; 0x09
    144e:	9a 85       	ldd	r25, Y+10	; 0x0a
    1450:	2f 81       	ldd	r18, Y+7	; 0x07
    1452:	38 85       	ldd	r19, Y+8	; 0x08
    1454:	fc 01       	movw	r30, r24
    1456:	22 87       	std	Z+10, r18	; 0x0a
    1458:	33 87       	std	Z+11, r19	; 0x0b

	( pxList->uxNumberOfItems )++;
    145a:	8f 81       	ldd	r24, Y+7	; 0x07
    145c:	98 85       	ldd	r25, Y+8	; 0x08
    145e:	fc 01       	movw	r30, r24
    1460:	80 81       	ld	r24, Z
    1462:	21 e0       	ldi	r18, 0x01	; 1
    1464:	28 0f       	add	r18, r24
    1466:	8f 81       	ldd	r24, Y+7	; 0x07
    1468:	98 85       	ldd	r25, Y+8	; 0x08
    146a:	fc 01       	movw	r30, r24
    146c:	20 83       	st	Z, r18
}
    146e:	00 00       	nop
    1470:	2a 96       	adiw	r28, 0x0a	; 10
    1472:	cd bf       	out	0x3d, r28	; 61
    1474:	de bf       	out	0x3e, r29	; 62
    1476:	df 91       	pop	r29
    1478:	cf 91       	pop	r28
    147a:	08 95       	ret

0000147c <uxListRemove>:
/*-----------------------------------------------------------*/

UBaseType_t uxListRemove( ListItem_t * const pxItemToRemove )
{
    147c:	cf 93       	push	r28
    147e:	df 93       	push	r29
    1480:	00 d0       	rcall	.+0      	; 0x1482 <uxListRemove+0x6>
    1482:	1f 92       	push	r1
    1484:	cd b7       	in	r28, 0x3d	; 61
    1486:	de b7       	in	r29, 0x3e	; 62
    1488:	8b 83       	std	Y+3, r24	; 0x03
    148a:	9c 83       	std	Y+4, r25	; 0x04
/* The list item knows which list it is in.  Obtain the list from the list
item. */
List_t * const pxList = ( List_t * ) pxItemToRemove->pvContainer;
    148c:	8b 81       	ldd	r24, Y+3	; 0x03
    148e:	9c 81       	ldd	r25, Y+4	; 0x04
    1490:	fc 01       	movw	r30, r24
    1492:	82 85       	ldd	r24, Z+10	; 0x0a
    1494:	93 85       	ldd	r25, Z+11	; 0x0b
    1496:	89 83       	std	Y+1, r24	; 0x01
    1498:	9a 83       	std	Y+2, r25	; 0x02

	pxItemToRemove->pxNext->pxPrevious = pxItemToRemove->pxPrevious;
    149a:	8b 81       	ldd	r24, Y+3	; 0x03
    149c:	9c 81       	ldd	r25, Y+4	; 0x04
    149e:	fc 01       	movw	r30, r24
    14a0:	84 81       	ldd	r24, Z+4	; 0x04
    14a2:	95 81       	ldd	r25, Z+5	; 0x05
    14a4:	2b 81       	ldd	r18, Y+3	; 0x03
    14a6:	3c 81       	ldd	r19, Y+4	; 0x04
    14a8:	f9 01       	movw	r30, r18
    14aa:	26 81       	ldd	r18, Z+6	; 0x06
    14ac:	37 81       	ldd	r19, Z+7	; 0x07
    14ae:	fc 01       	movw	r30, r24
    14b0:	26 83       	std	Z+6, r18	; 0x06
    14b2:	37 83       	std	Z+7, r19	; 0x07
	pxItemToRemove->pxPrevious->pxNext = pxItemToRemove->pxNext;
    14b4:	8b 81       	ldd	r24, Y+3	; 0x03
    14b6:	9c 81       	ldd	r25, Y+4	; 0x04
    14b8:	fc 01       	movw	r30, r24
    14ba:	86 81       	ldd	r24, Z+6	; 0x06
    14bc:	97 81       	ldd	r25, Z+7	; 0x07
    14be:	2b 81       	ldd	r18, Y+3	; 0x03
    14c0:	3c 81       	ldd	r19, Y+4	; 0x04
    14c2:	f9 01       	movw	r30, r18
    14c4:	24 81       	ldd	r18, Z+4	; 0x04
    14c6:	35 81       	ldd	r19, Z+5	; 0x05
    14c8:	fc 01       	movw	r30, r24
    14ca:	24 83       	std	Z+4, r18	; 0x04
    14cc:	35 83       	std	Z+5, r19	; 0x05

	/* Only used during decision coverage testing. */
	mtCOVERAGE_TEST_DELAY();

	/* Make sure the index is left pointing to a valid item. */
	if( pxList->pxIndex == pxItemToRemove )
    14ce:	89 81       	ldd	r24, Y+1	; 0x01
    14d0:	9a 81       	ldd	r25, Y+2	; 0x02
    14d2:	fc 01       	movw	r30, r24
    14d4:	21 81       	ldd	r18, Z+1	; 0x01
    14d6:	32 81       	ldd	r19, Z+2	; 0x02
    14d8:	8b 81       	ldd	r24, Y+3	; 0x03
    14da:	9c 81       	ldd	r25, Y+4	; 0x04
    14dc:	28 17       	cp	r18, r24
    14de:	39 07       	cpc	r19, r25
    14e0:	51 f4       	brne	.+20     	; 0x14f6 <uxListRemove+0x7a>
	{
		pxList->pxIndex = pxItemToRemove->pxPrevious;
    14e2:	8b 81       	ldd	r24, Y+3	; 0x03
    14e4:	9c 81       	ldd	r25, Y+4	; 0x04
    14e6:	fc 01       	movw	r30, r24
    14e8:	26 81       	ldd	r18, Z+6	; 0x06
    14ea:	37 81       	ldd	r19, Z+7	; 0x07
    14ec:	89 81       	ldd	r24, Y+1	; 0x01
    14ee:	9a 81       	ldd	r25, Y+2	; 0x02
    14f0:	fc 01       	movw	r30, r24
    14f2:	21 83       	std	Z+1, r18	; 0x01
    14f4:	32 83       	std	Z+2, r19	; 0x02
	else
	{
		mtCOVERAGE_TEST_MARKER();
	}

	pxItemToRemove->pvContainer = NULL;
    14f6:	8b 81       	ldd	r24, Y+3	; 0x03
    14f8:	9c 81       	ldd	r25, Y+4	; 0x04
    14fa:	fc 01       	movw	r30, r24
    14fc:	12 86       	std	Z+10, r1	; 0x0a
    14fe:	13 86       	std	Z+11, r1	; 0x0b
	( pxList->uxNumberOfItems )--;
    1500:	89 81       	ldd	r24, Y+1	; 0x01
    1502:	9a 81       	ldd	r25, Y+2	; 0x02
    1504:	fc 01       	movw	r30, r24
    1506:	80 81       	ld	r24, Z
    1508:	2f ef       	ldi	r18, 0xFF	; 255
    150a:	28 0f       	add	r18, r24
    150c:	89 81       	ldd	r24, Y+1	; 0x01
    150e:	9a 81       	ldd	r25, Y+2	; 0x02
    1510:	fc 01       	movw	r30, r24
    1512:	20 83       	st	Z, r18

	return pxList->uxNumberOfItems;
    1514:	89 81       	ldd	r24, Y+1	; 0x01
    1516:	9a 81       	ldd	r25, Y+2	; 0x02
    1518:	fc 01       	movw	r30, r24
    151a:	80 81       	ld	r24, Z
}
    151c:	24 96       	adiw	r28, 0x04	; 4
    151e:	cd bf       	out	0x3d, r28	; 61
    1520:	de bf       	out	0x3e, r29	; 62
    1522:	df 91       	pop	r29
    1524:	cf 91       	pop	r28
    1526:	08 95       	ret

00001528 <_portSetInterruptMaskFromIsr>:

void vPortEndScheduler( void )
{
	/* It is unlikely that the AVR port will get stopped.  If required simply
	disable the tick interrupt here. */
}
    1528:	1f 93       	push	r17
    152a:	cf 93       	push	r28
    152c:	df 93       	push	r29
    152e:	cd b7       	in	r28, 0x3d	; 61
    1530:	de b7       	in	r29, 0x3e	; 62
    1532:	80 ea       	ldi	r24, 0xA0	; 160
    1534:	90 e0       	ldi	r25, 0x00	; 0
    1536:	fc 01       	movw	r30, r24
    1538:	12 81       	ldd	r17, Z+2	; 0x02
    153a:	80 ea       	ldi	r24, 0xA0	; 160
    153c:	90 e0       	ldi	r25, 0x00	; 0
    153e:	20 ea       	ldi	r18, 0xA0	; 160
    1540:	30 e0       	ldi	r19, 0x00	; 0
    1542:	f9 01       	movw	r30, r18
    1544:	22 81       	ldd	r18, Z+2	; 0x02
    1546:	28 7f       	andi	r18, 0xF8	; 248
    1548:	fc 01       	movw	r30, r24
    154a:	22 83       	std	Z+2, r18	; 0x02
    154c:	81 2f       	mov	r24, r17
    154e:	df 91       	pop	r29
    1550:	cf 91       	pop	r28
    1552:	1f 91       	pop	r17
    1554:	08 95       	ret

00001556 <pxPortInitialiseStack>:
    1556:	cf 93       	push	r28
    1558:	df 93       	push	r29
    155a:	cd b7       	in	r28, 0x3d	; 61
    155c:	de b7       	in	r29, 0x3e	; 62
    155e:	2a 97       	sbiw	r28, 0x0a	; 10
    1560:	cd bf       	out	0x3d, r28	; 61
    1562:	de bf       	out	0x3e, r29	; 62
    1564:	8d 83       	std	Y+5, r24	; 0x05
    1566:	9e 83       	std	Y+6, r25	; 0x06
    1568:	6f 83       	std	Y+7, r22	; 0x07
    156a:	78 87       	std	Y+8, r23	; 0x08
    156c:	49 87       	std	Y+9, r20	; 0x09
    156e:	5a 87       	std	Y+10, r21	; 0x0a
    1570:	8d 81       	ldd	r24, Y+5	; 0x05
    1572:	9e 81       	ldd	r25, Y+6	; 0x06
    1574:	21 e1       	ldi	r18, 0x11	; 17
    1576:	fc 01       	movw	r30, r24
    1578:	20 83       	st	Z, r18
    157a:	8d 81       	ldd	r24, Y+5	; 0x05
    157c:	9e 81       	ldd	r25, Y+6	; 0x06
    157e:	01 97       	sbiw	r24, 0x01	; 1
    1580:	8d 83       	std	Y+5, r24	; 0x05
    1582:	9e 83       	std	Y+6, r25	; 0x06
    1584:	8d 81       	ldd	r24, Y+5	; 0x05
    1586:	9e 81       	ldd	r25, Y+6	; 0x06
    1588:	22 e2       	ldi	r18, 0x22	; 34
    158a:	fc 01       	movw	r30, r24
    158c:	20 83       	st	Z, r18
    158e:	8d 81       	ldd	r24, Y+5	; 0x05
    1590:	9e 81       	ldd	r25, Y+6	; 0x06
    1592:	01 97       	sbiw	r24, 0x01	; 1
    1594:	8d 83       	std	Y+5, r24	; 0x05
    1596:	9e 83       	std	Y+6, r25	; 0x06
    1598:	8d 81       	ldd	r24, Y+5	; 0x05
    159a:	9e 81       	ldd	r25, Y+6	; 0x06
    159c:	23 e3       	ldi	r18, 0x33	; 51
    159e:	fc 01       	movw	r30, r24
    15a0:	20 83       	st	Z, r18
    15a2:	8d 81       	ldd	r24, Y+5	; 0x05
    15a4:	9e 81       	ldd	r25, Y+6	; 0x06
    15a6:	01 97       	sbiw	r24, 0x01	; 1
    15a8:	8d 83       	std	Y+5, r24	; 0x05
    15aa:	9e 83       	std	Y+6, r25	; 0x06
    15ac:	8f 81       	ldd	r24, Y+7	; 0x07
    15ae:	98 85       	ldd	r25, Y+8	; 0x08
    15b0:	cc 01       	movw	r24, r24
    15b2:	a0 e0       	ldi	r26, 0x00	; 0
    15b4:	b0 e0       	ldi	r27, 0x00	; 0
    15b6:	89 83       	std	Y+1, r24	; 0x01
    15b8:	9a 83       	std	Y+2, r25	; 0x02
    15ba:	ab 83       	std	Y+3, r26	; 0x03
    15bc:	bc 83       	std	Y+4, r27	; 0x04
    15be:	29 81       	ldd	r18, Y+1	; 0x01
    15c0:	8d 81       	ldd	r24, Y+5	; 0x05
    15c2:	9e 81       	ldd	r25, Y+6	; 0x06
    15c4:	fc 01       	movw	r30, r24
    15c6:	20 83       	st	Z, r18
    15c8:	8d 81       	ldd	r24, Y+5	; 0x05
    15ca:	9e 81       	ldd	r25, Y+6	; 0x06
    15cc:	01 97       	sbiw	r24, 0x01	; 1
    15ce:	8d 83       	std	Y+5, r24	; 0x05
    15d0:	9e 83       	std	Y+6, r25	; 0x06
    15d2:	89 81       	ldd	r24, Y+1	; 0x01
    15d4:	9a 81       	ldd	r25, Y+2	; 0x02
    15d6:	ab 81       	ldd	r26, Y+3	; 0x03
    15d8:	bc 81       	ldd	r27, Y+4	; 0x04
    15da:	89 2f       	mov	r24, r25
    15dc:	9a 2f       	mov	r25, r26
    15de:	ab 2f       	mov	r26, r27
    15e0:	bb 27       	eor	r27, r27
    15e2:	89 83       	std	Y+1, r24	; 0x01
    15e4:	9a 83       	std	Y+2, r25	; 0x02
    15e6:	ab 83       	std	Y+3, r26	; 0x03
    15e8:	bc 83       	std	Y+4, r27	; 0x04
    15ea:	29 81       	ldd	r18, Y+1	; 0x01
    15ec:	8d 81       	ldd	r24, Y+5	; 0x05
    15ee:	9e 81       	ldd	r25, Y+6	; 0x06
    15f0:	fc 01       	movw	r30, r24
    15f2:	20 83       	st	Z, r18
    15f4:	8d 81       	ldd	r24, Y+5	; 0x05
    15f6:	9e 81       	ldd	r25, Y+6	; 0x06
    15f8:	01 97       	sbiw	r24, 0x01	; 1
    15fa:	8d 83       	std	Y+5, r24	; 0x05
    15fc:	9e 83       	std	Y+6, r25	; 0x06
    15fe:	89 81       	ldd	r24, Y+1	; 0x01
    1600:	9a 81       	ldd	r25, Y+2	; 0x02
    1602:	ab 81       	ldd	r26, Y+3	; 0x03
    1604:	bc 81       	ldd	r27, Y+4	; 0x04
    1606:	89 2f       	mov	r24, r25
    1608:	9a 2f       	mov	r25, r26
    160a:	ab 2f       	mov	r26, r27
    160c:	bb 27       	eor	r27, r27
    160e:	89 83       	std	Y+1, r24	; 0x01
    1610:	9a 83       	std	Y+2, r25	; 0x02
    1612:	ab 83       	std	Y+3, r26	; 0x03
    1614:	bc 83       	std	Y+4, r27	; 0x04
    1616:	29 81       	ldd	r18, Y+1	; 0x01
    1618:	8d 81       	ldd	r24, Y+5	; 0x05
    161a:	9e 81       	ldd	r25, Y+6	; 0x06
    161c:	fc 01       	movw	r30, r24
    161e:	20 83       	st	Z, r18
    1620:	8d 81       	ldd	r24, Y+5	; 0x05
    1622:	9e 81       	ldd	r25, Y+6	; 0x06
    1624:	01 97       	sbiw	r24, 0x01	; 1
    1626:	8d 83       	std	Y+5, r24	; 0x05
    1628:	9e 83       	std	Y+6, r25	; 0x06
    162a:	8d 81       	ldd	r24, Y+5	; 0x05
    162c:	9e 81       	ldd	r25, Y+6	; 0x06
    162e:	21 e3       	ldi	r18, 0x31	; 49
    1630:	fc 01       	movw	r30, r24
    1632:	20 83       	st	Z, r18
    1634:	8d 81       	ldd	r24, Y+5	; 0x05
    1636:	9e 81       	ldd	r25, Y+6	; 0x06
    1638:	01 97       	sbiw	r24, 0x01	; 1
    163a:	8d 83       	std	Y+5, r24	; 0x05
    163c:	9e 83       	std	Y+6, r25	; 0x06
    163e:	8d 81       	ldd	r24, Y+5	; 0x05
    1640:	9e 81       	ldd	r25, Y+6	; 0x06
    1642:	20 e8       	ldi	r18, 0x80	; 128
    1644:	fc 01       	movw	r30, r24
    1646:	20 83       	st	Z, r18
    1648:	8d 81       	ldd	r24, Y+5	; 0x05
    164a:	9e 81       	ldd	r25, Y+6	; 0x06
    164c:	01 97       	sbiw	r24, 0x01	; 1
    164e:	8d 83       	std	Y+5, r24	; 0x05
    1650:	9e 83       	std	Y+6, r25	; 0x06
    1652:	8d 81       	ldd	r24, Y+5	; 0x05
    1654:	9e 81       	ldd	r25, Y+6	; 0x06
    1656:	27 e8       	ldi	r18, 0x87	; 135
    1658:	fc 01       	movw	r30, r24
    165a:	20 83       	st	Z, r18
    165c:	8d 81       	ldd	r24, Y+5	; 0x05
    165e:	9e 81       	ldd	r25, Y+6	; 0x06
    1660:	01 97       	sbiw	r24, 0x01	; 1
    1662:	8d 83       	std	Y+5, r24	; 0x05
    1664:	9e 83       	std	Y+6, r25	; 0x06
    1666:	8d 81       	ldd	r24, Y+5	; 0x05
    1668:	9e 81       	ldd	r25, Y+6	; 0x06
    166a:	fc 01       	movw	r30, r24
    166c:	10 82       	st	Z, r1
    166e:	8d 81       	ldd	r24, Y+5	; 0x05
    1670:	9e 81       	ldd	r25, Y+6	; 0x06
    1672:	01 97       	sbiw	r24, 0x01	; 1
    1674:	8d 83       	std	Y+5, r24	; 0x05
    1676:	9e 83       	std	Y+6, r25	; 0x06
    1678:	8d 81       	ldd	r24, Y+5	; 0x05
    167a:	9e 81       	ldd	r25, Y+6	; 0x06
    167c:	fc 01       	movw	r30, r24
    167e:	10 82       	st	Z, r1
    1680:	8d 81       	ldd	r24, Y+5	; 0x05
    1682:	9e 81       	ldd	r25, Y+6	; 0x06
    1684:	01 97       	sbiw	r24, 0x01	; 1
    1686:	8d 83       	std	Y+5, r24	; 0x05
    1688:	9e 83       	std	Y+6, r25	; 0x06
    168a:	8d 81       	ldd	r24, Y+5	; 0x05
    168c:	9e 81       	ldd	r25, Y+6	; 0x06
    168e:	22 e0       	ldi	r18, 0x02	; 2
    1690:	fc 01       	movw	r30, r24
    1692:	20 83       	st	Z, r18
    1694:	8d 81       	ldd	r24, Y+5	; 0x05
    1696:	9e 81       	ldd	r25, Y+6	; 0x06
    1698:	01 97       	sbiw	r24, 0x01	; 1
    169a:	8d 83       	std	Y+5, r24	; 0x05
    169c:	9e 83       	std	Y+6, r25	; 0x06
    169e:	8d 81       	ldd	r24, Y+5	; 0x05
    16a0:	9e 81       	ldd	r25, Y+6	; 0x06
    16a2:	23 e0       	ldi	r18, 0x03	; 3
    16a4:	fc 01       	movw	r30, r24
    16a6:	20 83       	st	Z, r18
    16a8:	8d 81       	ldd	r24, Y+5	; 0x05
    16aa:	9e 81       	ldd	r25, Y+6	; 0x06
    16ac:	01 97       	sbiw	r24, 0x01	; 1
    16ae:	8d 83       	std	Y+5, r24	; 0x05
    16b0:	9e 83       	std	Y+6, r25	; 0x06
    16b2:	8d 81       	ldd	r24, Y+5	; 0x05
    16b4:	9e 81       	ldd	r25, Y+6	; 0x06
    16b6:	24 e0       	ldi	r18, 0x04	; 4
    16b8:	fc 01       	movw	r30, r24
    16ba:	20 83       	st	Z, r18
    16bc:	8d 81       	ldd	r24, Y+5	; 0x05
    16be:	9e 81       	ldd	r25, Y+6	; 0x06
    16c0:	01 97       	sbiw	r24, 0x01	; 1
    16c2:	8d 83       	std	Y+5, r24	; 0x05
    16c4:	9e 83       	std	Y+6, r25	; 0x06
    16c6:	8d 81       	ldd	r24, Y+5	; 0x05
    16c8:	9e 81       	ldd	r25, Y+6	; 0x06
    16ca:	25 e0       	ldi	r18, 0x05	; 5
    16cc:	fc 01       	movw	r30, r24
    16ce:	20 83       	st	Z, r18
    16d0:	8d 81       	ldd	r24, Y+5	; 0x05
    16d2:	9e 81       	ldd	r25, Y+6	; 0x06
    16d4:	01 97       	sbiw	r24, 0x01	; 1
    16d6:	8d 83       	std	Y+5, r24	; 0x05
    16d8:	9e 83       	std	Y+6, r25	; 0x06
    16da:	8d 81       	ldd	r24, Y+5	; 0x05
    16dc:	9e 81       	ldd	r25, Y+6	; 0x06
    16de:	26 e0       	ldi	r18, 0x06	; 6
    16e0:	fc 01       	movw	r30, r24
    16e2:	20 83       	st	Z, r18
    16e4:	8d 81       	ldd	r24, Y+5	; 0x05
    16e6:	9e 81       	ldd	r25, Y+6	; 0x06
    16e8:	01 97       	sbiw	r24, 0x01	; 1
    16ea:	8d 83       	std	Y+5, r24	; 0x05
    16ec:	9e 83       	std	Y+6, r25	; 0x06
    16ee:	8d 81       	ldd	r24, Y+5	; 0x05
    16f0:	9e 81       	ldd	r25, Y+6	; 0x06
    16f2:	27 e0       	ldi	r18, 0x07	; 7
    16f4:	fc 01       	movw	r30, r24
    16f6:	20 83       	st	Z, r18
    16f8:	8d 81       	ldd	r24, Y+5	; 0x05
    16fa:	9e 81       	ldd	r25, Y+6	; 0x06
    16fc:	01 97       	sbiw	r24, 0x01	; 1
    16fe:	8d 83       	std	Y+5, r24	; 0x05
    1700:	9e 83       	std	Y+6, r25	; 0x06
    1702:	8d 81       	ldd	r24, Y+5	; 0x05
    1704:	9e 81       	ldd	r25, Y+6	; 0x06
    1706:	28 e0       	ldi	r18, 0x08	; 8
    1708:	fc 01       	movw	r30, r24
    170a:	20 83       	st	Z, r18
    170c:	8d 81       	ldd	r24, Y+5	; 0x05
    170e:	9e 81       	ldd	r25, Y+6	; 0x06
    1710:	01 97       	sbiw	r24, 0x01	; 1
    1712:	8d 83       	std	Y+5, r24	; 0x05
    1714:	9e 83       	std	Y+6, r25	; 0x06
    1716:	8d 81       	ldd	r24, Y+5	; 0x05
    1718:	9e 81       	ldd	r25, Y+6	; 0x06
    171a:	29 e0       	ldi	r18, 0x09	; 9
    171c:	fc 01       	movw	r30, r24
    171e:	20 83       	st	Z, r18
    1720:	8d 81       	ldd	r24, Y+5	; 0x05
    1722:	9e 81       	ldd	r25, Y+6	; 0x06
    1724:	01 97       	sbiw	r24, 0x01	; 1
    1726:	8d 83       	std	Y+5, r24	; 0x05
    1728:	9e 83       	std	Y+6, r25	; 0x06
    172a:	8d 81       	ldd	r24, Y+5	; 0x05
    172c:	9e 81       	ldd	r25, Y+6	; 0x06
    172e:	20 e1       	ldi	r18, 0x10	; 16
    1730:	fc 01       	movw	r30, r24
    1732:	20 83       	st	Z, r18
    1734:	8d 81       	ldd	r24, Y+5	; 0x05
    1736:	9e 81       	ldd	r25, Y+6	; 0x06
    1738:	01 97       	sbiw	r24, 0x01	; 1
    173a:	8d 83       	std	Y+5, r24	; 0x05
    173c:	9e 83       	std	Y+6, r25	; 0x06
    173e:	8d 81       	ldd	r24, Y+5	; 0x05
    1740:	9e 81       	ldd	r25, Y+6	; 0x06
    1742:	21 e1       	ldi	r18, 0x11	; 17
    1744:	fc 01       	movw	r30, r24
    1746:	20 83       	st	Z, r18
    1748:	8d 81       	ldd	r24, Y+5	; 0x05
    174a:	9e 81       	ldd	r25, Y+6	; 0x06
    174c:	01 97       	sbiw	r24, 0x01	; 1
    174e:	8d 83       	std	Y+5, r24	; 0x05
    1750:	9e 83       	std	Y+6, r25	; 0x06
    1752:	8d 81       	ldd	r24, Y+5	; 0x05
    1754:	9e 81       	ldd	r25, Y+6	; 0x06
    1756:	22 e1       	ldi	r18, 0x12	; 18
    1758:	fc 01       	movw	r30, r24
    175a:	20 83       	st	Z, r18
    175c:	8d 81       	ldd	r24, Y+5	; 0x05
    175e:	9e 81       	ldd	r25, Y+6	; 0x06
    1760:	01 97       	sbiw	r24, 0x01	; 1
    1762:	8d 83       	std	Y+5, r24	; 0x05
    1764:	9e 83       	std	Y+6, r25	; 0x06
    1766:	8d 81       	ldd	r24, Y+5	; 0x05
    1768:	9e 81       	ldd	r25, Y+6	; 0x06
    176a:	23 e1       	ldi	r18, 0x13	; 19
    176c:	fc 01       	movw	r30, r24
    176e:	20 83       	st	Z, r18
    1770:	8d 81       	ldd	r24, Y+5	; 0x05
    1772:	9e 81       	ldd	r25, Y+6	; 0x06
    1774:	01 97       	sbiw	r24, 0x01	; 1
    1776:	8d 83       	std	Y+5, r24	; 0x05
    1778:	9e 83       	std	Y+6, r25	; 0x06
    177a:	8d 81       	ldd	r24, Y+5	; 0x05
    177c:	9e 81       	ldd	r25, Y+6	; 0x06
    177e:	24 e1       	ldi	r18, 0x14	; 20
    1780:	fc 01       	movw	r30, r24
    1782:	20 83       	st	Z, r18
    1784:	8d 81       	ldd	r24, Y+5	; 0x05
    1786:	9e 81       	ldd	r25, Y+6	; 0x06
    1788:	01 97       	sbiw	r24, 0x01	; 1
    178a:	8d 83       	std	Y+5, r24	; 0x05
    178c:	9e 83       	std	Y+6, r25	; 0x06
    178e:	8d 81       	ldd	r24, Y+5	; 0x05
    1790:	9e 81       	ldd	r25, Y+6	; 0x06
    1792:	25 e1       	ldi	r18, 0x15	; 21
    1794:	fc 01       	movw	r30, r24
    1796:	20 83       	st	Z, r18
    1798:	8d 81       	ldd	r24, Y+5	; 0x05
    179a:	9e 81       	ldd	r25, Y+6	; 0x06
    179c:	01 97       	sbiw	r24, 0x01	; 1
    179e:	8d 83       	std	Y+5, r24	; 0x05
    17a0:	9e 83       	std	Y+6, r25	; 0x06
    17a2:	8d 81       	ldd	r24, Y+5	; 0x05
    17a4:	9e 81       	ldd	r25, Y+6	; 0x06
    17a6:	26 e1       	ldi	r18, 0x16	; 22
    17a8:	fc 01       	movw	r30, r24
    17aa:	20 83       	st	Z, r18
    17ac:	8d 81       	ldd	r24, Y+5	; 0x05
    17ae:	9e 81       	ldd	r25, Y+6	; 0x06
    17b0:	01 97       	sbiw	r24, 0x01	; 1
    17b2:	8d 83       	std	Y+5, r24	; 0x05
    17b4:	9e 83       	std	Y+6, r25	; 0x06
    17b6:	8d 81       	ldd	r24, Y+5	; 0x05
    17b8:	9e 81       	ldd	r25, Y+6	; 0x06
    17ba:	27 e1       	ldi	r18, 0x17	; 23
    17bc:	fc 01       	movw	r30, r24
    17be:	20 83       	st	Z, r18
    17c0:	8d 81       	ldd	r24, Y+5	; 0x05
    17c2:	9e 81       	ldd	r25, Y+6	; 0x06
    17c4:	01 97       	sbiw	r24, 0x01	; 1
    17c6:	8d 83       	std	Y+5, r24	; 0x05
    17c8:	9e 83       	std	Y+6, r25	; 0x06
    17ca:	8d 81       	ldd	r24, Y+5	; 0x05
    17cc:	9e 81       	ldd	r25, Y+6	; 0x06
    17ce:	28 e1       	ldi	r18, 0x18	; 24
    17d0:	fc 01       	movw	r30, r24
    17d2:	20 83       	st	Z, r18
    17d4:	8d 81       	ldd	r24, Y+5	; 0x05
    17d6:	9e 81       	ldd	r25, Y+6	; 0x06
    17d8:	01 97       	sbiw	r24, 0x01	; 1
    17da:	8d 83       	std	Y+5, r24	; 0x05
    17dc:	9e 83       	std	Y+6, r25	; 0x06
    17de:	8d 81       	ldd	r24, Y+5	; 0x05
    17e0:	9e 81       	ldd	r25, Y+6	; 0x06
    17e2:	29 e1       	ldi	r18, 0x19	; 25
    17e4:	fc 01       	movw	r30, r24
    17e6:	20 83       	st	Z, r18
    17e8:	8d 81       	ldd	r24, Y+5	; 0x05
    17ea:	9e 81       	ldd	r25, Y+6	; 0x06
    17ec:	01 97       	sbiw	r24, 0x01	; 1
    17ee:	8d 83       	std	Y+5, r24	; 0x05
    17f0:	9e 83       	std	Y+6, r25	; 0x06
    17f2:	8d 81       	ldd	r24, Y+5	; 0x05
    17f4:	9e 81       	ldd	r25, Y+6	; 0x06
    17f6:	20 e2       	ldi	r18, 0x20	; 32
    17f8:	fc 01       	movw	r30, r24
    17fa:	20 83       	st	Z, r18
    17fc:	8d 81       	ldd	r24, Y+5	; 0x05
    17fe:	9e 81       	ldd	r25, Y+6	; 0x06
    1800:	01 97       	sbiw	r24, 0x01	; 1
    1802:	8d 83       	std	Y+5, r24	; 0x05
    1804:	9e 83       	std	Y+6, r25	; 0x06
    1806:	8d 81       	ldd	r24, Y+5	; 0x05
    1808:	9e 81       	ldd	r25, Y+6	; 0x06
    180a:	21 e2       	ldi	r18, 0x21	; 33
    180c:	fc 01       	movw	r30, r24
    180e:	20 83       	st	Z, r18
    1810:	8d 81       	ldd	r24, Y+5	; 0x05
    1812:	9e 81       	ldd	r25, Y+6	; 0x06
    1814:	01 97       	sbiw	r24, 0x01	; 1
    1816:	8d 83       	std	Y+5, r24	; 0x05
    1818:	9e 83       	std	Y+6, r25	; 0x06
    181a:	8d 81       	ldd	r24, Y+5	; 0x05
    181c:	9e 81       	ldd	r25, Y+6	; 0x06
    181e:	22 e2       	ldi	r18, 0x22	; 34
    1820:	fc 01       	movw	r30, r24
    1822:	20 83       	st	Z, r18
    1824:	8d 81       	ldd	r24, Y+5	; 0x05
    1826:	9e 81       	ldd	r25, Y+6	; 0x06
    1828:	01 97       	sbiw	r24, 0x01	; 1
    182a:	8d 83       	std	Y+5, r24	; 0x05
    182c:	9e 83       	std	Y+6, r25	; 0x06
    182e:	8d 81       	ldd	r24, Y+5	; 0x05
    1830:	9e 81       	ldd	r25, Y+6	; 0x06
    1832:	23 e2       	ldi	r18, 0x23	; 35
    1834:	fc 01       	movw	r30, r24
    1836:	20 83       	st	Z, r18
    1838:	8d 81       	ldd	r24, Y+5	; 0x05
    183a:	9e 81       	ldd	r25, Y+6	; 0x06
    183c:	01 97       	sbiw	r24, 0x01	; 1
    183e:	8d 83       	std	Y+5, r24	; 0x05
    1840:	9e 83       	std	Y+6, r25	; 0x06
    1842:	89 85       	ldd	r24, Y+9	; 0x09
    1844:	9a 85       	ldd	r25, Y+10	; 0x0a
    1846:	cc 01       	movw	r24, r24
    1848:	a0 e0       	ldi	r26, 0x00	; 0
    184a:	b0 e0       	ldi	r27, 0x00	; 0
    184c:	89 83       	std	Y+1, r24	; 0x01
    184e:	9a 83       	std	Y+2, r25	; 0x02
    1850:	ab 83       	std	Y+3, r26	; 0x03
    1852:	bc 83       	std	Y+4, r27	; 0x04
    1854:	29 81       	ldd	r18, Y+1	; 0x01
    1856:	8d 81       	ldd	r24, Y+5	; 0x05
    1858:	9e 81       	ldd	r25, Y+6	; 0x06
    185a:	fc 01       	movw	r30, r24
    185c:	20 83       	st	Z, r18
    185e:	8d 81       	ldd	r24, Y+5	; 0x05
    1860:	9e 81       	ldd	r25, Y+6	; 0x06
    1862:	01 97       	sbiw	r24, 0x01	; 1
    1864:	8d 83       	std	Y+5, r24	; 0x05
    1866:	9e 83       	std	Y+6, r25	; 0x06
    1868:	89 81       	ldd	r24, Y+1	; 0x01
    186a:	9a 81       	ldd	r25, Y+2	; 0x02
    186c:	ab 81       	ldd	r26, Y+3	; 0x03
    186e:	bc 81       	ldd	r27, Y+4	; 0x04
    1870:	89 2f       	mov	r24, r25
    1872:	9a 2f       	mov	r25, r26
    1874:	ab 2f       	mov	r26, r27
    1876:	bb 27       	eor	r27, r27
    1878:	89 83       	std	Y+1, r24	; 0x01
    187a:	9a 83       	std	Y+2, r25	; 0x02
    187c:	ab 83       	std	Y+3, r26	; 0x03
    187e:	bc 83       	std	Y+4, r27	; 0x04
    1880:	29 81       	ldd	r18, Y+1	; 0x01
    1882:	8d 81       	ldd	r24, Y+5	; 0x05
    1884:	9e 81       	ldd	r25, Y+6	; 0x06
    1886:	fc 01       	movw	r30, r24
    1888:	20 83       	st	Z, r18
    188a:	8d 81       	ldd	r24, Y+5	; 0x05
    188c:	9e 81       	ldd	r25, Y+6	; 0x06
    188e:	01 97       	sbiw	r24, 0x01	; 1
    1890:	8d 83       	std	Y+5, r24	; 0x05
    1892:	9e 83       	std	Y+6, r25	; 0x06
    1894:	8d 81       	ldd	r24, Y+5	; 0x05
    1896:	9e 81       	ldd	r25, Y+6	; 0x06
    1898:	26 e2       	ldi	r18, 0x26	; 38
    189a:	fc 01       	movw	r30, r24
    189c:	20 83       	st	Z, r18
    189e:	8d 81       	ldd	r24, Y+5	; 0x05
    18a0:	9e 81       	ldd	r25, Y+6	; 0x06
    18a2:	01 97       	sbiw	r24, 0x01	; 1
    18a4:	8d 83       	std	Y+5, r24	; 0x05
    18a6:	9e 83       	std	Y+6, r25	; 0x06
    18a8:	8d 81       	ldd	r24, Y+5	; 0x05
    18aa:	9e 81       	ldd	r25, Y+6	; 0x06
    18ac:	27 e2       	ldi	r18, 0x27	; 39
    18ae:	fc 01       	movw	r30, r24
    18b0:	20 83       	st	Z, r18
    18b2:	8d 81       	ldd	r24, Y+5	; 0x05
    18b4:	9e 81       	ldd	r25, Y+6	; 0x06
    18b6:	01 97       	sbiw	r24, 0x01	; 1
    18b8:	8d 83       	std	Y+5, r24	; 0x05
    18ba:	9e 83       	std	Y+6, r25	; 0x06
    18bc:	8d 81       	ldd	r24, Y+5	; 0x05
    18be:	9e 81       	ldd	r25, Y+6	; 0x06
    18c0:	28 e2       	ldi	r18, 0x28	; 40
    18c2:	fc 01       	movw	r30, r24
    18c4:	20 83       	st	Z, r18
    18c6:	8d 81       	ldd	r24, Y+5	; 0x05
    18c8:	9e 81       	ldd	r25, Y+6	; 0x06
    18ca:	01 97       	sbiw	r24, 0x01	; 1
    18cc:	8d 83       	std	Y+5, r24	; 0x05
    18ce:	9e 83       	std	Y+6, r25	; 0x06
    18d0:	8d 81       	ldd	r24, Y+5	; 0x05
    18d2:	9e 81       	ldd	r25, Y+6	; 0x06
    18d4:	29 e2       	ldi	r18, 0x29	; 41
    18d6:	fc 01       	movw	r30, r24
    18d8:	20 83       	st	Z, r18
    18da:	8d 81       	ldd	r24, Y+5	; 0x05
    18dc:	9e 81       	ldd	r25, Y+6	; 0x06
    18de:	01 97       	sbiw	r24, 0x01	; 1
    18e0:	8d 83       	std	Y+5, r24	; 0x05
    18e2:	9e 83       	std	Y+6, r25	; 0x06
    18e4:	8d 81       	ldd	r24, Y+5	; 0x05
    18e6:	9e 81       	ldd	r25, Y+6	; 0x06
    18e8:	20 e3       	ldi	r18, 0x30	; 48
    18ea:	fc 01       	movw	r30, r24
    18ec:	20 83       	st	Z, r18
    18ee:	8d 81       	ldd	r24, Y+5	; 0x05
    18f0:	9e 81       	ldd	r25, Y+6	; 0x06
    18f2:	01 97       	sbiw	r24, 0x01	; 1
    18f4:	8d 83       	std	Y+5, r24	; 0x05
    18f6:	9e 83       	std	Y+6, r25	; 0x06
    18f8:	8d 81       	ldd	r24, Y+5	; 0x05
    18fa:	9e 81       	ldd	r25, Y+6	; 0x06
    18fc:	2a 96       	adiw	r28, 0x0a	; 10
    18fe:	cd bf       	out	0x3d, r28	; 61
    1900:	de bf       	out	0x3e, r29	; 62
    1902:	df 91       	pop	r29
    1904:	cf 91       	pop	r28
    1906:	08 95       	ret

00001908 <xPortStartScheduler>:
    1908:	cf 93       	push	r28
    190a:	df 93       	push	r29
    190c:	cd b7       	in	r28, 0x3d	; 61
    190e:	de b7       	in	r29, 0x3e	; 62
    1910:	0e 94 cb 0d 	call	0x1b96	; 0x1b96 <prvSetupTimerInterrupt>
    1914:	a0 91 50 2c 	lds	r26, 0x2C50	; 0x802c50 <pxCurrentTCB>
    1918:	b0 91 51 2c 	lds	r27, 0x2C51	; 0x802c51 <pxCurrentTCB+0x1>
    191c:	0d 90       	ld	r0, X+
    191e:	0d be       	out	0x3d, r0	; 61
    1920:	0d 90       	ld	r0, X+
    1922:	0e be       	out	0x3e, r0	; 62
    1924:	ef 91       	pop	r30
    1926:	df 91       	pop	r29
    1928:	cf 91       	pop	r28
    192a:	bf 91       	pop	r27
    192c:	af 91       	pop	r26
    192e:	9f 91       	pop	r25
    1930:	8f 91       	pop	r24
    1932:	7f 91       	pop	r23
    1934:	6f 91       	pop	r22
    1936:	5f 91       	pop	r21
    1938:	4f 91       	pop	r20
    193a:	3f 91       	pop	r19
    193c:	2f 91       	pop	r18
    193e:	1f 91       	pop	r17
    1940:	0f 91       	pop	r16
    1942:	ff 90       	pop	r15
    1944:	ef 90       	pop	r14
    1946:	df 90       	pop	r13
    1948:	cf 90       	pop	r12
    194a:	bf 90       	pop	r11
    194c:	af 90       	pop	r10
    194e:	9f 90       	pop	r9
    1950:	8f 90       	pop	r8
    1952:	7f 90       	pop	r7
    1954:	6f 90       	pop	r6
    1956:	5f 90       	pop	r5
    1958:	4f 90       	pop	r4
    195a:	3f 90       	pop	r3
    195c:	2f 90       	pop	r2
    195e:	1f 90       	pop	r1
    1960:	0f 90       	pop	r0
    1962:	ff 91       	pop	r31
    1964:	f0 93 a2 00 	sts	0x00A2, r31	; 0x8000a2 <__TEXT_REGION_LENGTH__+0x7000a2>
    1968:	ff 91       	pop	r31
    196a:	ff bf       	out	0x3f, r31	; 63
    196c:	ff 91       	pop	r31
    196e:	08 95       	ret
    1970:	81 e0       	ldi	r24, 0x01	; 1
    1972:	df 91       	pop	r29
    1974:	cf 91       	pop	r28
    1976:	08 95       	ret

00001978 <vPortYield>:
// 
//
void vPortYield( void ) __attribute__ ( ( naked ) );
void vPortYield( void )
{
	portSAVE_CONTEXT();
    1978:	ff 93       	push	r31
    197a:	ff b7       	in	r31, 0x3f	; 63
    197c:	ff 93       	push	r31
    197e:	f0 91 a2 00 	lds	r31, 0x00A2	; 0x8000a2 <__TEXT_REGION_LENGTH__+0x7000a2>
    1982:	ff 93       	push	r31
    1984:	f8 7f       	andi	r31, 0xF8	; 248
    1986:	f0 93 a2 00 	sts	0x00A2, r31	; 0x8000a2 <__TEXT_REGION_LENGTH__+0x7000a2>
    198a:	0f 92       	push	r0
    198c:	1f 92       	push	r1
    198e:	11 24       	eor	r1, r1
    1990:	2f 92       	push	r2
    1992:	3f 92       	push	r3
    1994:	4f 92       	push	r4
    1996:	5f 92       	push	r5
    1998:	6f 92       	push	r6
    199a:	7f 92       	push	r7
    199c:	8f 92       	push	r8
    199e:	9f 92       	push	r9
    19a0:	af 92       	push	r10
    19a2:	bf 92       	push	r11
    19a4:	cf 92       	push	r12
    19a6:	df 92       	push	r13
    19a8:	ef 92       	push	r14
    19aa:	ff 92       	push	r15
    19ac:	0f 93       	push	r16
    19ae:	1f 93       	push	r17
    19b0:	2f 93       	push	r18
    19b2:	3f 93       	push	r19
    19b4:	4f 93       	push	r20
    19b6:	5f 93       	push	r21
    19b8:	6f 93       	push	r22
    19ba:	7f 93       	push	r23
    19bc:	8f 93       	push	r24
    19be:	9f 93       	push	r25
    19c0:	af 93       	push	r26
    19c2:	bf 93       	push	r27
    19c4:	cf 93       	push	r28
    19c6:	df 93       	push	r29
    19c8:	ef 93       	push	r30
    19ca:	a0 91 50 2c 	lds	r26, 0x2C50	; 0x802c50 <pxCurrentTCB>
    19ce:	b0 91 51 2c 	lds	r27, 0x2C51	; 0x802c51 <pxCurrentTCB+0x1>
    19d2:	0d b6       	in	r0, 0x3d	; 61
    19d4:	0d 92       	st	X+, r0
    19d6:	0e b6       	in	r0, 0x3e	; 62
    19d8:	0d 92       	st	X+, r0
	vTaskSwitchContext();
    19da:	0e 94 02 18 	call	0x3004	; 0x3004 <vTaskSwitchContext>
	portRESTORE_CONTEXT();
    19de:	a0 91 50 2c 	lds	r26, 0x2C50	; 0x802c50 <pxCurrentTCB>
    19e2:	b0 91 51 2c 	lds	r27, 0x2C51	; 0x802c51 <pxCurrentTCB+0x1>
    19e6:	0d 90       	ld	r0, X+
    19e8:	0d be       	out	0x3d, r0	; 61
    19ea:	0d 90       	ld	r0, X+
    19ec:	0e be       	out	0x3e, r0	; 62
    19ee:	ef 91       	pop	r30
    19f0:	df 91       	pop	r29
    19f2:	cf 91       	pop	r28
    19f4:	bf 91       	pop	r27
    19f6:	af 91       	pop	r26
    19f8:	9f 91       	pop	r25
    19fa:	8f 91       	pop	r24
    19fc:	7f 91       	pop	r23
    19fe:	6f 91       	pop	r22
    1a00:	5f 91       	pop	r21
    1a02:	4f 91       	pop	r20
    1a04:	3f 91       	pop	r19
    1a06:	2f 91       	pop	r18
    1a08:	1f 91       	pop	r17
    1a0a:	0f 91       	pop	r16
    1a0c:	ff 90       	pop	r15
    1a0e:	ef 90       	pop	r14
    1a10:	df 90       	pop	r13
    1a12:	cf 90       	pop	r12
    1a14:	bf 90       	pop	r11
    1a16:	af 90       	pop	r10
    1a18:	9f 90       	pop	r9
    1a1a:	8f 90       	pop	r8
    1a1c:	7f 90       	pop	r7
    1a1e:	6f 90       	pop	r6
    1a20:	5f 90       	pop	r5
    1a22:	4f 90       	pop	r4
    1a24:	3f 90       	pop	r3
    1a26:	2f 90       	pop	r2
    1a28:	1f 90       	pop	r1
    1a2a:	0f 90       	pop	r0
    1a2c:	ff 91       	pop	r31
    1a2e:	f0 93 a2 00 	sts	0x00A2, r31	; 0x8000a2 <__TEXT_REGION_LENGTH__+0x7000a2>
    1a32:	ff 91       	pop	r31
    1a34:	ff bf       	out	0x3f, r31	; 63
    1a36:	ff 91       	pop	r31
	asm volatile ( "ret" );
    1a38:	08 95       	ret
	...

00001a3c <portTaskSwitchContext>:
	//-----------------------------------------------------------
	//
	// The task switch is deferred until there is no more nesting.
	//
	void portTaskSwitchContext(signed portBASE_TYPE xSwitchRequired)
	{
    1a3c:	1f 93       	push	r17
    1a3e:	cf 93       	push	r28
    1a40:	df 93       	push	r29
    1a42:	1f 92       	push	r1
    1a44:	cd b7       	in	r28, 0x3d	; 61
    1a46:	de b7       	in	r29, 0x3e	; 62
    1a48:	89 83       	std	Y+1, r24	; 0x01
		intTaskSwitchPending |= xSwitchRequired;					
    1a4a:	80 91 44 31 	lds	r24, 0x3144	; 0x803144 <intTaskSwitchPending>
    1a4e:	98 2f       	mov	r25, r24
    1a50:	89 81       	ldd	r24, Y+1	; 0x01
    1a52:	89 2b       	or	r24, r25
    1a54:	80 93 44 31 	sts	0x3144, r24	; 0x803144 <intTaskSwitchPending>
																
		if(NOT_NESTING() && intTaskSwitchPending)					
    1a58:	80 ea       	ldi	r24, 0xA0	; 160
    1a5a:	90 e0       	ldi	r25, 0x00	; 0
    1a5c:	fc 01       	movw	r30, r24
    1a5e:	80 81       	ld	r24, Z
    1a60:	81 30       	cpi	r24, 0x01	; 1
    1a62:	61 f0       	breq	.+24     	; 0x1a7c <portTaskSwitchContext+0x40>
    1a64:	80 ea       	ldi	r24, 0xA0	; 160
    1a66:	90 e0       	ldi	r25, 0x00	; 0
    1a68:	fc 01       	movw	r30, r24
    1a6a:	80 81       	ld	r24, Z
    1a6c:	82 30       	cpi	r24, 0x02	; 2
    1a6e:	31 f0       	breq	.+12     	; 0x1a7c <portTaskSwitchContext+0x40>
    1a70:	80 ea       	ldi	r24, 0xA0	; 160
    1a72:	90 e0       	ldi	r25, 0x00	; 0
    1a74:	fc 01       	movw	r30, r24
    1a76:	80 81       	ld	r24, Z
    1a78:	84 30       	cpi	r24, 0x04	; 4
    1a7a:	79 f4       	brne	.+30     	; 0x1a9a <portTaskSwitchContext+0x5e>
    1a7c:	80 91 44 31 	lds	r24, 0x3144	; 0x803144 <intTaskSwitchPending>
    1a80:	88 23       	and	r24, r24
    1a82:	59 f0       	breq	.+22     	; 0x1a9a <portTaskSwitchContext+0x5e>
		{															
			register unsigned portBASE_TYPE uxSavedPmicCtrlReg; 				
			extern void vTaskSwitchContext(void);   				
																
			// Critical section used, because vTaskSwitchContext handles FreeRTOS internal data structures.
 			uxSavedPmicCtrlReg = portSET_INTERRUPT_MASK_FROM_ISR(); 
    1a84:	0e 94 94 0a 	call	0x1528	; 0x1528 <_portSetInterruptMaskFromIsr>
    1a88:	18 2f       	mov	r17, r24
			intTaskSwitchPending = 0;								
    1a8a:	10 92 44 31 	sts	0x3144, r1	; 0x803144 <intTaskSwitchPending>
			vTaskSwitchContext();                   				
    1a8e:	0e 94 02 18 	call	0x3004	; 0x3004 <vTaskSwitchContext>
			portCLEAR_INTERRUPT_MASK_FROM_ISR(uxSavedPmicCtrlReg);
    1a92:	80 ea       	ldi	r24, 0xA0	; 160
    1a94:	90 e0       	ldi	r25, 0x00	; 0
    1a96:	fc 01       	movw	r30, r24
    1a98:	12 83       	std	Z+2, r17	; 0x02
		}                                          					
	}
    1a9a:	00 00       	nop
    1a9c:	0f 90       	pop	r0
    1a9e:	df 91       	pop	r29
    1aa0:	cf 91       	pop	r28
    1aa2:	1f 91       	pop	r17
    1aa4:	08 95       	ret

00001aa6 <portTaskIncrementTick>:
	// This routine is only an indirect call to vTaskIncrementTick because
	// a local variable is necessary. Local variables cannot be used directly
	// in a naked isr because of the lack of the frame pointer.
	//
	static void portTaskIncrementTick( void )
	{
    1aa6:	1f 93       	push	r17
    1aa8:	cf 93       	push	r28
    1aaa:	df 93       	push	r29
    1aac:	cd b7       	in	r28, 0x3d	; 61
    1aae:	de b7       	in	r29, 0x3e	; 62
		register unsigned portBASE_TYPE uxSavedPmicCtrlReg;

 		uxSavedPmicCtrlReg = portSET_INTERRUPT_MASK_FROM_ISR();
    1ab0:	0e 94 94 0a 	call	0x1528	; 0x1528 <_portSetInterruptMaskFromIsr>
    1ab4:	18 2f       	mov	r17, r24
		xTaskIncrementTick();
    1ab6:	0e 94 f2 16 	call	0x2de4	; 0x2de4 <xTaskIncrementTick>
 		portCLEAR_INTERRUPT_MASK_FROM_ISR( uxSavedPmicCtrlReg );
    1aba:	80 ea       	ldi	r24, 0xA0	; 160
    1abc:	90 e0       	ldi	r25, 0x00	; 0
    1abe:	fc 01       	movw	r30, r24
    1ac0:	12 83       	std	Z+2, r17	; 0x02
	}
    1ac2:	00 00       	nop
    1ac4:	df 91       	pop	r29
    1ac6:	cf 91       	pop	r28
    1ac8:	1f 91       	pop	r17
    1aca:	08 95       	ret

00001acc <__vector_14>:
	// the context is saved at the start of vPortYieldFromTick().  The tick
	// count is incremented after the context is saved.
	//
	ISR(TCC0_OVF_vect, ISR_NAKED)
	{
		portSTART_ISR();
    1acc:	ff 93       	push	r31
    1ace:	ff b7       	in	r31, 0x3f	; 63
    1ad0:	ff 93       	push	r31
    1ad2:	f0 91 a2 00 	lds	r31, 0x00A2	; 0x8000a2 <__TEXT_REGION_LENGTH__+0x7000a2>
    1ad6:	ff 93       	push	r31
    1ad8:	f8 7f       	andi	r31, 0xF8	; 248
    1ada:	f0 93 a2 00 	sts	0x00A2, r31	; 0x8000a2 <__TEXT_REGION_LENGTH__+0x7000a2>
    1ade:	0f 92       	push	r0
    1ae0:	1f 92       	push	r1
    1ae2:	11 24       	eor	r1, r1
    1ae4:	2f 92       	push	r2
    1ae6:	3f 92       	push	r3
    1ae8:	4f 92       	push	r4
    1aea:	5f 92       	push	r5
    1aec:	6f 92       	push	r6
    1aee:	7f 92       	push	r7
    1af0:	8f 92       	push	r8
    1af2:	9f 92       	push	r9
    1af4:	af 92       	push	r10
    1af6:	bf 92       	push	r11
    1af8:	cf 92       	push	r12
    1afa:	df 92       	push	r13
    1afc:	ef 92       	push	r14
    1afe:	ff 92       	push	r15
    1b00:	0f 93       	push	r16
    1b02:	1f 93       	push	r17
    1b04:	2f 93       	push	r18
    1b06:	3f 93       	push	r19
    1b08:	4f 93       	push	r20
    1b0a:	5f 93       	push	r21
    1b0c:	6f 93       	push	r22
    1b0e:	7f 93       	push	r23
    1b10:	8f 93       	push	r24
    1b12:	9f 93       	push	r25
    1b14:	af 93       	push	r26
    1b16:	bf 93       	push	r27
    1b18:	cf 93       	push	r28
    1b1a:	df 93       	push	r29
    1b1c:	ef 93       	push	r30
    1b1e:	a0 91 50 2c 	lds	r26, 0x2C50	; 0x802c50 <pxCurrentTCB>
    1b22:	b0 91 51 2c 	lds	r27, 0x2C51	; 0x802c51 <pxCurrentTCB+0x1>
    1b26:	0d b6       	in	r0, 0x3d	; 61
    1b28:	0d 92       	st	X+, r0
    1b2a:	0e b6       	in	r0, 0x3e	; 62
    1b2c:	0d 92       	st	X+, r0
		portTaskIncrementTick();
    1b2e:	0e 94 53 0d 	call	0x1aa6	; 0x1aa6 <portTaskIncrementTick>
		//always try a task switch, but only if on kernel interrupt level
		portEND_SWITCHING_ISR(pdTRUE); 
    1b32:	81 e0       	ldi	r24, 0x01	; 1
    1b34:	0e 94 1e 0d 	call	0x1a3c	; 0x1a3c <portTaskSwitchContext>
    1b38:	a0 91 50 2c 	lds	r26, 0x2C50	; 0x802c50 <pxCurrentTCB>
    1b3c:	b0 91 51 2c 	lds	r27, 0x2C51	; 0x802c51 <pxCurrentTCB+0x1>
    1b40:	0d 90       	ld	r0, X+
    1b42:	0d be       	out	0x3d, r0	; 61
    1b44:	0d 90       	ld	r0, X+
    1b46:	0e be       	out	0x3e, r0	; 62
    1b48:	ef 91       	pop	r30
    1b4a:	df 91       	pop	r29
    1b4c:	cf 91       	pop	r28
    1b4e:	bf 91       	pop	r27
    1b50:	af 91       	pop	r26
    1b52:	9f 91       	pop	r25
    1b54:	8f 91       	pop	r24
    1b56:	7f 91       	pop	r23
    1b58:	6f 91       	pop	r22
    1b5a:	5f 91       	pop	r21
    1b5c:	4f 91       	pop	r20
    1b5e:	3f 91       	pop	r19
    1b60:	2f 91       	pop	r18
    1b62:	1f 91       	pop	r17
    1b64:	0f 91       	pop	r16
    1b66:	ff 90       	pop	r15
    1b68:	ef 90       	pop	r14
    1b6a:	df 90       	pop	r13
    1b6c:	cf 90       	pop	r12
    1b6e:	bf 90       	pop	r11
    1b70:	af 90       	pop	r10
    1b72:	9f 90       	pop	r9
    1b74:	8f 90       	pop	r8
    1b76:	7f 90       	pop	r7
    1b78:	6f 90       	pop	r6
    1b7a:	5f 90       	pop	r5
    1b7c:	4f 90       	pop	r4
    1b7e:	3f 90       	pop	r3
    1b80:	2f 90       	pop	r2
    1b82:	1f 90       	pop	r1
    1b84:	0f 90       	pop	r0
    1b86:	ff 91       	pop	r31
    1b88:	f0 93 a2 00 	sts	0x00A2, r31	; 0x8000a2 <__TEXT_REGION_LENGTH__+0x7000a2>
    1b8c:	ff 91       	pop	r31
    1b8e:	ff bf       	out	0x3f, r31	; 63
    1b90:	ff 91       	pop	r31
    1b92:	18 95       	reti
	...

00001b96 <prvSetupTimerInterrupt>:
//-----------------------------------------------------------
//
// Setup of 16bit timer C0 to generate a tick interrupt in case of overflow.
//
static void prvSetupTimerInterrupt( void )
{
    1b96:	cf 93       	push	r28
    1b98:	df 93       	push	r29
    1b9a:	00 d0       	rcall	.+0      	; 0x1b9c <prvSetupTimerInterrupt+0x6>
    1b9c:	1f 92       	push	r1
    1b9e:	cd b7       	in	r28, 0x3d	; 61
    1ba0:	de b7       	in	r29, 0x3e	; 62

	unsigned portLONG ulOvfMatch;

	ulOvfMatch = configCPU_CLOCK_HZ / configTICK_RATE_HZ;
    1ba2:	80 e0       	ldi	r24, 0x00	; 0
    1ba4:	9d e7       	ldi	r25, 0x7D	; 125
    1ba6:	a0 e0       	ldi	r26, 0x00	; 0
    1ba8:	b0 e0       	ldi	r27, 0x00	; 0
    1baa:	89 83       	std	Y+1, r24	; 0x01
    1bac:	9a 83       	std	Y+2, r25	; 0x02
    1bae:	ab 83       	std	Y+3, r26	; 0x03
    1bb0:	bc 83       	std	Y+4, r27	; 0x04

	// We only have 16bits so have to scale to get our required tick rate.
	ulOvfMatch /= portCLOCK_PRESCALER_TIMER0;
    1bb2:	89 81       	ldd	r24, Y+1	; 0x01
    1bb4:	9a 81       	ldd	r25, Y+2	; 0x02
    1bb6:	ab 81       	ldd	r26, Y+3	; 0x03
    1bb8:	bc 81       	ldd	r27, Y+4	; 0x04
    1bba:	68 94       	set
    1bbc:	15 f8       	bld	r1, 5
    1bbe:	b6 95       	lsr	r27
    1bc0:	a7 95       	ror	r26
    1bc2:	97 95       	ror	r25
    1bc4:	87 95       	ror	r24
    1bc6:	16 94       	lsr	r1
    1bc8:	d1 f7       	brne	.-12     	; 0x1bbe <prvSetupTimerInterrupt+0x28>
    1bca:	89 83       	std	Y+1, r24	; 0x01
    1bcc:	9a 83       	std	Y+2, r25	; 0x02
    1bce:	ab 83       	std	Y+3, r26	; 0x03
    1bd0:	bc 83       	std	Y+4, r27	; 0x04

	// Adjust for correct value. (because overflow clear if CNT > PER)
	ulOvfMatch -= ( unsigned portLONG ) 1;
    1bd2:	89 81       	ldd	r24, Y+1	; 0x01
    1bd4:	9a 81       	ldd	r25, Y+2	; 0x02
    1bd6:	ab 81       	ldd	r26, Y+3	; 0x03
    1bd8:	bc 81       	ldd	r27, Y+4	; 0x04
    1bda:	01 97       	sbiw	r24, 0x01	; 1
    1bdc:	a1 09       	sbc	r26, r1
    1bde:	b1 09       	sbc	r27, r1
    1be0:	89 83       	std	Y+1, r24	; 0x01
    1be2:	9a 83       	std	Y+2, r25	; 0x02
    1be4:	ab 83       	std	Y+3, r26	; 0x03
    1be6:	bc 83       	std	Y+4, r27	; 0x04

	// Setup overflow value
	TC_SetPeriod( &TCC0, ulOvfMatch);
    1be8:	80 e0       	ldi	r24, 0x00	; 0
    1bea:	98 e0       	ldi	r25, 0x08	; 8
    1bec:	29 81       	ldd	r18, Y+1	; 0x01
    1bee:	3a 81       	ldd	r19, Y+2	; 0x02
    1bf0:	fc 01       	movw	r30, r24
    1bf2:	26 a3       	std	Z+38, r18	; 0x26
    1bf4:	37 a3       	std	Z+39, r19	; 0x27
		
	// Setup clock source and compare match behaviour.
	TC0_ConfigClockSource( &TCC0, TC_CLKSEL_DIV64_gc);
    1bf6:	65 e0       	ldi	r22, 0x05	; 5
    1bf8:	80 e0       	ldi	r24, 0x00	; 0
    1bfa:	98 e0       	ldi	r25, 0x08	; 8
    1bfc:	0e 94 f8 04 	call	0x9f0	; 0x9f0 <TC0_ConfigClockSource>

	// Enable the interrupt - this is okay as interrupts are currently globally disabled.
	// The tick interrupt may run in one of the three levels.
#if   configKERNEL_INTERRUPT_PRIORITY == 0
	TC0_SetOverflowIntLevel( &TCC0, TC_OVFINTLVL_LO_gc);	//low interrupt priority
    1c00:	61 e0       	ldi	r22, 0x01	; 1
    1c02:	80 e0       	ldi	r24, 0x00	; 0
    1c04:	98 e0       	ldi	r25, 0x08	; 8
    1c06:	0e 94 30 05 	call	0xa60	; 0xa60 <TC0_SetOverflowIntLevel>
#elif configKERNEL_INTERRUPT_PRIORITY == 1
	TC0_SetOverflowIntLevel( &TCC0, TC_OVFINTLVL_MED_gc);	//medium interrupt priority
#elif configKERNEL_INTERRUPT_PRIORITY == 2
	TC0_SetOverflowIntLevel( &TCC0, TC_OVFINTLVL_HI_gc);	//high interrupt priority
#endif
}
    1c0a:	00 00       	nop
    1c0c:	24 96       	adiw	r28, 0x04	; 4
    1c0e:	cd bf       	out	0x3d, r28	; 61
    1c10:	de bf       	out	0x3e, r29	; 62
    1c12:	df 91       	pop	r29
    1c14:	cf 91       	pop	r28
    1c16:	08 95       	ret

00001c18 <xQueueGenericReset>:
		{
			xReturn = pdFAIL;
		}

		return xReturn;
	}
    1c18:	cf 93       	push	r28
    1c1a:	df 93       	push	r29
    1c1c:	cd b7       	in	r28, 0x3d	; 61
    1c1e:	de b7       	in	r29, 0x3e	; 62
    1c20:	25 97       	sbiw	r28, 0x05	; 5
    1c22:	cd bf       	out	0x3d, r28	; 61
    1c24:	de bf       	out	0x3e, r29	; 62
    1c26:	8b 83       	std	Y+3, r24	; 0x03
    1c28:	9c 83       	std	Y+4, r25	; 0x04
    1c2a:	6d 83       	std	Y+5, r22	; 0x05
    1c2c:	8b 81       	ldd	r24, Y+3	; 0x03
    1c2e:	9c 81       	ldd	r25, Y+4	; 0x04
    1c30:	89 83       	std	Y+1, r24	; 0x01
    1c32:	9a 83       	std	Y+2, r25	; 0x02
    1c34:	f0 91 a2 00 	lds	r31, 0x00A2	; 0x8000a2 <__TEXT_REGION_LENGTH__+0x7000a2>
    1c38:	ff 93       	push	r31
    1c3a:	f8 7f       	andi	r31, 0xF8	; 248
    1c3c:	f0 93 a2 00 	sts	0x00A2, r31	; 0x8000a2 <__TEXT_REGION_LENGTH__+0x7000a2>
    1c40:	89 81       	ldd	r24, Y+1	; 0x01
    1c42:	9a 81       	ldd	r25, Y+2	; 0x02
    1c44:	fc 01       	movw	r30, r24
    1c46:	80 81       	ld	r24, Z
    1c48:	91 81       	ldd	r25, Z+1	; 0x01
    1c4a:	29 81       	ldd	r18, Y+1	; 0x01
    1c4c:	3a 81       	ldd	r19, Y+2	; 0x02
    1c4e:	f9 01       	movw	r30, r18
    1c50:	27 8d       	ldd	r18, Z+31	; 0x1f
    1c52:	42 2f       	mov	r20, r18
    1c54:	50 e0       	ldi	r21, 0x00	; 0
    1c56:	29 81       	ldd	r18, Y+1	; 0x01
    1c58:	3a 81       	ldd	r19, Y+2	; 0x02
    1c5a:	f9 01       	movw	r30, r18
    1c5c:	20 a1       	ldd	r18, Z+32	; 0x20
    1c5e:	22 2f       	mov	r18, r18
    1c60:	30 e0       	ldi	r19, 0x00	; 0
    1c62:	42 9f       	mul	r20, r18
    1c64:	b0 01       	movw	r22, r0
    1c66:	43 9f       	mul	r20, r19
    1c68:	70 0d       	add	r23, r0
    1c6a:	52 9f       	mul	r21, r18
    1c6c:	70 0d       	add	r23, r0
    1c6e:	11 24       	eor	r1, r1
    1c70:	9b 01       	movw	r18, r22
    1c72:	28 0f       	add	r18, r24
    1c74:	39 1f       	adc	r19, r25
    1c76:	89 81       	ldd	r24, Y+1	; 0x01
    1c78:	9a 81       	ldd	r25, Y+2	; 0x02
    1c7a:	fc 01       	movw	r30, r24
    1c7c:	22 83       	std	Z+2, r18	; 0x02
    1c7e:	33 83       	std	Z+3, r19	; 0x03
    1c80:	89 81       	ldd	r24, Y+1	; 0x01
    1c82:	9a 81       	ldd	r25, Y+2	; 0x02
    1c84:	fc 01       	movw	r30, r24
    1c86:	16 8e       	std	Z+30, r1	; 0x1e
    1c88:	89 81       	ldd	r24, Y+1	; 0x01
    1c8a:	9a 81       	ldd	r25, Y+2	; 0x02
    1c8c:	fc 01       	movw	r30, r24
    1c8e:	20 81       	ld	r18, Z
    1c90:	31 81       	ldd	r19, Z+1	; 0x01
    1c92:	89 81       	ldd	r24, Y+1	; 0x01
    1c94:	9a 81       	ldd	r25, Y+2	; 0x02
    1c96:	fc 01       	movw	r30, r24
    1c98:	24 83       	std	Z+4, r18	; 0x04
    1c9a:	35 83       	std	Z+5, r19	; 0x05
    1c9c:	89 81       	ldd	r24, Y+1	; 0x01
    1c9e:	9a 81       	ldd	r25, Y+2	; 0x02
    1ca0:	fc 01       	movw	r30, r24
    1ca2:	80 81       	ld	r24, Z
    1ca4:	91 81       	ldd	r25, Z+1	; 0x01
    1ca6:	29 81       	ldd	r18, Y+1	; 0x01
    1ca8:	3a 81       	ldd	r19, Y+2	; 0x02
    1caa:	f9 01       	movw	r30, r18
    1cac:	27 8d       	ldd	r18, Z+31	; 0x1f
    1cae:	22 2f       	mov	r18, r18
    1cb0:	30 e0       	ldi	r19, 0x00	; 0
    1cb2:	a9 01       	movw	r20, r18
    1cb4:	41 50       	subi	r20, 0x01	; 1
    1cb6:	51 09       	sbc	r21, r1
    1cb8:	29 81       	ldd	r18, Y+1	; 0x01
    1cba:	3a 81       	ldd	r19, Y+2	; 0x02
    1cbc:	f9 01       	movw	r30, r18
    1cbe:	20 a1       	ldd	r18, Z+32	; 0x20
    1cc0:	22 2f       	mov	r18, r18
    1cc2:	30 e0       	ldi	r19, 0x00	; 0
    1cc4:	42 9f       	mul	r20, r18
    1cc6:	b0 01       	movw	r22, r0
    1cc8:	43 9f       	mul	r20, r19
    1cca:	70 0d       	add	r23, r0
    1ccc:	52 9f       	mul	r21, r18
    1cce:	70 0d       	add	r23, r0
    1cd0:	11 24       	eor	r1, r1
    1cd2:	9b 01       	movw	r18, r22
    1cd4:	28 0f       	add	r18, r24
    1cd6:	39 1f       	adc	r19, r25
    1cd8:	89 81       	ldd	r24, Y+1	; 0x01
    1cda:	9a 81       	ldd	r25, Y+2	; 0x02
    1cdc:	fc 01       	movw	r30, r24
    1cde:	26 83       	std	Z+6, r18	; 0x06
    1ce0:	37 83       	std	Z+7, r19	; 0x07
    1ce2:	89 81       	ldd	r24, Y+1	; 0x01
    1ce4:	9a 81       	ldd	r25, Y+2	; 0x02
    1ce6:	2f ef       	ldi	r18, 0xFF	; 255
    1ce8:	fc 01       	movw	r30, r24
    1cea:	21 a3       	std	Z+33, r18	; 0x21
    1cec:	89 81       	ldd	r24, Y+1	; 0x01
    1cee:	9a 81       	ldd	r25, Y+2	; 0x02
    1cf0:	2f ef       	ldi	r18, 0xFF	; 255
    1cf2:	fc 01       	movw	r30, r24
    1cf4:	22 a3       	std	Z+34, r18	; 0x22
    1cf6:	8d 81       	ldd	r24, Y+5	; 0x05
    1cf8:	88 23       	and	r24, r24
    1cfa:	81 f4       	brne	.+32     	; 0x1d1c <xQueueGenericReset+0x104>
    1cfc:	89 81       	ldd	r24, Y+1	; 0x01
    1cfe:	9a 81       	ldd	r25, Y+2	; 0x02
    1d00:	fc 01       	movw	r30, r24
    1d02:	80 85       	ldd	r24, Z+8	; 0x08
    1d04:	88 23       	and	r24, r24
    1d06:	a1 f0       	breq	.+40     	; 0x1d30 <xQueueGenericReset+0x118>
    1d08:	89 81       	ldd	r24, Y+1	; 0x01
    1d0a:	9a 81       	ldd	r25, Y+2	; 0x02
    1d0c:	08 96       	adiw	r24, 0x08	; 8
    1d0e:	0e 94 6d 19 	call	0x32da	; 0x32da <xTaskRemoveFromEventList>
    1d12:	88 23       	and	r24, r24
    1d14:	69 f0       	breq	.+26     	; 0x1d30 <xQueueGenericReset+0x118>
    1d16:	0e 94 bc 0c 	call	0x1978	; 0x1978 <vPortYield>
    1d1a:	0a c0       	rjmp	.+20     	; 0x1d30 <xQueueGenericReset+0x118>
    1d1c:	89 81       	ldd	r24, Y+1	; 0x01
    1d1e:	9a 81       	ldd	r25, Y+2	; 0x02
    1d20:	08 96       	adiw	r24, 0x08	; 8
    1d22:	0e 94 25 09 	call	0x124a	; 0x124a <vListInitialise>
    1d26:	89 81       	ldd	r24, Y+1	; 0x01
    1d28:	9a 81       	ldd	r25, Y+2	; 0x02
    1d2a:	43 96       	adiw	r24, 0x13	; 19
    1d2c:	0e 94 25 09 	call	0x124a	; 0x124a <vListInitialise>
    1d30:	ff 91       	pop	r31
    1d32:	f0 93 a2 00 	sts	0x00A2, r31	; 0x8000a2 <__TEXT_REGION_LENGTH__+0x7000a2>
    1d36:	81 e0       	ldi	r24, 0x01	; 1
    1d38:	25 96       	adiw	r28, 0x05	; 5
    1d3a:	cd bf       	out	0x3d, r28	; 61
    1d3c:	de bf       	out	0x3e, r29	; 62
    1d3e:	df 91       	pop	r29
    1d40:	cf 91       	pop	r28
    1d42:	08 95       	ret

00001d44 <xQueueGenericCreate>:
    1d44:	0f 93       	push	r16
    1d46:	1f 93       	push	r17
    1d48:	cf 93       	push	r28
    1d4a:	df 93       	push	r29
    1d4c:	cd b7       	in	r28, 0x3d	; 61
    1d4e:	de b7       	in	r29, 0x3e	; 62
    1d50:	29 97       	sbiw	r28, 0x09	; 9
    1d52:	cd bf       	out	0x3d, r28	; 61
    1d54:	de bf       	out	0x3e, r29	; 62
    1d56:	8f 83       	std	Y+7, r24	; 0x07
    1d58:	68 87       	std	Y+8, r22	; 0x08
    1d5a:	49 87       	std	Y+9, r20	; 0x09
    1d5c:	88 85       	ldd	r24, Y+8	; 0x08
    1d5e:	88 23       	and	r24, r24
    1d60:	19 f4       	brne	.+6      	; 0x1d68 <xQueueGenericCreate+0x24>
    1d62:	19 82       	std	Y+1, r1	; 0x01
    1d64:	1a 82       	std	Y+2, r1	; 0x02
    1d66:	0f c0       	rjmp	.+30     	; 0x1d86 <xQueueGenericCreate+0x42>
    1d68:	8f 81       	ldd	r24, Y+7	; 0x07
    1d6a:	48 2f       	mov	r20, r24
    1d6c:	50 e0       	ldi	r21, 0x00	; 0
    1d6e:	88 85       	ldd	r24, Y+8	; 0x08
    1d70:	28 2f       	mov	r18, r24
    1d72:	30 e0       	ldi	r19, 0x00	; 0
    1d74:	42 9f       	mul	r20, r18
    1d76:	c0 01       	movw	r24, r0
    1d78:	43 9f       	mul	r20, r19
    1d7a:	90 0d       	add	r25, r0
    1d7c:	52 9f       	mul	r21, r18
    1d7e:	90 0d       	add	r25, r0
    1d80:	11 24       	eor	r1, r1
    1d82:	89 83       	std	Y+1, r24	; 0x01
    1d84:	9a 83       	std	Y+2, r25	; 0x02
    1d86:	89 81       	ldd	r24, Y+1	; 0x01
    1d88:	9a 81       	ldd	r25, Y+2	; 0x02
    1d8a:	85 96       	adiw	r24, 0x25	; 37
    1d8c:	0e 94 d3 08 	call	0x11a6	; 0x11a6 <pvPortMalloc>
    1d90:	8b 83       	std	Y+3, r24	; 0x03
    1d92:	9c 83       	std	Y+4, r25	; 0x04
    1d94:	8b 81       	ldd	r24, Y+3	; 0x03
    1d96:	9c 81       	ldd	r25, Y+4	; 0x04
    1d98:	89 2b       	or	r24, r25
    1d9a:	81 f0       	breq	.+32     	; 0x1dbc <xQueueGenericCreate+0x78>
    1d9c:	8b 81       	ldd	r24, Y+3	; 0x03
    1d9e:	9c 81       	ldd	r25, Y+4	; 0x04
    1da0:	85 96       	adiw	r24, 0x25	; 37
    1da2:	8d 83       	std	Y+5, r24	; 0x05
    1da4:	9e 83       	std	Y+6, r25	; 0x06
    1da6:	2b 81       	ldd	r18, Y+3	; 0x03
    1da8:	3c 81       	ldd	r19, Y+4	; 0x04
    1daa:	8d 81       	ldd	r24, Y+5	; 0x05
    1dac:	9e 81       	ldd	r25, Y+6	; 0x06
    1dae:	89 01       	movw	r16, r18
    1db0:	29 85       	ldd	r18, Y+9	; 0x09
    1db2:	ac 01       	movw	r20, r24
    1db4:	68 85       	ldd	r22, Y+8	; 0x08
    1db6:	8f 81       	ldd	r24, Y+7	; 0x07
    1db8:	0e 94 e8 0e 	call	0x1dd0	; 0x1dd0 <prvInitialiseNewQueue>
    1dbc:	8b 81       	ldd	r24, Y+3	; 0x03
    1dbe:	9c 81       	ldd	r25, Y+4	; 0x04
    1dc0:	29 96       	adiw	r28, 0x09	; 9
    1dc2:	cd bf       	out	0x3d, r28	; 61
    1dc4:	de bf       	out	0x3e, r29	; 62
    1dc6:	df 91       	pop	r29
    1dc8:	cf 91       	pop	r28
    1dca:	1f 91       	pop	r17
    1dcc:	0f 91       	pop	r16
    1dce:	08 95       	ret

00001dd0 <prvInitialiseNewQueue>:
    1dd0:	0f 93       	push	r16
    1dd2:	1f 93       	push	r17
    1dd4:	cf 93       	push	r28
    1dd6:	df 93       	push	r29
    1dd8:	cd b7       	in	r28, 0x3d	; 61
    1dda:	de b7       	in	r29, 0x3e	; 62
    1ddc:	27 97       	sbiw	r28, 0x07	; 7
    1dde:	cd bf       	out	0x3d, r28	; 61
    1de0:	de bf       	out	0x3e, r29	; 62
    1de2:	89 83       	std	Y+1, r24	; 0x01
    1de4:	6a 83       	std	Y+2, r22	; 0x02
    1de6:	4b 83       	std	Y+3, r20	; 0x03
    1de8:	5c 83       	std	Y+4, r21	; 0x04
    1dea:	2d 83       	std	Y+5, r18	; 0x05
    1dec:	0e 83       	std	Y+6, r16	; 0x06
    1dee:	1f 83       	std	Y+7, r17	; 0x07
    1df0:	8a 81       	ldd	r24, Y+2	; 0x02
    1df2:	88 23       	and	r24, r24
    1df4:	41 f4       	brne	.+16     	; 0x1e06 <prvInitialiseNewQueue+0x36>
    1df6:	8e 81       	ldd	r24, Y+6	; 0x06
    1df8:	9f 81       	ldd	r25, Y+7	; 0x07
    1dfa:	2e 81       	ldd	r18, Y+6	; 0x06
    1dfc:	3f 81       	ldd	r19, Y+7	; 0x07
    1dfe:	fc 01       	movw	r30, r24
    1e00:	20 83       	st	Z, r18
    1e02:	31 83       	std	Z+1, r19	; 0x01
    1e04:	07 c0       	rjmp	.+14     	; 0x1e14 <prvInitialiseNewQueue+0x44>
    1e06:	8e 81       	ldd	r24, Y+6	; 0x06
    1e08:	9f 81       	ldd	r25, Y+7	; 0x07
    1e0a:	2b 81       	ldd	r18, Y+3	; 0x03
    1e0c:	3c 81       	ldd	r19, Y+4	; 0x04
    1e0e:	fc 01       	movw	r30, r24
    1e10:	20 83       	st	Z, r18
    1e12:	31 83       	std	Z+1, r19	; 0x01
    1e14:	8e 81       	ldd	r24, Y+6	; 0x06
    1e16:	9f 81       	ldd	r25, Y+7	; 0x07
    1e18:	29 81       	ldd	r18, Y+1	; 0x01
    1e1a:	fc 01       	movw	r30, r24
    1e1c:	27 8f       	std	Z+31, r18	; 0x1f
    1e1e:	8e 81       	ldd	r24, Y+6	; 0x06
    1e20:	9f 81       	ldd	r25, Y+7	; 0x07
    1e22:	2a 81       	ldd	r18, Y+2	; 0x02
    1e24:	fc 01       	movw	r30, r24
    1e26:	20 a3       	std	Z+32, r18	; 0x20
    1e28:	8e 81       	ldd	r24, Y+6	; 0x06
    1e2a:	9f 81       	ldd	r25, Y+7	; 0x07
    1e2c:	61 e0       	ldi	r22, 0x01	; 1
    1e2e:	0e 94 0c 0e 	call	0x1c18	; 0x1c18 <xQueueGenericReset>
    1e32:	8e 81       	ldd	r24, Y+6	; 0x06
    1e34:	9f 81       	ldd	r25, Y+7	; 0x07
    1e36:	2d 81       	ldd	r18, Y+5	; 0x05
    1e38:	fc 01       	movw	r30, r24
    1e3a:	24 a3       	std	Z+36, r18	; 0x24
    1e3c:	00 00       	nop
    1e3e:	27 96       	adiw	r28, 0x07	; 7
    1e40:	cd bf       	out	0x3d, r28	; 61
    1e42:	de bf       	out	0x3e, r29	; 62
    1e44:	df 91       	pop	r29
    1e46:	cf 91       	pop	r28
    1e48:	1f 91       	pop	r17
    1e4a:	0f 91       	pop	r16
    1e4c:	08 95       	ret

00001e4e <xQueueGenericSend>:
    1e4e:	0f 93       	push	r16
    1e50:	cf 93       	push	r28
    1e52:	df 93       	push	r29
    1e54:	cd b7       	in	r28, 0x3d	; 61
    1e56:	de b7       	in	r29, 0x3e	; 62
    1e58:	62 97       	sbiw	r28, 0x12	; 18
    1e5a:	cd bf       	out	0x3d, r28	; 61
    1e5c:	de bf       	out	0x3e, r29	; 62
    1e5e:	8a 87       	std	Y+10, r24	; 0x0a
    1e60:	9b 87       	std	Y+11, r25	; 0x0b
    1e62:	6c 87       	std	Y+12, r22	; 0x0c
    1e64:	7d 87       	std	Y+13, r23	; 0x0d
    1e66:	2e 87       	std	Y+14, r18	; 0x0e
    1e68:	3f 87       	std	Y+15, r19	; 0x0f
    1e6a:	48 8b       	std	Y+16, r20	; 0x10
    1e6c:	59 8b       	std	Y+17, r21	; 0x11
    1e6e:	0a 8b       	std	Y+18, r16	; 0x12
    1e70:	19 82       	std	Y+1, r1	; 0x01
    1e72:	8a 85       	ldd	r24, Y+10	; 0x0a
    1e74:	9b 85       	ldd	r25, Y+11	; 0x0b
    1e76:	8a 83       	std	Y+2, r24	; 0x02
    1e78:	9b 83       	std	Y+3, r25	; 0x03
    1e7a:	f0 91 a2 00 	lds	r31, 0x00A2	; 0x8000a2 <__TEXT_REGION_LENGTH__+0x7000a2>
    1e7e:	ff 93       	push	r31
    1e80:	f8 7f       	andi	r31, 0xF8	; 248
    1e82:	f0 93 a2 00 	sts	0x00A2, r31	; 0x8000a2 <__TEXT_REGION_LENGTH__+0x7000a2>
    1e86:	8a 81       	ldd	r24, Y+2	; 0x02
    1e88:	9b 81       	ldd	r25, Y+3	; 0x03
    1e8a:	fc 01       	movw	r30, r24
    1e8c:	26 8d       	ldd	r18, Z+30	; 0x1e
    1e8e:	8a 81       	ldd	r24, Y+2	; 0x02
    1e90:	9b 81       	ldd	r25, Y+3	; 0x03
    1e92:	fc 01       	movw	r30, r24
    1e94:	87 8d       	ldd	r24, Z+31	; 0x1f
    1e96:	28 17       	cp	r18, r24
    1e98:	18 f0       	brcs	.+6      	; 0x1ea0 <xQueueGenericSend+0x52>
    1e9a:	8a 89       	ldd	r24, Y+18	; 0x12
    1e9c:	82 30       	cpi	r24, 0x02	; 2
    1e9e:	19 f5       	brne	.+70     	; 0x1ee6 <xQueueGenericSend+0x98>
    1ea0:	2c 85       	ldd	r18, Y+12	; 0x0c
    1ea2:	3d 85       	ldd	r19, Y+13	; 0x0d
    1ea4:	8a 81       	ldd	r24, Y+2	; 0x02
    1ea6:	9b 81       	ldd	r25, Y+3	; 0x03
    1ea8:	4a 89       	ldd	r20, Y+18	; 0x12
    1eaa:	b9 01       	movw	r22, r18
    1eac:	0e 94 dc 11 	call	0x23b8	; 0x23b8 <prvCopyDataToQueue>
    1eb0:	8c 83       	std	Y+4, r24	; 0x04
    1eb2:	8a 81       	ldd	r24, Y+2	; 0x02
    1eb4:	9b 81       	ldd	r25, Y+3	; 0x03
    1eb6:	fc 01       	movw	r30, r24
    1eb8:	83 89       	ldd	r24, Z+19	; 0x13
    1eba:	88 23       	and	r24, r24
    1ebc:	51 f0       	breq	.+20     	; 0x1ed2 <xQueueGenericSend+0x84>
    1ebe:	8a 81       	ldd	r24, Y+2	; 0x02
    1ec0:	9b 81       	ldd	r25, Y+3	; 0x03
    1ec2:	43 96       	adiw	r24, 0x13	; 19
    1ec4:	0e 94 6d 19 	call	0x32da	; 0x32da <xTaskRemoveFromEventList>
    1ec8:	88 23       	and	r24, r24
    1eca:	41 f0       	breq	.+16     	; 0x1edc <xQueueGenericSend+0x8e>
    1ecc:	0e 94 bc 0c 	call	0x1978	; 0x1978 <vPortYield>
    1ed0:	05 c0       	rjmp	.+10     	; 0x1edc <xQueueGenericSend+0x8e>
    1ed2:	8c 81       	ldd	r24, Y+4	; 0x04
    1ed4:	88 23       	and	r24, r24
    1ed6:	11 f0       	breq	.+4      	; 0x1edc <xQueueGenericSend+0x8e>
    1ed8:	0e 94 bc 0c 	call	0x1978	; 0x1978 <vPortYield>
    1edc:	ff 91       	pop	r31
    1ede:	f0 93 a2 00 	sts	0x00A2, r31	; 0x8000a2 <__TEXT_REGION_LENGTH__+0x7000a2>
    1ee2:	81 e0       	ldi	r24, 0x01	; 1
    1ee4:	6f c0       	rjmp	.+222    	; 0x1fc4 <xQueueGenericSend+0x176>
    1ee6:	8e 85       	ldd	r24, Y+14	; 0x0e
    1ee8:	9f 85       	ldd	r25, Y+15	; 0x0f
    1eea:	a8 89       	ldd	r26, Y+16	; 0x10
    1eec:	b9 89       	ldd	r27, Y+17	; 0x11
    1eee:	89 2b       	or	r24, r25
    1ef0:	8a 2b       	or	r24, r26
    1ef2:	8b 2b       	or	r24, r27
    1ef4:	29 f4       	brne	.+10     	; 0x1f00 <xQueueGenericSend+0xb2>
    1ef6:	ff 91       	pop	r31
    1ef8:	f0 93 a2 00 	sts	0x00A2, r31	; 0x8000a2 <__TEXT_REGION_LENGTH__+0x7000a2>
    1efc:	80 e0       	ldi	r24, 0x00	; 0
    1efe:	62 c0       	rjmp	.+196    	; 0x1fc4 <xQueueGenericSend+0x176>
    1f00:	89 81       	ldd	r24, Y+1	; 0x01
    1f02:	88 23       	and	r24, r24
    1f04:	31 f4       	brne	.+12     	; 0x1f12 <xQueueGenericSend+0xc4>
    1f06:	ce 01       	movw	r24, r28
    1f08:	05 96       	adiw	r24, 0x05	; 5
    1f0a:	0e 94 38 1a 	call	0x3470	; 0x3470 <vTaskInternalSetTimeOutState>
    1f0e:	81 e0       	ldi	r24, 0x01	; 1
    1f10:	89 83       	std	Y+1, r24	; 0x01
    1f12:	ff 91       	pop	r31
    1f14:	f0 93 a2 00 	sts	0x00A2, r31	; 0x8000a2 <__TEXT_REGION_LENGTH__+0x7000a2>
    1f18:	0e 94 27 16 	call	0x2c4e	; 0x2c4e <vTaskSuspendAll>
    1f1c:	f0 91 a2 00 	lds	r31, 0x00A2	; 0x8000a2 <__TEXT_REGION_LENGTH__+0x7000a2>
    1f20:	ff 93       	push	r31
    1f22:	f8 7f       	andi	r31, 0xF8	; 248
    1f24:	f0 93 a2 00 	sts	0x00A2, r31	; 0x8000a2 <__TEXT_REGION_LENGTH__+0x7000a2>
    1f28:	8a 81       	ldd	r24, Y+2	; 0x02
    1f2a:	9b 81       	ldd	r25, Y+3	; 0x03
    1f2c:	fc 01       	movw	r30, r24
    1f2e:	81 a1       	ldd	r24, Z+33	; 0x21
    1f30:	8f 3f       	cpi	r24, 0xFF	; 255
    1f32:	21 f4       	brne	.+8      	; 0x1f3c <xQueueGenericSend+0xee>
    1f34:	8a 81       	ldd	r24, Y+2	; 0x02
    1f36:	9b 81       	ldd	r25, Y+3	; 0x03
    1f38:	fc 01       	movw	r30, r24
    1f3a:	11 a2       	std	Z+33, r1	; 0x21
    1f3c:	8a 81       	ldd	r24, Y+2	; 0x02
    1f3e:	9b 81       	ldd	r25, Y+3	; 0x03
    1f40:	fc 01       	movw	r30, r24
    1f42:	82 a1       	ldd	r24, Z+34	; 0x22
    1f44:	8f 3f       	cpi	r24, 0xFF	; 255
    1f46:	21 f4       	brne	.+8      	; 0x1f50 <xQueueGenericSend+0x102>
    1f48:	8a 81       	ldd	r24, Y+2	; 0x02
    1f4a:	9b 81       	ldd	r25, Y+3	; 0x03
    1f4c:	fc 01       	movw	r30, r24
    1f4e:	12 a2       	std	Z+34, r1	; 0x22
    1f50:	ff 91       	pop	r31
    1f52:	f0 93 a2 00 	sts	0x00A2, r31	; 0x8000a2 <__TEXT_REGION_LENGTH__+0x7000a2>
    1f56:	9e 01       	movw	r18, r28
    1f58:	22 5f       	subi	r18, 0xF2	; 242
    1f5a:	3f 4f       	sbci	r19, 0xFF	; 255
    1f5c:	ce 01       	movw	r24, r28
    1f5e:	05 96       	adiw	r24, 0x05	; 5
    1f60:	b9 01       	movw	r22, r18
    1f62:	0e 94 5b 1a 	call	0x34b6	; 0x34b6 <xTaskCheckForTimeOut>
    1f66:	88 23       	and	r24, r24
    1f68:	31 f5       	brne	.+76     	; 0x1fb6 <xQueueGenericSend+0x168>
    1f6a:	8a 81       	ldd	r24, Y+2	; 0x02
    1f6c:	9b 81       	ldd	r25, Y+3	; 0x03
    1f6e:	0e 94 67 13 	call	0x26ce	; 0x26ce <prvIsQueueFull>
    1f72:	88 23       	and	r24, r24
    1f74:	c9 f0       	breq	.+50     	; 0x1fa8 <xQueueGenericSend+0x15a>
    1f76:	8e 85       	ldd	r24, Y+14	; 0x0e
    1f78:	9f 85       	ldd	r25, Y+15	; 0x0f
    1f7a:	a8 89       	ldd	r26, Y+16	; 0x10
    1f7c:	b9 89       	ldd	r27, Y+17	; 0x11
    1f7e:	2a 81       	ldd	r18, Y+2	; 0x02
    1f80:	3b 81       	ldd	r19, Y+3	; 0x03
    1f82:	28 5f       	subi	r18, 0xF8	; 248
    1f84:	3f 4f       	sbci	r19, 0xFF	; 255
    1f86:	ac 01       	movw	r20, r24
    1f88:	bd 01       	movw	r22, r26
    1f8a:	c9 01       	movw	r24, r18
    1f8c:	0e 94 d2 18 	call	0x31a4	; 0x31a4 <vTaskPlaceOnEventList>
    1f90:	8a 81       	ldd	r24, Y+2	; 0x02
    1f92:	9b 81       	ldd	r25, Y+3	; 0x03
    1f94:	0e 94 e1 12 	call	0x25c2	; 0x25c2 <prvUnlockQueue>
    1f98:	0e 94 34 16 	call	0x2c68	; 0x2c68 <xTaskResumeAll>
    1f9c:	88 23       	and	r24, r24
    1f9e:	09 f0       	breq	.+2      	; 0x1fa2 <xQueueGenericSend+0x154>
    1fa0:	6c cf       	rjmp	.-296    	; 0x1e7a <xQueueGenericSend+0x2c>
    1fa2:	0e 94 bc 0c 	call	0x1978	; 0x1978 <vPortYield>
    1fa6:	69 cf       	rjmp	.-302    	; 0x1e7a <xQueueGenericSend+0x2c>
    1fa8:	8a 81       	ldd	r24, Y+2	; 0x02
    1faa:	9b 81       	ldd	r25, Y+3	; 0x03
    1fac:	0e 94 e1 12 	call	0x25c2	; 0x25c2 <prvUnlockQueue>
    1fb0:	0e 94 34 16 	call	0x2c68	; 0x2c68 <xTaskResumeAll>
    1fb4:	62 cf       	rjmp	.-316    	; 0x1e7a <xQueueGenericSend+0x2c>
    1fb6:	8a 81       	ldd	r24, Y+2	; 0x02
    1fb8:	9b 81       	ldd	r25, Y+3	; 0x03
    1fba:	0e 94 e1 12 	call	0x25c2	; 0x25c2 <prvUnlockQueue>
    1fbe:	0e 94 34 16 	call	0x2c68	; 0x2c68 <xTaskResumeAll>
    1fc2:	80 e0       	ldi	r24, 0x00	; 0
    1fc4:	62 96       	adiw	r28, 0x12	; 18
    1fc6:	cd bf       	out	0x3d, r28	; 61
    1fc8:	de bf       	out	0x3e, r29	; 62
    1fca:	df 91       	pop	r29
    1fcc:	cf 91       	pop	r28
    1fce:	0f 91       	pop	r16
    1fd0:	08 95       	ret

00001fd2 <xQueueGenericSendFromISR>:
    1fd2:	cf 93       	push	r28
    1fd4:	df 93       	push	r29
    1fd6:	cd b7       	in	r28, 0x3d	; 61
    1fd8:	de b7       	in	r29, 0x3e	; 62
    1fda:	2c 97       	sbiw	r28, 0x0c	; 12
    1fdc:	cd bf       	out	0x3d, r28	; 61
    1fde:	de bf       	out	0x3e, r29	; 62
    1fe0:	8e 83       	std	Y+6, r24	; 0x06
    1fe2:	9f 83       	std	Y+7, r25	; 0x07
    1fe4:	68 87       	std	Y+8, r22	; 0x08
    1fe6:	79 87       	std	Y+9, r23	; 0x09
    1fe8:	4a 87       	std	Y+10, r20	; 0x0a
    1fea:	5b 87       	std	Y+11, r21	; 0x0b
    1fec:	2c 87       	std	Y+12, r18	; 0x0c
    1fee:	8e 81       	ldd	r24, Y+6	; 0x06
    1ff0:	9f 81       	ldd	r25, Y+7	; 0x07
    1ff2:	8a 83       	std	Y+2, r24	; 0x02
    1ff4:	9b 83       	std	Y+3, r25	; 0x03
    1ff6:	0e 94 94 0a 	call	0x1528	; 0x1528 <_portSetInterruptMaskFromIsr>
    1ffa:	8c 83       	std	Y+4, r24	; 0x04
    1ffc:	8a 81       	ldd	r24, Y+2	; 0x02
    1ffe:	9b 81       	ldd	r25, Y+3	; 0x03
    2000:	fc 01       	movw	r30, r24
    2002:	26 8d       	ldd	r18, Z+30	; 0x1e
    2004:	8a 81       	ldd	r24, Y+2	; 0x02
    2006:	9b 81       	ldd	r25, Y+3	; 0x03
    2008:	fc 01       	movw	r30, r24
    200a:	87 8d       	ldd	r24, Z+31	; 0x1f
    200c:	28 17       	cp	r18, r24
    200e:	18 f0       	brcs	.+6      	; 0x2016 <xQueueGenericSendFromISR+0x44>
    2010:	8c 85       	ldd	r24, Y+12	; 0x0c
    2012:	82 30       	cpi	r24, 0x02	; 2
    2014:	89 f5       	brne	.+98     	; 0x2078 <xQueueGenericSendFromISR+0xa6>
    2016:	8a 81       	ldd	r24, Y+2	; 0x02
    2018:	9b 81       	ldd	r25, Y+3	; 0x03
    201a:	fc 01       	movw	r30, r24
    201c:	82 a1       	ldd	r24, Z+34	; 0x22
    201e:	8d 83       	std	Y+5, r24	; 0x05
    2020:	28 85       	ldd	r18, Y+8	; 0x08
    2022:	39 85       	ldd	r19, Y+9	; 0x09
    2024:	8a 81       	ldd	r24, Y+2	; 0x02
    2026:	9b 81       	ldd	r25, Y+3	; 0x03
    2028:	4c 85       	ldd	r20, Y+12	; 0x0c
    202a:	b9 01       	movw	r22, r18
    202c:	0e 94 dc 11 	call	0x23b8	; 0x23b8 <prvCopyDataToQueue>
    2030:	8d 81       	ldd	r24, Y+5	; 0x05
    2032:	8f 3f       	cpi	r24, 0xFF	; 255
    2034:	b9 f4       	brne	.+46     	; 0x2064 <xQueueGenericSendFromISR+0x92>
    2036:	8a 81       	ldd	r24, Y+2	; 0x02
    2038:	9b 81       	ldd	r25, Y+3	; 0x03
    203a:	fc 01       	movw	r30, r24
    203c:	83 89       	ldd	r24, Z+19	; 0x13
    203e:	88 23       	and	r24, r24
    2040:	c1 f0       	breq	.+48     	; 0x2072 <xQueueGenericSendFromISR+0xa0>
    2042:	8a 81       	ldd	r24, Y+2	; 0x02
    2044:	9b 81       	ldd	r25, Y+3	; 0x03
    2046:	43 96       	adiw	r24, 0x13	; 19
    2048:	0e 94 6d 19 	call	0x32da	; 0x32da <xTaskRemoveFromEventList>
    204c:	88 23       	and	r24, r24
    204e:	89 f0       	breq	.+34     	; 0x2072 <xQueueGenericSendFromISR+0xa0>
    2050:	8a 85       	ldd	r24, Y+10	; 0x0a
    2052:	9b 85       	ldd	r25, Y+11	; 0x0b
    2054:	89 2b       	or	r24, r25
    2056:	69 f0       	breq	.+26     	; 0x2072 <xQueueGenericSendFromISR+0xa0>
    2058:	8a 85       	ldd	r24, Y+10	; 0x0a
    205a:	9b 85       	ldd	r25, Y+11	; 0x0b
    205c:	21 e0       	ldi	r18, 0x01	; 1
    205e:	fc 01       	movw	r30, r24
    2060:	20 83       	st	Z, r18
    2062:	07 c0       	rjmp	.+14     	; 0x2072 <xQueueGenericSendFromISR+0xa0>
    2064:	8d 81       	ldd	r24, Y+5	; 0x05
    2066:	8f 5f       	subi	r24, 0xFF	; 255
    2068:	28 2f       	mov	r18, r24
    206a:	8a 81       	ldd	r24, Y+2	; 0x02
    206c:	9b 81       	ldd	r25, Y+3	; 0x03
    206e:	fc 01       	movw	r30, r24
    2070:	22 a3       	std	Z+34, r18	; 0x22
    2072:	81 e0       	ldi	r24, 0x01	; 1
    2074:	89 83       	std	Y+1, r24	; 0x01
    2076:	01 c0       	rjmp	.+2      	; 0x207a <xQueueGenericSendFromISR+0xa8>
    2078:	19 82       	std	Y+1, r1	; 0x01
    207a:	80 ea       	ldi	r24, 0xA0	; 160
    207c:	90 e0       	ldi	r25, 0x00	; 0
    207e:	2c 81       	ldd	r18, Y+4	; 0x04
    2080:	fc 01       	movw	r30, r24
    2082:	22 83       	std	Z+2, r18	; 0x02
    2084:	89 81       	ldd	r24, Y+1	; 0x01
    2086:	2c 96       	adiw	r28, 0x0c	; 12
    2088:	cd bf       	out	0x3d, r28	; 61
    208a:	de bf       	out	0x3e, r29	; 62
    208c:	df 91       	pop	r29
    208e:	cf 91       	pop	r28
    2090:	08 95       	ret

00002092 <xQueueReceive>:
    2092:	cf 93       	push	r28
    2094:	df 93       	push	r29
    2096:	cd b7       	in	r28, 0x3d	; 61
    2098:	de b7       	in	r29, 0x3e	; 62
    209a:	61 97       	sbiw	r28, 0x11	; 17
    209c:	cd bf       	out	0x3d, r28	; 61
    209e:	de bf       	out	0x3e, r29	; 62
    20a0:	8a 87       	std	Y+10, r24	; 0x0a
    20a2:	9b 87       	std	Y+11, r25	; 0x0b
    20a4:	6c 87       	std	Y+12, r22	; 0x0c
    20a6:	7d 87       	std	Y+13, r23	; 0x0d
    20a8:	2e 87       	std	Y+14, r18	; 0x0e
    20aa:	3f 87       	std	Y+15, r19	; 0x0f
    20ac:	48 8b       	std	Y+16, r20	; 0x10
    20ae:	59 8b       	std	Y+17, r21	; 0x11
    20b0:	19 82       	std	Y+1, r1	; 0x01
    20b2:	8a 85       	ldd	r24, Y+10	; 0x0a
    20b4:	9b 85       	ldd	r25, Y+11	; 0x0b
    20b6:	8a 83       	std	Y+2, r24	; 0x02
    20b8:	9b 83       	std	Y+3, r25	; 0x03
    20ba:	f0 91 a2 00 	lds	r31, 0x00A2	; 0x8000a2 <__TEXT_REGION_LENGTH__+0x7000a2>
    20be:	ff 93       	push	r31
    20c0:	f8 7f       	andi	r31, 0xF8	; 248
    20c2:	f0 93 a2 00 	sts	0x00A2, r31	; 0x8000a2 <__TEXT_REGION_LENGTH__+0x7000a2>
    20c6:	8a 81       	ldd	r24, Y+2	; 0x02
    20c8:	9b 81       	ldd	r25, Y+3	; 0x03
    20ca:	fc 01       	movw	r30, r24
    20cc:	86 8d       	ldd	r24, Z+30	; 0x1e
    20ce:	8c 83       	std	Y+4, r24	; 0x04
    20d0:	8c 81       	ldd	r24, Y+4	; 0x04
    20d2:	88 23       	and	r24, r24
    20d4:	11 f1       	breq	.+68     	; 0x211a <xQueueReceive+0x88>
    20d6:	2c 85       	ldd	r18, Y+12	; 0x0c
    20d8:	3d 85       	ldd	r19, Y+13	; 0x0d
    20da:	8a 81       	ldd	r24, Y+2	; 0x02
    20dc:	9b 81       	ldd	r25, Y+3	; 0x03
    20de:	b9 01       	movw	r22, r18
    20e0:	0e 94 91 12 	call	0x2522	; 0x2522 <prvCopyDataFromQueue>
    20e4:	8c 81       	ldd	r24, Y+4	; 0x04
    20e6:	2f ef       	ldi	r18, 0xFF	; 255
    20e8:	28 0f       	add	r18, r24
    20ea:	8a 81       	ldd	r24, Y+2	; 0x02
    20ec:	9b 81       	ldd	r25, Y+3	; 0x03
    20ee:	fc 01       	movw	r30, r24
    20f0:	26 8f       	std	Z+30, r18	; 0x1e
    20f2:	8a 81       	ldd	r24, Y+2	; 0x02
    20f4:	9b 81       	ldd	r25, Y+3	; 0x03
    20f6:	fc 01       	movw	r30, r24
    20f8:	80 85       	ldd	r24, Z+8	; 0x08
    20fa:	88 23       	and	r24, r24
    20fc:	49 f0       	breq	.+18     	; 0x2110 <xQueueReceive+0x7e>
    20fe:	8a 81       	ldd	r24, Y+2	; 0x02
    2100:	9b 81       	ldd	r25, Y+3	; 0x03
    2102:	08 96       	adiw	r24, 0x08	; 8
    2104:	0e 94 6d 19 	call	0x32da	; 0x32da <xTaskRemoveFromEventList>
    2108:	88 23       	and	r24, r24
    210a:	11 f0       	breq	.+4      	; 0x2110 <xQueueReceive+0x7e>
    210c:	0e 94 bc 0c 	call	0x1978	; 0x1978 <vPortYield>
    2110:	ff 91       	pop	r31
    2112:	f0 93 a2 00 	sts	0x00A2, r31	; 0x8000a2 <__TEXT_REGION_LENGTH__+0x7000a2>
    2116:	81 e0       	ldi	r24, 0x01	; 1
    2118:	76 c0       	rjmp	.+236    	; 0x2206 <xQueueReceive+0x174>
    211a:	8e 85       	ldd	r24, Y+14	; 0x0e
    211c:	9f 85       	ldd	r25, Y+15	; 0x0f
    211e:	a8 89       	ldd	r26, Y+16	; 0x10
    2120:	b9 89       	ldd	r27, Y+17	; 0x11
    2122:	89 2b       	or	r24, r25
    2124:	8a 2b       	or	r24, r26
    2126:	8b 2b       	or	r24, r27
    2128:	29 f4       	brne	.+10     	; 0x2134 <xQueueReceive+0xa2>
    212a:	ff 91       	pop	r31
    212c:	f0 93 a2 00 	sts	0x00A2, r31	; 0x8000a2 <__TEXT_REGION_LENGTH__+0x7000a2>
    2130:	80 e0       	ldi	r24, 0x00	; 0
    2132:	69 c0       	rjmp	.+210    	; 0x2206 <xQueueReceive+0x174>
    2134:	89 81       	ldd	r24, Y+1	; 0x01
    2136:	88 23       	and	r24, r24
    2138:	31 f4       	brne	.+12     	; 0x2146 <xQueueReceive+0xb4>
    213a:	ce 01       	movw	r24, r28
    213c:	05 96       	adiw	r24, 0x05	; 5
    213e:	0e 94 38 1a 	call	0x3470	; 0x3470 <vTaskInternalSetTimeOutState>
    2142:	81 e0       	ldi	r24, 0x01	; 1
    2144:	89 83       	std	Y+1, r24	; 0x01
    2146:	ff 91       	pop	r31
    2148:	f0 93 a2 00 	sts	0x00A2, r31	; 0x8000a2 <__TEXT_REGION_LENGTH__+0x7000a2>
    214c:	0e 94 27 16 	call	0x2c4e	; 0x2c4e <vTaskSuspendAll>
    2150:	f0 91 a2 00 	lds	r31, 0x00A2	; 0x8000a2 <__TEXT_REGION_LENGTH__+0x7000a2>
    2154:	ff 93       	push	r31
    2156:	f8 7f       	andi	r31, 0xF8	; 248
    2158:	f0 93 a2 00 	sts	0x00A2, r31	; 0x8000a2 <__TEXT_REGION_LENGTH__+0x7000a2>
    215c:	8a 81       	ldd	r24, Y+2	; 0x02
    215e:	9b 81       	ldd	r25, Y+3	; 0x03
    2160:	fc 01       	movw	r30, r24
    2162:	81 a1       	ldd	r24, Z+33	; 0x21
    2164:	8f 3f       	cpi	r24, 0xFF	; 255
    2166:	21 f4       	brne	.+8      	; 0x2170 <xQueueReceive+0xde>
    2168:	8a 81       	ldd	r24, Y+2	; 0x02
    216a:	9b 81       	ldd	r25, Y+3	; 0x03
    216c:	fc 01       	movw	r30, r24
    216e:	11 a2       	std	Z+33, r1	; 0x21
    2170:	8a 81       	ldd	r24, Y+2	; 0x02
    2172:	9b 81       	ldd	r25, Y+3	; 0x03
    2174:	fc 01       	movw	r30, r24
    2176:	82 a1       	ldd	r24, Z+34	; 0x22
    2178:	8f 3f       	cpi	r24, 0xFF	; 255
    217a:	21 f4       	brne	.+8      	; 0x2184 <xQueueReceive+0xf2>
    217c:	8a 81       	ldd	r24, Y+2	; 0x02
    217e:	9b 81       	ldd	r25, Y+3	; 0x03
    2180:	fc 01       	movw	r30, r24
    2182:	12 a2       	std	Z+34, r1	; 0x22
    2184:	ff 91       	pop	r31
    2186:	f0 93 a2 00 	sts	0x00A2, r31	; 0x8000a2 <__TEXT_REGION_LENGTH__+0x7000a2>
    218a:	9e 01       	movw	r18, r28
    218c:	22 5f       	subi	r18, 0xF2	; 242
    218e:	3f 4f       	sbci	r19, 0xFF	; 255
    2190:	ce 01       	movw	r24, r28
    2192:	05 96       	adiw	r24, 0x05	; 5
    2194:	b9 01       	movw	r22, r18
    2196:	0e 94 5b 1a 	call	0x34b6	; 0x34b6 <xTaskCheckForTimeOut>
    219a:	88 23       	and	r24, r24
    219c:	31 f5       	brne	.+76     	; 0x21ea <xQueueReceive+0x158>
    219e:	8a 81       	ldd	r24, Y+2	; 0x02
    21a0:	9b 81       	ldd	r25, Y+3	; 0x03
    21a2:	0e 94 46 13 	call	0x268c	; 0x268c <prvIsQueueEmpty>
    21a6:	88 23       	and	r24, r24
    21a8:	c9 f0       	breq	.+50     	; 0x21dc <xQueueReceive+0x14a>
    21aa:	8e 85       	ldd	r24, Y+14	; 0x0e
    21ac:	9f 85       	ldd	r25, Y+15	; 0x0f
    21ae:	a8 89       	ldd	r26, Y+16	; 0x10
    21b0:	b9 89       	ldd	r27, Y+17	; 0x11
    21b2:	2a 81       	ldd	r18, Y+2	; 0x02
    21b4:	3b 81       	ldd	r19, Y+3	; 0x03
    21b6:	2d 5e       	subi	r18, 0xED	; 237
    21b8:	3f 4f       	sbci	r19, 0xFF	; 255
    21ba:	ac 01       	movw	r20, r24
    21bc:	bd 01       	movw	r22, r26
    21be:	c9 01       	movw	r24, r18
    21c0:	0e 94 d2 18 	call	0x31a4	; 0x31a4 <vTaskPlaceOnEventList>
    21c4:	8a 81       	ldd	r24, Y+2	; 0x02
    21c6:	9b 81       	ldd	r25, Y+3	; 0x03
    21c8:	0e 94 e1 12 	call	0x25c2	; 0x25c2 <prvUnlockQueue>
    21cc:	0e 94 34 16 	call	0x2c68	; 0x2c68 <xTaskResumeAll>
    21d0:	88 23       	and	r24, r24
    21d2:	09 f0       	breq	.+2      	; 0x21d6 <xQueueReceive+0x144>
    21d4:	72 cf       	rjmp	.-284    	; 0x20ba <xQueueReceive+0x28>
    21d6:	0e 94 bc 0c 	call	0x1978	; 0x1978 <vPortYield>
    21da:	6f cf       	rjmp	.-290    	; 0x20ba <xQueueReceive+0x28>
    21dc:	8a 81       	ldd	r24, Y+2	; 0x02
    21de:	9b 81       	ldd	r25, Y+3	; 0x03
    21e0:	0e 94 e1 12 	call	0x25c2	; 0x25c2 <prvUnlockQueue>
    21e4:	0e 94 34 16 	call	0x2c68	; 0x2c68 <xTaskResumeAll>
    21e8:	68 cf       	rjmp	.-304    	; 0x20ba <xQueueReceive+0x28>
    21ea:	8a 81       	ldd	r24, Y+2	; 0x02
    21ec:	9b 81       	ldd	r25, Y+3	; 0x03
    21ee:	0e 94 e1 12 	call	0x25c2	; 0x25c2 <prvUnlockQueue>
    21f2:	0e 94 34 16 	call	0x2c68	; 0x2c68 <xTaskResumeAll>
    21f6:	8a 81       	ldd	r24, Y+2	; 0x02
    21f8:	9b 81       	ldd	r25, Y+3	; 0x03
    21fa:	0e 94 46 13 	call	0x268c	; 0x268c <prvIsQueueEmpty>
    21fe:	88 23       	and	r24, r24
    2200:	09 f4       	brne	.+2      	; 0x2204 <xQueueReceive+0x172>
    2202:	5b cf       	rjmp	.-330    	; 0x20ba <xQueueReceive+0x28>
    2204:	80 e0       	ldi	r24, 0x00	; 0
    2206:	61 96       	adiw	r28, 0x11	; 17
    2208:	cd bf       	out	0x3d, r28	; 61
    220a:	de bf       	out	0x3e, r29	; 62
    220c:	df 91       	pop	r29
    220e:	cf 91       	pop	r28
    2210:	08 95       	ret

00002212 <xQueueSemaphoreTake>:
    2212:	cf 93       	push	r28
    2214:	df 93       	push	r29
    2216:	cd b7       	in	r28, 0x3d	; 61
    2218:	de b7       	in	r29, 0x3e	; 62
    221a:	2f 97       	sbiw	r28, 0x0f	; 15
    221c:	cd bf       	out	0x3d, r28	; 61
    221e:	de bf       	out	0x3e, r29	; 62
    2220:	8a 87       	std	Y+10, r24	; 0x0a
    2222:	9b 87       	std	Y+11, r25	; 0x0b
    2224:	4c 87       	std	Y+12, r20	; 0x0c
    2226:	5d 87       	std	Y+13, r21	; 0x0d
    2228:	6e 87       	std	Y+14, r22	; 0x0e
    222a:	7f 87       	std	Y+15, r23	; 0x0f
    222c:	19 82       	std	Y+1, r1	; 0x01
    222e:	8a 85       	ldd	r24, Y+10	; 0x0a
    2230:	9b 85       	ldd	r25, Y+11	; 0x0b
    2232:	8a 83       	std	Y+2, r24	; 0x02
    2234:	9b 83       	std	Y+3, r25	; 0x03
    2236:	f0 91 a2 00 	lds	r31, 0x00A2	; 0x8000a2 <__TEXT_REGION_LENGTH__+0x7000a2>
    223a:	ff 93       	push	r31
    223c:	f8 7f       	andi	r31, 0xF8	; 248
    223e:	f0 93 a2 00 	sts	0x00A2, r31	; 0x8000a2 <__TEXT_REGION_LENGTH__+0x7000a2>
    2242:	8a 81       	ldd	r24, Y+2	; 0x02
    2244:	9b 81       	ldd	r25, Y+3	; 0x03
    2246:	fc 01       	movw	r30, r24
    2248:	86 8d       	ldd	r24, Z+30	; 0x1e
    224a:	8c 83       	std	Y+4, r24	; 0x04
    224c:	8c 81       	ldd	r24, Y+4	; 0x04
    224e:	88 23       	and	r24, r24
    2250:	d9 f0       	breq	.+54     	; 0x2288 <xQueueSemaphoreTake+0x76>
    2252:	8c 81       	ldd	r24, Y+4	; 0x04
    2254:	2f ef       	ldi	r18, 0xFF	; 255
    2256:	28 0f       	add	r18, r24
    2258:	8a 81       	ldd	r24, Y+2	; 0x02
    225a:	9b 81       	ldd	r25, Y+3	; 0x03
    225c:	fc 01       	movw	r30, r24
    225e:	26 8f       	std	Z+30, r18	; 0x1e
    2260:	8a 81       	ldd	r24, Y+2	; 0x02
    2262:	9b 81       	ldd	r25, Y+3	; 0x03
    2264:	fc 01       	movw	r30, r24
    2266:	80 85       	ldd	r24, Z+8	; 0x08
    2268:	88 23       	and	r24, r24
    226a:	49 f0       	breq	.+18     	; 0x227e <xQueueSemaphoreTake+0x6c>
    226c:	8a 81       	ldd	r24, Y+2	; 0x02
    226e:	9b 81       	ldd	r25, Y+3	; 0x03
    2270:	08 96       	adiw	r24, 0x08	; 8
    2272:	0e 94 6d 19 	call	0x32da	; 0x32da <xTaskRemoveFromEventList>
    2276:	88 23       	and	r24, r24
    2278:	11 f0       	breq	.+4      	; 0x227e <xQueueSemaphoreTake+0x6c>
    227a:	0e 94 bc 0c 	call	0x1978	; 0x1978 <vPortYield>
    227e:	ff 91       	pop	r31
    2280:	f0 93 a2 00 	sts	0x00A2, r31	; 0x8000a2 <__TEXT_REGION_LENGTH__+0x7000a2>
    2284:	81 e0       	ldi	r24, 0x01	; 1
    2286:	76 c0       	rjmp	.+236    	; 0x2374 <xQueueSemaphoreTake+0x162>
    2288:	8c 85       	ldd	r24, Y+12	; 0x0c
    228a:	9d 85       	ldd	r25, Y+13	; 0x0d
    228c:	ae 85       	ldd	r26, Y+14	; 0x0e
    228e:	bf 85       	ldd	r27, Y+15	; 0x0f
    2290:	89 2b       	or	r24, r25
    2292:	8a 2b       	or	r24, r26
    2294:	8b 2b       	or	r24, r27
    2296:	29 f4       	brne	.+10     	; 0x22a2 <xQueueSemaphoreTake+0x90>
    2298:	ff 91       	pop	r31
    229a:	f0 93 a2 00 	sts	0x00A2, r31	; 0x8000a2 <__TEXT_REGION_LENGTH__+0x7000a2>
    229e:	80 e0       	ldi	r24, 0x00	; 0
    22a0:	69 c0       	rjmp	.+210    	; 0x2374 <xQueueSemaphoreTake+0x162>
    22a2:	89 81       	ldd	r24, Y+1	; 0x01
    22a4:	88 23       	and	r24, r24
    22a6:	31 f4       	brne	.+12     	; 0x22b4 <xQueueSemaphoreTake+0xa2>
    22a8:	ce 01       	movw	r24, r28
    22aa:	05 96       	adiw	r24, 0x05	; 5
    22ac:	0e 94 38 1a 	call	0x3470	; 0x3470 <vTaskInternalSetTimeOutState>
    22b0:	81 e0       	ldi	r24, 0x01	; 1
    22b2:	89 83       	std	Y+1, r24	; 0x01
    22b4:	ff 91       	pop	r31
    22b6:	f0 93 a2 00 	sts	0x00A2, r31	; 0x8000a2 <__TEXT_REGION_LENGTH__+0x7000a2>
    22ba:	0e 94 27 16 	call	0x2c4e	; 0x2c4e <vTaskSuspendAll>
    22be:	f0 91 a2 00 	lds	r31, 0x00A2	; 0x8000a2 <__TEXT_REGION_LENGTH__+0x7000a2>
    22c2:	ff 93       	push	r31
    22c4:	f8 7f       	andi	r31, 0xF8	; 248
    22c6:	f0 93 a2 00 	sts	0x00A2, r31	; 0x8000a2 <__TEXT_REGION_LENGTH__+0x7000a2>
    22ca:	8a 81       	ldd	r24, Y+2	; 0x02
    22cc:	9b 81       	ldd	r25, Y+3	; 0x03
    22ce:	fc 01       	movw	r30, r24
    22d0:	81 a1       	ldd	r24, Z+33	; 0x21
    22d2:	8f 3f       	cpi	r24, 0xFF	; 255
    22d4:	21 f4       	brne	.+8      	; 0x22de <xQueueSemaphoreTake+0xcc>
    22d6:	8a 81       	ldd	r24, Y+2	; 0x02
    22d8:	9b 81       	ldd	r25, Y+3	; 0x03
    22da:	fc 01       	movw	r30, r24
    22dc:	11 a2       	std	Z+33, r1	; 0x21
    22de:	8a 81       	ldd	r24, Y+2	; 0x02
    22e0:	9b 81       	ldd	r25, Y+3	; 0x03
    22e2:	fc 01       	movw	r30, r24
    22e4:	82 a1       	ldd	r24, Z+34	; 0x22
    22e6:	8f 3f       	cpi	r24, 0xFF	; 255
    22e8:	21 f4       	brne	.+8      	; 0x22f2 <xQueueSemaphoreTake+0xe0>
    22ea:	8a 81       	ldd	r24, Y+2	; 0x02
    22ec:	9b 81       	ldd	r25, Y+3	; 0x03
    22ee:	fc 01       	movw	r30, r24
    22f0:	12 a2       	std	Z+34, r1	; 0x22
    22f2:	ff 91       	pop	r31
    22f4:	f0 93 a2 00 	sts	0x00A2, r31	; 0x8000a2 <__TEXT_REGION_LENGTH__+0x7000a2>
    22f8:	9e 01       	movw	r18, r28
    22fa:	24 5f       	subi	r18, 0xF4	; 244
    22fc:	3f 4f       	sbci	r19, 0xFF	; 255
    22fe:	ce 01       	movw	r24, r28
    2300:	05 96       	adiw	r24, 0x05	; 5
    2302:	b9 01       	movw	r22, r18
    2304:	0e 94 5b 1a 	call	0x34b6	; 0x34b6 <xTaskCheckForTimeOut>
    2308:	88 23       	and	r24, r24
    230a:	31 f5       	brne	.+76     	; 0x2358 <xQueueSemaphoreTake+0x146>
    230c:	8a 81       	ldd	r24, Y+2	; 0x02
    230e:	9b 81       	ldd	r25, Y+3	; 0x03
    2310:	0e 94 46 13 	call	0x268c	; 0x268c <prvIsQueueEmpty>
    2314:	88 23       	and	r24, r24
    2316:	c9 f0       	breq	.+50     	; 0x234a <xQueueSemaphoreTake+0x138>
    2318:	8c 85       	ldd	r24, Y+12	; 0x0c
    231a:	9d 85       	ldd	r25, Y+13	; 0x0d
    231c:	ae 85       	ldd	r26, Y+14	; 0x0e
    231e:	bf 85       	ldd	r27, Y+15	; 0x0f
    2320:	2a 81       	ldd	r18, Y+2	; 0x02
    2322:	3b 81       	ldd	r19, Y+3	; 0x03
    2324:	2d 5e       	subi	r18, 0xED	; 237
    2326:	3f 4f       	sbci	r19, 0xFF	; 255
    2328:	ac 01       	movw	r20, r24
    232a:	bd 01       	movw	r22, r26
    232c:	c9 01       	movw	r24, r18
    232e:	0e 94 d2 18 	call	0x31a4	; 0x31a4 <vTaskPlaceOnEventList>
    2332:	8a 81       	ldd	r24, Y+2	; 0x02
    2334:	9b 81       	ldd	r25, Y+3	; 0x03
    2336:	0e 94 e1 12 	call	0x25c2	; 0x25c2 <prvUnlockQueue>
    233a:	0e 94 34 16 	call	0x2c68	; 0x2c68 <xTaskResumeAll>
    233e:	88 23       	and	r24, r24
    2340:	09 f0       	breq	.+2      	; 0x2344 <xQueueSemaphoreTake+0x132>
    2342:	79 cf       	rjmp	.-270    	; 0x2236 <xQueueSemaphoreTake+0x24>
    2344:	0e 94 bc 0c 	call	0x1978	; 0x1978 <vPortYield>
    2348:	76 cf       	rjmp	.-276    	; 0x2236 <xQueueSemaphoreTake+0x24>
    234a:	8a 81       	ldd	r24, Y+2	; 0x02
    234c:	9b 81       	ldd	r25, Y+3	; 0x03
    234e:	0e 94 e1 12 	call	0x25c2	; 0x25c2 <prvUnlockQueue>
    2352:	0e 94 34 16 	call	0x2c68	; 0x2c68 <xTaskResumeAll>
    2356:	6f cf       	rjmp	.-290    	; 0x2236 <xQueueSemaphoreTake+0x24>
    2358:	8a 81       	ldd	r24, Y+2	; 0x02
    235a:	9b 81       	ldd	r25, Y+3	; 0x03
    235c:	0e 94 e1 12 	call	0x25c2	; 0x25c2 <prvUnlockQueue>
    2360:	0e 94 34 16 	call	0x2c68	; 0x2c68 <xTaskResumeAll>
    2364:	8a 81       	ldd	r24, Y+2	; 0x02
    2366:	9b 81       	ldd	r25, Y+3	; 0x03
    2368:	0e 94 46 13 	call	0x268c	; 0x268c <prvIsQueueEmpty>
    236c:	88 23       	and	r24, r24
    236e:	09 f4       	brne	.+2      	; 0x2372 <xQueueSemaphoreTake+0x160>
    2370:	62 cf       	rjmp	.-316    	; 0x2236 <xQueueSemaphoreTake+0x24>
    2372:	80 e0       	ldi	r24, 0x00	; 0
    2374:	2f 96       	adiw	r28, 0x0f	; 15
    2376:	cd bf       	out	0x3d, r28	; 61
    2378:	de bf       	out	0x3e, r29	; 62
    237a:	df 91       	pop	r29
    237c:	cf 91       	pop	r28
    237e:	08 95       	ret

00002380 <uxQueueMessagesWaiting>:
    2380:	cf 93       	push	r28
    2382:	df 93       	push	r29
    2384:	00 d0       	rcall	.+0      	; 0x2386 <uxQueueMessagesWaiting+0x6>
    2386:	cd b7       	in	r28, 0x3d	; 61
    2388:	de b7       	in	r29, 0x3e	; 62
    238a:	8a 83       	std	Y+2, r24	; 0x02
    238c:	9b 83       	std	Y+3, r25	; 0x03
    238e:	f0 91 a2 00 	lds	r31, 0x00A2	; 0x8000a2 <__TEXT_REGION_LENGTH__+0x7000a2>
    2392:	ff 93       	push	r31
    2394:	f8 7f       	andi	r31, 0xF8	; 248
    2396:	f0 93 a2 00 	sts	0x00A2, r31	; 0x8000a2 <__TEXT_REGION_LENGTH__+0x7000a2>
    239a:	8a 81       	ldd	r24, Y+2	; 0x02
    239c:	9b 81       	ldd	r25, Y+3	; 0x03
    239e:	fc 01       	movw	r30, r24
    23a0:	86 8d       	ldd	r24, Z+30	; 0x1e
    23a2:	89 83       	std	Y+1, r24	; 0x01
    23a4:	ff 91       	pop	r31
    23a6:	f0 93 a2 00 	sts	0x00A2, r31	; 0x8000a2 <__TEXT_REGION_LENGTH__+0x7000a2>
    23aa:	89 81       	ldd	r24, Y+1	; 0x01
    23ac:	23 96       	adiw	r28, 0x03	; 3
    23ae:	cd bf       	out	0x3d, r28	; 61
    23b0:	de bf       	out	0x3e, r29	; 62
    23b2:	df 91       	pop	r29
    23b4:	cf 91       	pop	r28
    23b6:	08 95       	ret

000023b8 <prvCopyDataToQueue>:
    23b8:	cf 93       	push	r28
    23ba:	df 93       	push	r29
    23bc:	cd b7       	in	r28, 0x3d	; 61
    23be:	de b7       	in	r29, 0x3e	; 62
    23c0:	27 97       	sbiw	r28, 0x07	; 7
    23c2:	cd bf       	out	0x3d, r28	; 61
    23c4:	de bf       	out	0x3e, r29	; 62
    23c6:	8b 83       	std	Y+3, r24	; 0x03
    23c8:	9c 83       	std	Y+4, r25	; 0x04
    23ca:	6d 83       	std	Y+5, r22	; 0x05
    23cc:	7e 83       	std	Y+6, r23	; 0x06
    23ce:	4f 83       	std	Y+7, r20	; 0x07
    23d0:	1a 82       	std	Y+2, r1	; 0x02
    23d2:	8b 81       	ldd	r24, Y+3	; 0x03
    23d4:	9c 81       	ldd	r25, Y+4	; 0x04
    23d6:	fc 01       	movw	r30, r24
    23d8:	86 8d       	ldd	r24, Z+30	; 0x1e
    23da:	89 83       	std	Y+1, r24	; 0x01
    23dc:	8b 81       	ldd	r24, Y+3	; 0x03
    23de:	9c 81       	ldd	r25, Y+4	; 0x04
    23e0:	fc 01       	movw	r30, r24
    23e2:	80 a1       	ldd	r24, Z+32	; 0x20
    23e4:	88 23       	and	r24, r24
    23e6:	09 f4       	brne	.+2      	; 0x23ea <prvCopyDataToQueue+0x32>
    23e8:	8e c0       	rjmp	.+284    	; 0x2506 <prvCopyDataToQueue+0x14e>
    23ea:	8f 81       	ldd	r24, Y+7	; 0x07
    23ec:	88 23       	and	r24, r24
    23ee:	d9 f5       	brne	.+118    	; 0x2466 <prvCopyDataToQueue+0xae>
    23f0:	8b 81       	ldd	r24, Y+3	; 0x03
    23f2:	9c 81       	ldd	r25, Y+4	; 0x04
    23f4:	fc 01       	movw	r30, r24
    23f6:	80 a1       	ldd	r24, Z+32	; 0x20
    23f8:	48 2f       	mov	r20, r24
    23fa:	50 e0       	ldi	r21, 0x00	; 0
    23fc:	8b 81       	ldd	r24, Y+3	; 0x03
    23fe:	9c 81       	ldd	r25, Y+4	; 0x04
    2400:	fc 01       	movw	r30, r24
    2402:	84 81       	ldd	r24, Z+4	; 0x04
    2404:	95 81       	ldd	r25, Z+5	; 0x05
    2406:	2d 81       	ldd	r18, Y+5	; 0x05
    2408:	3e 81       	ldd	r19, Y+6	; 0x06
    240a:	b9 01       	movw	r22, r18
    240c:	0e 94 d2 34 	call	0x69a4	; 0x69a4 <memcpy>
    2410:	8b 81       	ldd	r24, Y+3	; 0x03
    2412:	9c 81       	ldd	r25, Y+4	; 0x04
    2414:	fc 01       	movw	r30, r24
    2416:	24 81       	ldd	r18, Z+4	; 0x04
    2418:	35 81       	ldd	r19, Z+5	; 0x05
    241a:	8b 81       	ldd	r24, Y+3	; 0x03
    241c:	9c 81       	ldd	r25, Y+4	; 0x04
    241e:	fc 01       	movw	r30, r24
    2420:	80 a1       	ldd	r24, Z+32	; 0x20
    2422:	88 2f       	mov	r24, r24
    2424:	90 e0       	ldi	r25, 0x00	; 0
    2426:	28 0f       	add	r18, r24
    2428:	39 1f       	adc	r19, r25
    242a:	8b 81       	ldd	r24, Y+3	; 0x03
    242c:	9c 81       	ldd	r25, Y+4	; 0x04
    242e:	fc 01       	movw	r30, r24
    2430:	24 83       	std	Z+4, r18	; 0x04
    2432:	35 83       	std	Z+5, r19	; 0x05
    2434:	8b 81       	ldd	r24, Y+3	; 0x03
    2436:	9c 81       	ldd	r25, Y+4	; 0x04
    2438:	fc 01       	movw	r30, r24
    243a:	24 81       	ldd	r18, Z+4	; 0x04
    243c:	35 81       	ldd	r19, Z+5	; 0x05
    243e:	8b 81       	ldd	r24, Y+3	; 0x03
    2440:	9c 81       	ldd	r25, Y+4	; 0x04
    2442:	fc 01       	movw	r30, r24
    2444:	82 81       	ldd	r24, Z+2	; 0x02
    2446:	93 81       	ldd	r25, Z+3	; 0x03
    2448:	28 17       	cp	r18, r24
    244a:	39 07       	cpc	r19, r25
    244c:	08 f4       	brcc	.+2      	; 0x2450 <prvCopyDataToQueue+0x98>
    244e:	5b c0       	rjmp	.+182    	; 0x2506 <prvCopyDataToQueue+0x14e>
    2450:	8b 81       	ldd	r24, Y+3	; 0x03
    2452:	9c 81       	ldd	r25, Y+4	; 0x04
    2454:	fc 01       	movw	r30, r24
    2456:	20 81       	ld	r18, Z
    2458:	31 81       	ldd	r19, Z+1	; 0x01
    245a:	8b 81       	ldd	r24, Y+3	; 0x03
    245c:	9c 81       	ldd	r25, Y+4	; 0x04
    245e:	fc 01       	movw	r30, r24
    2460:	24 83       	std	Z+4, r18	; 0x04
    2462:	35 83       	std	Z+5, r19	; 0x05
    2464:	50 c0       	rjmp	.+160    	; 0x2506 <prvCopyDataToQueue+0x14e>
    2466:	8b 81       	ldd	r24, Y+3	; 0x03
    2468:	9c 81       	ldd	r25, Y+4	; 0x04
    246a:	fc 01       	movw	r30, r24
    246c:	80 a1       	ldd	r24, Z+32	; 0x20
    246e:	48 2f       	mov	r20, r24
    2470:	50 e0       	ldi	r21, 0x00	; 0
    2472:	8b 81       	ldd	r24, Y+3	; 0x03
    2474:	9c 81       	ldd	r25, Y+4	; 0x04
    2476:	fc 01       	movw	r30, r24
    2478:	86 81       	ldd	r24, Z+6	; 0x06
    247a:	97 81       	ldd	r25, Z+7	; 0x07
    247c:	2d 81       	ldd	r18, Y+5	; 0x05
    247e:	3e 81       	ldd	r19, Y+6	; 0x06
    2480:	b9 01       	movw	r22, r18
    2482:	0e 94 d2 34 	call	0x69a4	; 0x69a4 <memcpy>
    2486:	8b 81       	ldd	r24, Y+3	; 0x03
    2488:	9c 81       	ldd	r25, Y+4	; 0x04
    248a:	fc 01       	movw	r30, r24
    248c:	26 81       	ldd	r18, Z+6	; 0x06
    248e:	37 81       	ldd	r19, Z+7	; 0x07
    2490:	8b 81       	ldd	r24, Y+3	; 0x03
    2492:	9c 81       	ldd	r25, Y+4	; 0x04
    2494:	fc 01       	movw	r30, r24
    2496:	80 a1       	ldd	r24, Z+32	; 0x20
    2498:	88 2f       	mov	r24, r24
    249a:	90 e0       	ldi	r25, 0x00	; 0
    249c:	91 95       	neg	r25
    249e:	81 95       	neg	r24
    24a0:	91 09       	sbc	r25, r1
    24a2:	28 0f       	add	r18, r24
    24a4:	39 1f       	adc	r19, r25
    24a6:	8b 81       	ldd	r24, Y+3	; 0x03
    24a8:	9c 81       	ldd	r25, Y+4	; 0x04
    24aa:	fc 01       	movw	r30, r24
    24ac:	26 83       	std	Z+6, r18	; 0x06
    24ae:	37 83       	std	Z+7, r19	; 0x07
    24b0:	8b 81       	ldd	r24, Y+3	; 0x03
    24b2:	9c 81       	ldd	r25, Y+4	; 0x04
    24b4:	fc 01       	movw	r30, r24
    24b6:	26 81       	ldd	r18, Z+6	; 0x06
    24b8:	37 81       	ldd	r19, Z+7	; 0x07
    24ba:	8b 81       	ldd	r24, Y+3	; 0x03
    24bc:	9c 81       	ldd	r25, Y+4	; 0x04
    24be:	fc 01       	movw	r30, r24
    24c0:	80 81       	ld	r24, Z
    24c2:	91 81       	ldd	r25, Z+1	; 0x01
    24c4:	28 17       	cp	r18, r24
    24c6:	39 07       	cpc	r19, r25
    24c8:	a8 f4       	brcc	.+42     	; 0x24f4 <prvCopyDataToQueue+0x13c>
    24ca:	8b 81       	ldd	r24, Y+3	; 0x03
    24cc:	9c 81       	ldd	r25, Y+4	; 0x04
    24ce:	fc 01       	movw	r30, r24
    24d0:	22 81       	ldd	r18, Z+2	; 0x02
    24d2:	33 81       	ldd	r19, Z+3	; 0x03
    24d4:	8b 81       	ldd	r24, Y+3	; 0x03
    24d6:	9c 81       	ldd	r25, Y+4	; 0x04
    24d8:	fc 01       	movw	r30, r24
    24da:	80 a1       	ldd	r24, Z+32	; 0x20
    24dc:	88 2f       	mov	r24, r24
    24de:	90 e0       	ldi	r25, 0x00	; 0
    24e0:	91 95       	neg	r25
    24e2:	81 95       	neg	r24
    24e4:	91 09       	sbc	r25, r1
    24e6:	28 0f       	add	r18, r24
    24e8:	39 1f       	adc	r19, r25
    24ea:	8b 81       	ldd	r24, Y+3	; 0x03
    24ec:	9c 81       	ldd	r25, Y+4	; 0x04
    24ee:	fc 01       	movw	r30, r24
    24f0:	26 83       	std	Z+6, r18	; 0x06
    24f2:	37 83       	std	Z+7, r19	; 0x07
    24f4:	8f 81       	ldd	r24, Y+7	; 0x07
    24f6:	82 30       	cpi	r24, 0x02	; 2
    24f8:	31 f4       	brne	.+12     	; 0x2506 <prvCopyDataToQueue+0x14e>
    24fa:	89 81       	ldd	r24, Y+1	; 0x01
    24fc:	88 23       	and	r24, r24
    24fe:	19 f0       	breq	.+6      	; 0x2506 <prvCopyDataToQueue+0x14e>
    2500:	89 81       	ldd	r24, Y+1	; 0x01
    2502:	81 50       	subi	r24, 0x01	; 1
    2504:	89 83       	std	Y+1, r24	; 0x01
    2506:	89 81       	ldd	r24, Y+1	; 0x01
    2508:	21 e0       	ldi	r18, 0x01	; 1
    250a:	28 0f       	add	r18, r24
    250c:	8b 81       	ldd	r24, Y+3	; 0x03
    250e:	9c 81       	ldd	r25, Y+4	; 0x04
    2510:	fc 01       	movw	r30, r24
    2512:	26 8f       	std	Z+30, r18	; 0x1e
    2514:	8a 81       	ldd	r24, Y+2	; 0x02
    2516:	27 96       	adiw	r28, 0x07	; 7
    2518:	cd bf       	out	0x3d, r28	; 61
    251a:	de bf       	out	0x3e, r29	; 62
    251c:	df 91       	pop	r29
    251e:	cf 91       	pop	r28
    2520:	08 95       	ret

00002522 <prvCopyDataFromQueue>:
    2522:	cf 93       	push	r28
    2524:	df 93       	push	r29
    2526:	00 d0       	rcall	.+0      	; 0x2528 <prvCopyDataFromQueue+0x6>
    2528:	1f 92       	push	r1
    252a:	cd b7       	in	r28, 0x3d	; 61
    252c:	de b7       	in	r29, 0x3e	; 62
    252e:	89 83       	std	Y+1, r24	; 0x01
    2530:	9a 83       	std	Y+2, r25	; 0x02
    2532:	6b 83       	std	Y+3, r22	; 0x03
    2534:	7c 83       	std	Y+4, r23	; 0x04
    2536:	89 81       	ldd	r24, Y+1	; 0x01
    2538:	9a 81       	ldd	r25, Y+2	; 0x02
    253a:	fc 01       	movw	r30, r24
    253c:	80 a1       	ldd	r24, Z+32	; 0x20
    253e:	88 23       	and	r24, r24
    2540:	c9 f1       	breq	.+114    	; 0x25b4 <prvCopyDataFromQueue+0x92>
    2542:	89 81       	ldd	r24, Y+1	; 0x01
    2544:	9a 81       	ldd	r25, Y+2	; 0x02
    2546:	fc 01       	movw	r30, r24
    2548:	26 81       	ldd	r18, Z+6	; 0x06
    254a:	37 81       	ldd	r19, Z+7	; 0x07
    254c:	89 81       	ldd	r24, Y+1	; 0x01
    254e:	9a 81       	ldd	r25, Y+2	; 0x02
    2550:	fc 01       	movw	r30, r24
    2552:	80 a1       	ldd	r24, Z+32	; 0x20
    2554:	88 2f       	mov	r24, r24
    2556:	90 e0       	ldi	r25, 0x00	; 0
    2558:	28 0f       	add	r18, r24
    255a:	39 1f       	adc	r19, r25
    255c:	89 81       	ldd	r24, Y+1	; 0x01
    255e:	9a 81       	ldd	r25, Y+2	; 0x02
    2560:	fc 01       	movw	r30, r24
    2562:	26 83       	std	Z+6, r18	; 0x06
    2564:	37 83       	std	Z+7, r19	; 0x07
    2566:	89 81       	ldd	r24, Y+1	; 0x01
    2568:	9a 81       	ldd	r25, Y+2	; 0x02
    256a:	fc 01       	movw	r30, r24
    256c:	26 81       	ldd	r18, Z+6	; 0x06
    256e:	37 81       	ldd	r19, Z+7	; 0x07
    2570:	89 81       	ldd	r24, Y+1	; 0x01
    2572:	9a 81       	ldd	r25, Y+2	; 0x02
    2574:	fc 01       	movw	r30, r24
    2576:	82 81       	ldd	r24, Z+2	; 0x02
    2578:	93 81       	ldd	r25, Z+3	; 0x03
    257a:	28 17       	cp	r18, r24
    257c:	39 07       	cpc	r19, r25
    257e:	50 f0       	brcs	.+20     	; 0x2594 <prvCopyDataFromQueue+0x72>
    2580:	89 81       	ldd	r24, Y+1	; 0x01
    2582:	9a 81       	ldd	r25, Y+2	; 0x02
    2584:	fc 01       	movw	r30, r24
    2586:	20 81       	ld	r18, Z
    2588:	31 81       	ldd	r19, Z+1	; 0x01
    258a:	89 81       	ldd	r24, Y+1	; 0x01
    258c:	9a 81       	ldd	r25, Y+2	; 0x02
    258e:	fc 01       	movw	r30, r24
    2590:	26 83       	std	Z+6, r18	; 0x06
    2592:	37 83       	std	Z+7, r19	; 0x07
    2594:	89 81       	ldd	r24, Y+1	; 0x01
    2596:	9a 81       	ldd	r25, Y+2	; 0x02
    2598:	fc 01       	movw	r30, r24
    259a:	80 a1       	ldd	r24, Z+32	; 0x20
    259c:	48 2f       	mov	r20, r24
    259e:	50 e0       	ldi	r21, 0x00	; 0
    25a0:	89 81       	ldd	r24, Y+1	; 0x01
    25a2:	9a 81       	ldd	r25, Y+2	; 0x02
    25a4:	fc 01       	movw	r30, r24
    25a6:	26 81       	ldd	r18, Z+6	; 0x06
    25a8:	37 81       	ldd	r19, Z+7	; 0x07
    25aa:	8b 81       	ldd	r24, Y+3	; 0x03
    25ac:	9c 81       	ldd	r25, Y+4	; 0x04
    25ae:	b9 01       	movw	r22, r18
    25b0:	0e 94 d2 34 	call	0x69a4	; 0x69a4 <memcpy>
    25b4:	00 00       	nop
    25b6:	24 96       	adiw	r28, 0x04	; 4
    25b8:	cd bf       	out	0x3d, r28	; 61
    25ba:	de bf       	out	0x3e, r29	; 62
    25bc:	df 91       	pop	r29
    25be:	cf 91       	pop	r28
    25c0:	08 95       	ret

000025c2 <prvUnlockQueue>:
    25c2:	cf 93       	push	r28
    25c4:	df 93       	push	r29
    25c6:	00 d0       	rcall	.+0      	; 0x25c8 <prvUnlockQueue+0x6>
    25c8:	1f 92       	push	r1
    25ca:	cd b7       	in	r28, 0x3d	; 61
    25cc:	de b7       	in	r29, 0x3e	; 62
    25ce:	8b 83       	std	Y+3, r24	; 0x03
    25d0:	9c 83       	std	Y+4, r25	; 0x04
    25d2:	f0 91 a2 00 	lds	r31, 0x00A2	; 0x8000a2 <__TEXT_REGION_LENGTH__+0x7000a2>
    25d6:	ff 93       	push	r31
    25d8:	f8 7f       	andi	r31, 0xF8	; 248
    25da:	f0 93 a2 00 	sts	0x00A2, r31	; 0x8000a2 <__TEXT_REGION_LENGTH__+0x7000a2>
    25de:	8b 81       	ldd	r24, Y+3	; 0x03
    25e0:	9c 81       	ldd	r25, Y+4	; 0x04
    25e2:	fc 01       	movw	r30, r24
    25e4:	82 a1       	ldd	r24, Z+34	; 0x22
    25e6:	89 83       	std	Y+1, r24	; 0x01
    25e8:	12 c0       	rjmp	.+36     	; 0x260e <prvUnlockQueue+0x4c>
    25ea:	8b 81       	ldd	r24, Y+3	; 0x03
    25ec:	9c 81       	ldd	r25, Y+4	; 0x04
    25ee:	fc 01       	movw	r30, r24
    25f0:	83 89       	ldd	r24, Z+19	; 0x13
    25f2:	88 23       	and	r24, r24
    25f4:	81 f0       	breq	.+32     	; 0x2616 <prvUnlockQueue+0x54>
    25f6:	8b 81       	ldd	r24, Y+3	; 0x03
    25f8:	9c 81       	ldd	r25, Y+4	; 0x04
    25fa:	43 96       	adiw	r24, 0x13	; 19
    25fc:	0e 94 6d 19 	call	0x32da	; 0x32da <xTaskRemoveFromEventList>
    2600:	88 23       	and	r24, r24
    2602:	11 f0       	breq	.+4      	; 0x2608 <prvUnlockQueue+0x46>
    2604:	0e 94 03 1b 	call	0x3606	; 0x3606 <vTaskMissedYield>
    2608:	89 81       	ldd	r24, Y+1	; 0x01
    260a:	81 50       	subi	r24, 0x01	; 1
    260c:	89 83       	std	Y+1, r24	; 0x01
    260e:	89 81       	ldd	r24, Y+1	; 0x01
    2610:	18 16       	cp	r1, r24
    2612:	5c f3       	brlt	.-42     	; 0x25ea <prvUnlockQueue+0x28>
    2614:	01 c0       	rjmp	.+2      	; 0x2618 <prvUnlockQueue+0x56>
    2616:	00 00       	nop
    2618:	8b 81       	ldd	r24, Y+3	; 0x03
    261a:	9c 81       	ldd	r25, Y+4	; 0x04
    261c:	2f ef       	ldi	r18, 0xFF	; 255
    261e:	fc 01       	movw	r30, r24
    2620:	22 a3       	std	Z+34, r18	; 0x22
    2622:	ff 91       	pop	r31
    2624:	f0 93 a2 00 	sts	0x00A2, r31	; 0x8000a2 <__TEXT_REGION_LENGTH__+0x7000a2>
    2628:	f0 91 a2 00 	lds	r31, 0x00A2	; 0x8000a2 <__TEXT_REGION_LENGTH__+0x7000a2>
    262c:	ff 93       	push	r31
    262e:	f8 7f       	andi	r31, 0xF8	; 248
    2630:	f0 93 a2 00 	sts	0x00A2, r31	; 0x8000a2 <__TEXT_REGION_LENGTH__+0x7000a2>
    2634:	8b 81       	ldd	r24, Y+3	; 0x03
    2636:	9c 81       	ldd	r25, Y+4	; 0x04
    2638:	fc 01       	movw	r30, r24
    263a:	81 a1       	ldd	r24, Z+33	; 0x21
    263c:	8a 83       	std	Y+2, r24	; 0x02
    263e:	12 c0       	rjmp	.+36     	; 0x2664 <prvUnlockQueue+0xa2>
    2640:	8b 81       	ldd	r24, Y+3	; 0x03
    2642:	9c 81       	ldd	r25, Y+4	; 0x04
    2644:	fc 01       	movw	r30, r24
    2646:	80 85       	ldd	r24, Z+8	; 0x08
    2648:	88 23       	and	r24, r24
    264a:	81 f0       	breq	.+32     	; 0x266c <prvUnlockQueue+0xaa>
    264c:	8b 81       	ldd	r24, Y+3	; 0x03
    264e:	9c 81       	ldd	r25, Y+4	; 0x04
    2650:	08 96       	adiw	r24, 0x08	; 8
    2652:	0e 94 6d 19 	call	0x32da	; 0x32da <xTaskRemoveFromEventList>
    2656:	88 23       	and	r24, r24
    2658:	11 f0       	breq	.+4      	; 0x265e <prvUnlockQueue+0x9c>
    265a:	0e 94 03 1b 	call	0x3606	; 0x3606 <vTaskMissedYield>
    265e:	8a 81       	ldd	r24, Y+2	; 0x02
    2660:	81 50       	subi	r24, 0x01	; 1
    2662:	8a 83       	std	Y+2, r24	; 0x02
    2664:	8a 81       	ldd	r24, Y+2	; 0x02
    2666:	18 16       	cp	r1, r24
    2668:	5c f3       	brlt	.-42     	; 0x2640 <prvUnlockQueue+0x7e>
    266a:	01 c0       	rjmp	.+2      	; 0x266e <prvUnlockQueue+0xac>
    266c:	00 00       	nop
    266e:	8b 81       	ldd	r24, Y+3	; 0x03
    2670:	9c 81       	ldd	r25, Y+4	; 0x04
    2672:	2f ef       	ldi	r18, 0xFF	; 255
    2674:	fc 01       	movw	r30, r24
    2676:	21 a3       	std	Z+33, r18	; 0x21
    2678:	ff 91       	pop	r31
    267a:	f0 93 a2 00 	sts	0x00A2, r31	; 0x8000a2 <__TEXT_REGION_LENGTH__+0x7000a2>
    267e:	00 00       	nop
    2680:	24 96       	adiw	r28, 0x04	; 4
    2682:	cd bf       	out	0x3d, r28	; 61
    2684:	de bf       	out	0x3e, r29	; 62
    2686:	df 91       	pop	r29
    2688:	cf 91       	pop	r28
    268a:	08 95       	ret

0000268c <prvIsQueueEmpty>:
    268c:	cf 93       	push	r28
    268e:	df 93       	push	r29
    2690:	00 d0       	rcall	.+0      	; 0x2692 <prvIsQueueEmpty+0x6>
    2692:	cd b7       	in	r28, 0x3d	; 61
    2694:	de b7       	in	r29, 0x3e	; 62
    2696:	8a 83       	std	Y+2, r24	; 0x02
    2698:	9b 83       	std	Y+3, r25	; 0x03
    269a:	f0 91 a2 00 	lds	r31, 0x00A2	; 0x8000a2 <__TEXT_REGION_LENGTH__+0x7000a2>
    269e:	ff 93       	push	r31
    26a0:	f8 7f       	andi	r31, 0xF8	; 248
    26a2:	f0 93 a2 00 	sts	0x00A2, r31	; 0x8000a2 <__TEXT_REGION_LENGTH__+0x7000a2>
    26a6:	8a 81       	ldd	r24, Y+2	; 0x02
    26a8:	9b 81       	ldd	r25, Y+3	; 0x03
    26aa:	fc 01       	movw	r30, r24
    26ac:	86 8d       	ldd	r24, Z+30	; 0x1e
    26ae:	88 23       	and	r24, r24
    26b0:	19 f4       	brne	.+6      	; 0x26b8 <prvIsQueueEmpty+0x2c>
    26b2:	81 e0       	ldi	r24, 0x01	; 1
    26b4:	89 83       	std	Y+1, r24	; 0x01
    26b6:	01 c0       	rjmp	.+2      	; 0x26ba <prvIsQueueEmpty+0x2e>
    26b8:	19 82       	std	Y+1, r1	; 0x01
    26ba:	ff 91       	pop	r31
    26bc:	f0 93 a2 00 	sts	0x00A2, r31	; 0x8000a2 <__TEXT_REGION_LENGTH__+0x7000a2>
    26c0:	89 81       	ldd	r24, Y+1	; 0x01
    26c2:	23 96       	adiw	r28, 0x03	; 3
    26c4:	cd bf       	out	0x3d, r28	; 61
    26c6:	de bf       	out	0x3e, r29	; 62
    26c8:	df 91       	pop	r29
    26ca:	cf 91       	pop	r28
    26cc:	08 95       	ret

000026ce <prvIsQueueFull>:
    26ce:	cf 93       	push	r28
    26d0:	df 93       	push	r29
    26d2:	00 d0       	rcall	.+0      	; 0x26d4 <prvIsQueueFull+0x6>
    26d4:	cd b7       	in	r28, 0x3d	; 61
    26d6:	de b7       	in	r29, 0x3e	; 62
    26d8:	8a 83       	std	Y+2, r24	; 0x02
    26da:	9b 83       	std	Y+3, r25	; 0x03
    26dc:	f0 91 a2 00 	lds	r31, 0x00A2	; 0x8000a2 <__TEXT_REGION_LENGTH__+0x7000a2>
    26e0:	ff 93       	push	r31
    26e2:	f8 7f       	andi	r31, 0xF8	; 248
    26e4:	f0 93 a2 00 	sts	0x00A2, r31	; 0x8000a2 <__TEXT_REGION_LENGTH__+0x7000a2>
    26e8:	8a 81       	ldd	r24, Y+2	; 0x02
    26ea:	9b 81       	ldd	r25, Y+3	; 0x03
    26ec:	fc 01       	movw	r30, r24
    26ee:	26 8d       	ldd	r18, Z+30	; 0x1e
    26f0:	8a 81       	ldd	r24, Y+2	; 0x02
    26f2:	9b 81       	ldd	r25, Y+3	; 0x03
    26f4:	fc 01       	movw	r30, r24
    26f6:	87 8d       	ldd	r24, Z+31	; 0x1f
    26f8:	28 17       	cp	r18, r24
    26fa:	19 f4       	brne	.+6      	; 0x2702 <prvIsQueueFull+0x34>
    26fc:	81 e0       	ldi	r24, 0x01	; 1
    26fe:	89 83       	std	Y+1, r24	; 0x01
    2700:	01 c0       	rjmp	.+2      	; 0x2704 <prvIsQueueFull+0x36>
    2702:	19 82       	std	Y+1, r1	; 0x01
    2704:	ff 91       	pop	r31
    2706:	f0 93 a2 00 	sts	0x00A2, r31	; 0x8000a2 <__TEXT_REGION_LENGTH__+0x7000a2>
    270a:	89 81       	ldd	r24, Y+1	; 0x01
    270c:	23 96       	adiw	r28, 0x03	; 3
    270e:	cd bf       	out	0x3d, r28	; 61
    2710:	de bf       	out	0x3e, r29	; 62
    2712:	df 91       	pop	r29
    2714:	cf 91       	pop	r28
    2716:	08 95       	ret

00002718 <vQueueWaitForMessageRestricted>:
/*-----------------------------------------------------------*/

#if ( configUSE_TIMERS == 1 )

	void vQueueWaitForMessageRestricted( QueueHandle_t xQueue, TickType_t xTicksToWait, const BaseType_t xWaitIndefinitely )
	{
    2718:	cf 93       	push	r28
    271a:	df 93       	push	r29
    271c:	cd b7       	in	r28, 0x3d	; 61
    271e:	de b7       	in	r29, 0x3e	; 62
    2720:	29 97       	sbiw	r28, 0x09	; 9
    2722:	cd bf       	out	0x3d, r28	; 61
    2724:	de bf       	out	0x3e, r29	; 62
    2726:	8b 83       	std	Y+3, r24	; 0x03
    2728:	9c 83       	std	Y+4, r25	; 0x04
    272a:	4d 83       	std	Y+5, r20	; 0x05
    272c:	5e 83       	std	Y+6, r21	; 0x06
    272e:	6f 83       	std	Y+7, r22	; 0x07
    2730:	78 87       	std	Y+8, r23	; 0x08
    2732:	29 87       	std	Y+9, r18	; 0x09
	Queue_t * const pxQueue = ( Queue_t * ) xQueue;
    2734:	8b 81       	ldd	r24, Y+3	; 0x03
    2736:	9c 81       	ldd	r25, Y+4	; 0x04
    2738:	89 83       	std	Y+1, r24	; 0x01
    273a:	9a 83       	std	Y+2, r25	; 0x02
		will not actually cause the task to block, just place it on a blocked
		list.  It will not block until the scheduler is unlocked - at which
		time a yield will be performed.  If an item is added to the queue while
		the queue is locked, and the calling task blocks on the queue, then the
		calling task will be immediately unblocked when the queue is unlocked. */
		prvLockQueue( pxQueue );
    273c:	f0 91 a2 00 	lds	r31, 0x00A2	; 0x8000a2 <__TEXT_REGION_LENGTH__+0x7000a2>
    2740:	ff 93       	push	r31
    2742:	f8 7f       	andi	r31, 0xF8	; 248
    2744:	f0 93 a2 00 	sts	0x00A2, r31	; 0x8000a2 <__TEXT_REGION_LENGTH__+0x7000a2>
    2748:	89 81       	ldd	r24, Y+1	; 0x01
    274a:	9a 81       	ldd	r25, Y+2	; 0x02
    274c:	fc 01       	movw	r30, r24
    274e:	81 a1       	ldd	r24, Z+33	; 0x21
    2750:	8f 3f       	cpi	r24, 0xFF	; 255
    2752:	21 f4       	brne	.+8      	; 0x275c <vQueueWaitForMessageRestricted+0x44>
    2754:	89 81       	ldd	r24, Y+1	; 0x01
    2756:	9a 81       	ldd	r25, Y+2	; 0x02
    2758:	fc 01       	movw	r30, r24
    275a:	11 a2       	std	Z+33, r1	; 0x21
    275c:	89 81       	ldd	r24, Y+1	; 0x01
    275e:	9a 81       	ldd	r25, Y+2	; 0x02
    2760:	fc 01       	movw	r30, r24
    2762:	82 a1       	ldd	r24, Z+34	; 0x22
    2764:	8f 3f       	cpi	r24, 0xFF	; 255
    2766:	21 f4       	brne	.+8      	; 0x2770 <vQueueWaitForMessageRestricted+0x58>
    2768:	89 81       	ldd	r24, Y+1	; 0x01
    276a:	9a 81       	ldd	r25, Y+2	; 0x02
    276c:	fc 01       	movw	r30, r24
    276e:	12 a2       	std	Z+34, r1	; 0x22
    2770:	ff 91       	pop	r31
    2772:	f0 93 a2 00 	sts	0x00A2, r31	; 0x8000a2 <__TEXT_REGION_LENGTH__+0x7000a2>
		if( pxQueue->uxMessagesWaiting == ( UBaseType_t ) 0U )
    2776:	89 81       	ldd	r24, Y+1	; 0x01
    2778:	9a 81       	ldd	r25, Y+2	; 0x02
    277a:	fc 01       	movw	r30, r24
    277c:	86 8d       	ldd	r24, Z+30	; 0x1e
    277e:	88 23       	and	r24, r24
    2780:	71 f4       	brne	.+28     	; 0x279e <vQueueWaitForMessageRestricted+0x86>
		{
			/* There is nothing in the queue, block for the specified period. */
			vTaskPlaceOnEventListRestricted( &( pxQueue->xTasksWaitingToReceive ), xTicksToWait, xWaitIndefinitely );
    2782:	89 81       	ldd	r24, Y+1	; 0x01
    2784:	9a 81       	ldd	r25, Y+2	; 0x02
    2786:	fc 01       	movw	r30, r24
    2788:	73 96       	adiw	r30, 0x13	; 19
    278a:	8d 81       	ldd	r24, Y+5	; 0x05
    278c:	9e 81       	ldd	r25, Y+6	; 0x06
    278e:	af 81       	ldd	r26, Y+7	; 0x07
    2790:	b8 85       	ldd	r27, Y+8	; 0x08
    2792:	29 85       	ldd	r18, Y+9	; 0x09
    2794:	ac 01       	movw	r20, r24
    2796:	bd 01       	movw	r22, r26
    2798:	cf 01       	movw	r24, r30
    279a:	0e 94 39 19 	call	0x3272	; 0x3272 <vTaskPlaceOnEventListRestricted>
		}
		else
		{
			mtCOVERAGE_TEST_MARKER();
		}
		prvUnlockQueue( pxQueue );
    279e:	89 81       	ldd	r24, Y+1	; 0x01
    27a0:	9a 81       	ldd	r25, Y+2	; 0x02
    27a2:	0e 94 e1 12 	call	0x25c2	; 0x25c2 <prvUnlockQueue>
	}
    27a6:	00 00       	nop
    27a8:	29 96       	adiw	r28, 0x09	; 9
    27aa:	cd bf       	out	0x3d, r28	; 61
    27ac:	de bf       	out	0x3e, r29	; 62
    27ae:	df 91       	pop	r29
    27b0:	cf 91       	pop	r28
    27b2:	08 95       	ret

000027b4 <xTaskCreate>:
			}
		}
		taskEXIT_CRITICAL();

		return xReturn;
	}
    27b4:	8f 92       	push	r8
    27b6:	9f 92       	push	r9
    27b8:	af 92       	push	r10
    27ba:	bf 92       	push	r11
    27bc:	cf 92       	push	r12
    27be:	df 92       	push	r13
    27c0:	ef 92       	push	r14
    27c2:	ff 92       	push	r15
    27c4:	0f 93       	push	r16
    27c6:	1f 93       	push	r17
    27c8:	cf 93       	push	r28
    27ca:	df 93       	push	r29
    27cc:	cd b7       	in	r28, 0x3d	; 61
    27ce:	de b7       	in	r29, 0x3e	; 62
    27d0:	60 97       	sbiw	r28, 0x10	; 16
    27d2:	cd bf       	out	0x3d, r28	; 61
    27d4:	de bf       	out	0x3e, r29	; 62
    27d6:	8e 83       	std	Y+6, r24	; 0x06
    27d8:	9f 83       	std	Y+7, r25	; 0x07
    27da:	68 87       	std	Y+8, r22	; 0x08
    27dc:	79 87       	std	Y+9, r23	; 0x09
    27de:	4a 87       	std	Y+10, r20	; 0x0a
    27e0:	5b 87       	std	Y+11, r21	; 0x0b
    27e2:	2c 87       	std	Y+12, r18	; 0x0c
    27e4:	3d 87       	std	Y+13, r19	; 0x0d
    27e6:	0e 87       	std	Y+14, r16	; 0x0e
    27e8:	ef 86       	std	Y+15, r14	; 0x0f
    27ea:	f8 8a       	std	Y+16, r15	; 0x10
    27ec:	8a 85       	ldd	r24, Y+10	; 0x0a
    27ee:	9b 85       	ldd	r25, Y+11	; 0x0b
    27f0:	0e 94 d3 08 	call	0x11a6	; 0x11a6 <pvPortMalloc>
    27f4:	8c 83       	std	Y+4, r24	; 0x04
    27f6:	9d 83       	std	Y+5, r25	; 0x05
    27f8:	8c 81       	ldd	r24, Y+4	; 0x04
    27fa:	9d 81       	ldd	r25, Y+5	; 0x05
    27fc:	89 2b       	or	r24, r25
    27fe:	b9 f0       	breq	.+46     	; 0x282e <xTaskCreate+0x7a>
    2800:	8c e2       	ldi	r24, 0x2C	; 44
    2802:	90 e0       	ldi	r25, 0x00	; 0
    2804:	0e 94 d3 08 	call	0x11a6	; 0x11a6 <pvPortMalloc>
    2808:	89 83       	std	Y+1, r24	; 0x01
    280a:	9a 83       	std	Y+2, r25	; 0x02
    280c:	89 81       	ldd	r24, Y+1	; 0x01
    280e:	9a 81       	ldd	r25, Y+2	; 0x02
    2810:	89 2b       	or	r24, r25
    2812:	41 f0       	breq	.+16     	; 0x2824 <xTaskCreate+0x70>
    2814:	89 81       	ldd	r24, Y+1	; 0x01
    2816:	9a 81       	ldd	r25, Y+2	; 0x02
    2818:	2c 81       	ldd	r18, Y+4	; 0x04
    281a:	3d 81       	ldd	r19, Y+5	; 0x05
    281c:	fc 01       	movw	r30, r24
    281e:	23 8f       	std	Z+27, r18	; 0x1b
    2820:	34 8f       	std	Z+28, r19	; 0x1c
    2822:	07 c0       	rjmp	.+14     	; 0x2832 <xTaskCreate+0x7e>
    2824:	8c 81       	ldd	r24, Y+4	; 0x04
    2826:	9d 81       	ldd	r25, Y+5	; 0x05
    2828:	0e 94 17 09 	call	0x122e	; 0x122e <vPortFree>
    282c:	02 c0       	rjmp	.+4      	; 0x2832 <xTaskCreate+0x7e>
    282e:	19 82       	std	Y+1, r1	; 0x01
    2830:	1a 82       	std	Y+2, r1	; 0x02
    2832:	89 81       	ldd	r24, Y+1	; 0x01
    2834:	9a 81       	ldd	r25, Y+2	; 0x02
    2836:	89 2b       	or	r24, r25
    2838:	09 f1       	breq	.+66     	; 0x287c <xTaskCreate+0xc8>
    283a:	8a 85       	ldd	r24, Y+10	; 0x0a
    283c:	9b 85       	ldd	r25, Y+11	; 0x0b
    283e:	cc 01       	movw	r24, r24
    2840:	a0 e0       	ldi	r26, 0x00	; 0
    2842:	b0 e0       	ldi	r27, 0x00	; 0
    2844:	09 81       	ldd	r16, Y+1	; 0x01
    2846:	1a 81       	ldd	r17, Y+2	; 0x02
    2848:	4f 85       	ldd	r20, Y+15	; 0x0f
    284a:	58 89       	ldd	r21, Y+16	; 0x10
    284c:	2c 85       	ldd	r18, Y+12	; 0x0c
    284e:	3d 85       	ldd	r19, Y+13	; 0x0d
    2850:	68 85       	ldd	r22, Y+8	; 0x08
    2852:	79 85       	ldd	r23, Y+9	; 0x09
    2854:	ee 81       	ldd	r30, Y+6	; 0x06
    2856:	ff 81       	ldd	r31, Y+7	; 0x07
    2858:	81 2c       	mov	r8, r1
    285a:	91 2c       	mov	r9, r1
    285c:	58 01       	movw	r10, r16
    285e:	6a 01       	movw	r12, r20
    2860:	ee 84       	ldd	r14, Y+14	; 0x0e
    2862:	89 01       	movw	r16, r18
    2864:	9c 01       	movw	r18, r24
    2866:	ad 01       	movw	r20, r26
    2868:	cf 01       	movw	r24, r30
    286a:	0e 94 51 14 	call	0x28a2	; 0x28a2 <prvInitialiseNewTask>
    286e:	89 81       	ldd	r24, Y+1	; 0x01
    2870:	9a 81       	ldd	r25, Y+2	; 0x02
    2872:	0e 94 27 15 	call	0x2a4e	; 0x2a4e <prvAddNewTaskToReadyList>
    2876:	81 e0       	ldi	r24, 0x01	; 1
    2878:	8b 83       	std	Y+3, r24	; 0x03
    287a:	02 c0       	rjmp	.+4      	; 0x2880 <xTaskCreate+0xcc>
    287c:	8f ef       	ldi	r24, 0xFF	; 255
    287e:	8b 83       	std	Y+3, r24	; 0x03
    2880:	8b 81       	ldd	r24, Y+3	; 0x03
    2882:	60 96       	adiw	r28, 0x10	; 16
    2884:	cd bf       	out	0x3d, r28	; 61
    2886:	de bf       	out	0x3e, r29	; 62
    2888:	df 91       	pop	r29
    288a:	cf 91       	pop	r28
    288c:	1f 91       	pop	r17
    288e:	0f 91       	pop	r16
    2890:	ff 90       	pop	r15
    2892:	ef 90       	pop	r14
    2894:	df 90       	pop	r13
    2896:	cf 90       	pop	r12
    2898:	bf 90       	pop	r11
    289a:	af 90       	pop	r10
    289c:	9f 90       	pop	r9
    289e:	8f 90       	pop	r8
    28a0:	08 95       	ret

000028a2 <prvInitialiseNewTask>:
    28a2:	8f 92       	push	r8
    28a4:	9f 92       	push	r9
    28a6:	af 92       	push	r10
    28a8:	bf 92       	push	r11
    28aa:	cf 92       	push	r12
    28ac:	df 92       	push	r13
    28ae:	ef 92       	push	r14
    28b0:	ff 92       	push	r15
    28b2:	0f 93       	push	r16
    28b4:	1f 93       	push	r17
    28b6:	cf 93       	push	r28
    28b8:	df 93       	push	r29
    28ba:	cd b7       	in	r28, 0x3d	; 61
    28bc:	de b7       	in	r29, 0x3e	; 62
    28be:	64 97       	sbiw	r28, 0x14	; 20
    28c0:	cd bf       	out	0x3d, r28	; 61
    28c2:	de bf       	out	0x3e, r29	; 62
    28c4:	8c 83       	std	Y+4, r24	; 0x04
    28c6:	9d 83       	std	Y+5, r25	; 0x05
    28c8:	6e 83       	std	Y+6, r22	; 0x06
    28ca:	7f 83       	std	Y+7, r23	; 0x07
    28cc:	28 87       	std	Y+8, r18	; 0x08
    28ce:	39 87       	std	Y+9, r19	; 0x09
    28d0:	4a 87       	std	Y+10, r20	; 0x0a
    28d2:	5b 87       	std	Y+11, r21	; 0x0b
    28d4:	0c 87       	std	Y+12, r16	; 0x0c
    28d6:	1d 87       	std	Y+13, r17	; 0x0d
    28d8:	ee 86       	std	Y+14, r14	; 0x0e
    28da:	cf 86       	std	Y+15, r12	; 0x0f
    28dc:	d8 8a       	std	Y+16, r13	; 0x10
    28de:	a9 8a       	std	Y+17, r10	; 0x11
    28e0:	ba 8a       	std	Y+18, r11	; 0x12
    28e2:	8b 8a       	std	Y+19, r8	; 0x13
    28e4:	9c 8a       	std	Y+20, r9	; 0x14
    28e6:	28 85       	ldd	r18, Y+8	; 0x08
    28e8:	39 85       	ldd	r19, Y+9	; 0x09
    28ea:	89 89       	ldd	r24, Y+17	; 0x11
    28ec:	9a 89       	ldd	r25, Y+18	; 0x12
    28ee:	fc 01       	movw	r30, r24
    28f0:	83 8d       	ldd	r24, Z+27	; 0x1b
    28f2:	94 8d       	ldd	r25, Z+28	; 0x1c
    28f4:	a9 01       	movw	r20, r18
    28f6:	65 ea       	ldi	r22, 0xA5	; 165
    28f8:	70 e0       	ldi	r23, 0x00	; 0
    28fa:	0e 94 db 34 	call	0x69b6	; 0x69b6 <memset>
    28fe:	89 89       	ldd	r24, Y+17	; 0x11
    2900:	9a 89       	ldd	r25, Y+18	; 0x12
    2902:	fc 01       	movw	r30, r24
    2904:	23 8d       	ldd	r18, Z+27	; 0x1b
    2906:	34 8d       	ldd	r19, Z+28	; 0x1c
    2908:	88 85       	ldd	r24, Y+8	; 0x08
    290a:	99 85       	ldd	r25, Y+9	; 0x09
    290c:	01 97       	sbiw	r24, 0x01	; 1
    290e:	82 0f       	add	r24, r18
    2910:	93 1f       	adc	r25, r19
    2912:	8a 83       	std	Y+2, r24	; 0x02
    2914:	9b 83       	std	Y+3, r25	; 0x03
    2916:	19 82       	std	Y+1, r1	; 0x01
    2918:	21 c0       	rjmp	.+66     	; 0x295c <prvInitialiseNewTask+0xba>
    291a:	89 81       	ldd	r24, Y+1	; 0x01
    291c:	88 2f       	mov	r24, r24
    291e:	90 e0       	ldi	r25, 0x00	; 0
    2920:	29 81       	ldd	r18, Y+1	; 0x01
    2922:	22 2f       	mov	r18, r18
    2924:	30 e0       	ldi	r19, 0x00	; 0
    2926:	4e 81       	ldd	r20, Y+6	; 0x06
    2928:	5f 81       	ldd	r21, Y+7	; 0x07
    292a:	24 0f       	add	r18, r20
    292c:	35 1f       	adc	r19, r21
    292e:	f9 01       	movw	r30, r18
    2930:	40 81       	ld	r20, Z
    2932:	29 89       	ldd	r18, Y+17	; 0x11
    2934:	3a 89       	ldd	r19, Y+18	; 0x12
    2936:	82 0f       	add	r24, r18
    2938:	93 1f       	adc	r25, r19
    293a:	4d 96       	adiw	r24, 0x1d	; 29
    293c:	fc 01       	movw	r30, r24
    293e:	40 83       	st	Z, r20
    2940:	89 81       	ldd	r24, Y+1	; 0x01
    2942:	88 2f       	mov	r24, r24
    2944:	90 e0       	ldi	r25, 0x00	; 0
    2946:	2e 81       	ldd	r18, Y+6	; 0x06
    2948:	3f 81       	ldd	r19, Y+7	; 0x07
    294a:	82 0f       	add	r24, r18
    294c:	93 1f       	adc	r25, r19
    294e:	fc 01       	movw	r30, r24
    2950:	80 81       	ld	r24, Z
    2952:	88 23       	and	r24, r24
    2954:	39 f0       	breq	.+14     	; 0x2964 <prvInitialiseNewTask+0xc2>
    2956:	89 81       	ldd	r24, Y+1	; 0x01
    2958:	8f 5f       	subi	r24, 0xFF	; 255
    295a:	89 83       	std	Y+1, r24	; 0x01
    295c:	89 81       	ldd	r24, Y+1	; 0x01
    295e:	88 30       	cpi	r24, 0x08	; 8
    2960:	e0 f2       	brcs	.-72     	; 0x291a <prvInitialiseNewTask+0x78>
    2962:	01 c0       	rjmp	.+2      	; 0x2966 <prvInitialiseNewTask+0xc4>
    2964:	00 00       	nop
    2966:	89 89       	ldd	r24, Y+17	; 0x11
    2968:	9a 89       	ldd	r25, Y+18	; 0x12
    296a:	fc 01       	movw	r30, r24
    296c:	14 a2       	std	Z+36, r1	; 0x24
    296e:	8e 85       	ldd	r24, Y+14	; 0x0e
    2970:	84 30       	cpi	r24, 0x04	; 4
    2972:	10 f0       	brcs	.+4      	; 0x2978 <prvInitialiseNewTask+0xd6>
    2974:	83 e0       	ldi	r24, 0x03	; 3
    2976:	8e 87       	std	Y+14, r24	; 0x0e
    2978:	89 89       	ldd	r24, Y+17	; 0x11
    297a:	9a 89       	ldd	r25, Y+18	; 0x12
    297c:	2e 85       	ldd	r18, Y+14	; 0x0e
    297e:	fc 01       	movw	r30, r24
    2980:	22 8f       	std	Z+26, r18	; 0x1a
    2982:	89 89       	ldd	r24, Y+17	; 0x11
    2984:	9a 89       	ldd	r25, Y+18	; 0x12
    2986:	02 96       	adiw	r24, 0x02	; 2
    2988:	0e 94 5f 09 	call	0x12be	; 0x12be <vListInitialiseItem>
    298c:	89 89       	ldd	r24, Y+17	; 0x11
    298e:	9a 89       	ldd	r25, Y+18	; 0x12
    2990:	0e 96       	adiw	r24, 0x0e	; 14
    2992:	0e 94 5f 09 	call	0x12be	; 0x12be <vListInitialiseItem>
    2996:	89 89       	ldd	r24, Y+17	; 0x11
    2998:	9a 89       	ldd	r25, Y+18	; 0x12
    299a:	29 89       	ldd	r18, Y+17	; 0x11
    299c:	3a 89       	ldd	r19, Y+18	; 0x12
    299e:	fc 01       	movw	r30, r24
    29a0:	22 87       	std	Z+10, r18	; 0x0a
    29a2:	33 87       	std	Z+11, r19	; 0x0b
    29a4:	8e 85       	ldd	r24, Y+14	; 0x0e
    29a6:	88 2f       	mov	r24, r24
    29a8:	90 e0       	ldi	r25, 0x00	; 0
    29aa:	a0 e0       	ldi	r26, 0x00	; 0
    29ac:	b0 e0       	ldi	r27, 0x00	; 0
    29ae:	24 e0       	ldi	r18, 0x04	; 4
    29b0:	30 e0       	ldi	r19, 0x00	; 0
    29b2:	40 e0       	ldi	r20, 0x00	; 0
    29b4:	50 e0       	ldi	r21, 0x00	; 0
    29b6:	79 01       	movw	r14, r18
    29b8:	8a 01       	movw	r16, r20
    29ba:	e8 1a       	sub	r14, r24
    29bc:	f9 0a       	sbc	r15, r25
    29be:	0a 0b       	sbc	r16, r26
    29c0:	1b 0b       	sbc	r17, r27
    29c2:	d8 01       	movw	r26, r16
    29c4:	c7 01       	movw	r24, r14
    29c6:	29 89       	ldd	r18, Y+17	; 0x11
    29c8:	3a 89       	ldd	r19, Y+18	; 0x12
    29ca:	f9 01       	movw	r30, r18
    29cc:	86 87       	std	Z+14, r24	; 0x0e
    29ce:	97 87       	std	Z+15, r25	; 0x0f
    29d0:	a0 8b       	std	Z+16, r26	; 0x10
    29d2:	b1 8b       	std	Z+17, r27	; 0x11
    29d4:	89 89       	ldd	r24, Y+17	; 0x11
    29d6:	9a 89       	ldd	r25, Y+18	; 0x12
    29d8:	29 89       	ldd	r18, Y+17	; 0x11
    29da:	3a 89       	ldd	r19, Y+18	; 0x12
    29dc:	fc 01       	movw	r30, r24
    29de:	26 8b       	std	Z+22, r18	; 0x16
    29e0:	37 8b       	std	Z+23, r19	; 0x17
    29e2:	89 89       	ldd	r24, Y+17	; 0x11
    29e4:	9a 89       	ldd	r25, Y+18	; 0x12
    29e6:	fc 01       	movw	r30, r24
    29e8:	17 a2       	std	Z+39, r1	; 0x27
    29ea:	10 a6       	std	Z+40, r1	; 0x28
    29ec:	11 a6       	std	Z+41, r1	; 0x29
    29ee:	12 a6       	std	Z+42, r1	; 0x2a
    29f0:	89 89       	ldd	r24, Y+17	; 0x11
    29f2:	9a 89       	ldd	r25, Y+18	; 0x12
    29f4:	fc 01       	movw	r30, r24
    29f6:	13 a6       	std	Z+43, r1	; 0x2b
    29f8:	4c 85       	ldd	r20, Y+12	; 0x0c
    29fa:	5d 85       	ldd	r21, Y+13	; 0x0d
    29fc:	2c 81       	ldd	r18, Y+4	; 0x04
    29fe:	3d 81       	ldd	r19, Y+5	; 0x05
    2a00:	8a 81       	ldd	r24, Y+2	; 0x02
    2a02:	9b 81       	ldd	r25, Y+3	; 0x03
    2a04:	b9 01       	movw	r22, r18
    2a06:	0e 94 ab 0a 	call	0x1556	; 0x1556 <pxPortInitialiseStack>
    2a0a:	9c 01       	movw	r18, r24
    2a0c:	89 89       	ldd	r24, Y+17	; 0x11
    2a0e:	9a 89       	ldd	r25, Y+18	; 0x12
    2a10:	fc 01       	movw	r30, r24
    2a12:	20 83       	st	Z, r18
    2a14:	31 83       	std	Z+1, r19	; 0x01
    2a16:	8f 85       	ldd	r24, Y+15	; 0x0f
    2a18:	98 89       	ldd	r25, Y+16	; 0x10
    2a1a:	89 2b       	or	r24, r25
    2a1c:	39 f0       	breq	.+14     	; 0x2a2c <prvInitialiseNewTask+0x18a>
    2a1e:	8f 85       	ldd	r24, Y+15	; 0x0f
    2a20:	98 89       	ldd	r25, Y+16	; 0x10
    2a22:	29 89       	ldd	r18, Y+17	; 0x11
    2a24:	3a 89       	ldd	r19, Y+18	; 0x12
    2a26:	fc 01       	movw	r30, r24
    2a28:	20 83       	st	Z, r18
    2a2a:	31 83       	std	Z+1, r19	; 0x01
    2a2c:	00 00       	nop
    2a2e:	64 96       	adiw	r28, 0x14	; 20
    2a30:	cd bf       	out	0x3d, r28	; 61
    2a32:	de bf       	out	0x3e, r29	; 62
    2a34:	df 91       	pop	r29
    2a36:	cf 91       	pop	r28
    2a38:	1f 91       	pop	r17
    2a3a:	0f 91       	pop	r16
    2a3c:	ff 90       	pop	r15
    2a3e:	ef 90       	pop	r14
    2a40:	df 90       	pop	r13
    2a42:	cf 90       	pop	r12
    2a44:	bf 90       	pop	r11
    2a46:	af 90       	pop	r10
    2a48:	9f 90       	pop	r9
    2a4a:	8f 90       	pop	r8
    2a4c:	08 95       	ret

00002a4e <prvAddNewTaskToReadyList>:
    2a4e:	cf 93       	push	r28
    2a50:	df 93       	push	r29
    2a52:	1f 92       	push	r1
    2a54:	1f 92       	push	r1
    2a56:	cd b7       	in	r28, 0x3d	; 61
    2a58:	de b7       	in	r29, 0x3e	; 62
    2a5a:	89 83       	std	Y+1, r24	; 0x01
    2a5c:	9a 83       	std	Y+2, r25	; 0x02
    2a5e:	f0 91 a2 00 	lds	r31, 0x00A2	; 0x8000a2 <__TEXT_REGION_LENGTH__+0x7000a2>
    2a62:	ff 93       	push	r31
    2a64:	f8 7f       	andi	r31, 0xF8	; 248
    2a66:	f0 93 a2 00 	sts	0x00A2, r31	; 0x8000a2 <__TEXT_REGION_LENGTH__+0x7000a2>
    2a6a:	80 91 ae 2c 	lds	r24, 0x2CAE	; 0x802cae <uxCurrentNumberOfTasks>
    2a6e:	8f 5f       	subi	r24, 0xFF	; 255
    2a70:	80 93 ae 2c 	sts	0x2CAE, r24	; 0x802cae <uxCurrentNumberOfTasks>
    2a74:	80 91 50 2c 	lds	r24, 0x2C50	; 0x802c50 <pxCurrentTCB>
    2a78:	90 91 51 2c 	lds	r25, 0x2C51	; 0x802c51 <pxCurrentTCB+0x1>
    2a7c:	89 2b       	or	r24, r25
    2a7e:	69 f4       	brne	.+26     	; 0x2a9a <prvAddNewTaskToReadyList+0x4c>
    2a80:	89 81       	ldd	r24, Y+1	; 0x01
    2a82:	9a 81       	ldd	r25, Y+2	; 0x02
    2a84:	80 93 50 2c 	sts	0x2C50, r24	; 0x802c50 <pxCurrentTCB>
    2a88:	90 93 51 2c 	sts	0x2C51, r25	; 0x802c51 <pxCurrentTCB+0x1>
    2a8c:	80 91 ae 2c 	lds	r24, 0x2CAE	; 0x802cae <uxCurrentNumberOfTasks>
    2a90:	81 30       	cpi	r24, 0x01	; 1
    2a92:	c9 f4       	brne	.+50     	; 0x2ac6 <prvAddNewTaskToReadyList+0x78>
    2a94:	0e 94 21 1b 	call	0x3642	; 0x3642 <prvInitialiseTaskLists>
    2a98:	16 c0       	rjmp	.+44     	; 0x2ac6 <prvAddNewTaskToReadyList+0x78>
    2a9a:	80 91 b4 2c 	lds	r24, 0x2CB4	; 0x802cb4 <xSchedulerRunning>
    2a9e:	88 23       	and	r24, r24
    2aa0:	91 f4       	brne	.+36     	; 0x2ac6 <prvAddNewTaskToReadyList+0x78>
    2aa2:	80 91 50 2c 	lds	r24, 0x2C50	; 0x802c50 <pxCurrentTCB>
    2aa6:	90 91 51 2c 	lds	r25, 0x2C51	; 0x802c51 <pxCurrentTCB+0x1>
    2aaa:	fc 01       	movw	r30, r24
    2aac:	22 8d       	ldd	r18, Z+26	; 0x1a
    2aae:	89 81       	ldd	r24, Y+1	; 0x01
    2ab0:	9a 81       	ldd	r25, Y+2	; 0x02
    2ab2:	fc 01       	movw	r30, r24
    2ab4:	82 8d       	ldd	r24, Z+26	; 0x1a
    2ab6:	82 17       	cp	r24, r18
    2ab8:	30 f0       	brcs	.+12     	; 0x2ac6 <prvAddNewTaskToReadyList+0x78>
    2aba:	89 81       	ldd	r24, Y+1	; 0x01
    2abc:	9a 81       	ldd	r25, Y+2	; 0x02
    2abe:	80 93 50 2c 	sts	0x2C50, r24	; 0x802c50 <pxCurrentTCB>
    2ac2:	90 93 51 2c 	sts	0x2C51, r25	; 0x802c51 <pxCurrentTCB+0x1>
    2ac6:	80 91 b8 2c 	lds	r24, 0x2CB8	; 0x802cb8 <uxTaskNumber>
    2aca:	8f 5f       	subi	r24, 0xFF	; 255
    2acc:	80 93 b8 2c 	sts	0x2CB8, r24	; 0x802cb8 <uxTaskNumber>
    2ad0:	20 91 b8 2c 	lds	r18, 0x2CB8	; 0x802cb8 <uxTaskNumber>
    2ad4:	89 81       	ldd	r24, Y+1	; 0x01
    2ad6:	9a 81       	ldd	r25, Y+2	; 0x02
    2ad8:	fc 01       	movw	r30, r24
    2ada:	25 a3       	std	Z+37, r18	; 0x25
    2adc:	89 81       	ldd	r24, Y+1	; 0x01
    2ade:	9a 81       	ldd	r25, Y+2	; 0x02
    2ae0:	fc 01       	movw	r30, r24
    2ae2:	92 8d       	ldd	r25, Z+26	; 0x1a
    2ae4:	80 91 b3 2c 	lds	r24, 0x2CB3	; 0x802cb3 <uxTopReadyPriority>
    2ae8:	89 17       	cp	r24, r25
    2aea:	30 f4       	brcc	.+12     	; 0x2af8 <prvAddNewTaskToReadyList+0xaa>
    2aec:	89 81       	ldd	r24, Y+1	; 0x01
    2aee:	9a 81       	ldd	r25, Y+2	; 0x02
    2af0:	fc 01       	movw	r30, r24
    2af2:	82 8d       	ldd	r24, Z+26	; 0x1a
    2af4:	80 93 b3 2c 	sts	0x2CB3, r24	; 0x802cb3 <uxTopReadyPriority>
    2af8:	89 81       	ldd	r24, Y+1	; 0x01
    2afa:	9a 81       	ldd	r25, Y+2	; 0x02
    2afc:	ac 01       	movw	r20, r24
    2afe:	4e 5f       	subi	r20, 0xFE	; 254
    2b00:	5f 4f       	sbci	r21, 0xFF	; 255
    2b02:	89 81       	ldd	r24, Y+1	; 0x01
    2b04:	9a 81       	ldd	r25, Y+2	; 0x02
    2b06:	fc 01       	movw	r30, r24
    2b08:	82 8d       	ldd	r24, Z+26	; 0x1a
    2b0a:	28 2f       	mov	r18, r24
    2b0c:	30 e0       	ldi	r19, 0x00	; 0
    2b0e:	6b e0       	ldi	r22, 0x0B	; 11
    2b10:	62 9f       	mul	r22, r18
    2b12:	c0 01       	movw	r24, r0
    2b14:	63 9f       	mul	r22, r19
    2b16:	90 0d       	add	r25, r0
    2b18:	11 24       	eor	r1, r1
    2b1a:	8e 5a       	subi	r24, 0xAE	; 174
    2b1c:	93 4d       	sbci	r25, 0xD3	; 211
    2b1e:	ba 01       	movw	r22, r20
    2b20:	0e 94 72 09 	call	0x12e4	; 0x12e4 <vListInsertEnd>
    2b24:	ff 91       	pop	r31
    2b26:	f0 93 a2 00 	sts	0x00A2, r31	; 0x8000a2 <__TEXT_REGION_LENGTH__+0x7000a2>
    2b2a:	80 91 b4 2c 	lds	r24, 0x2CB4	; 0x802cb4 <xSchedulerRunning>
    2b2e:	88 23       	and	r24, r24
    2b30:	71 f0       	breq	.+28     	; 0x2b4e <prvAddNewTaskToReadyList+0x100>
    2b32:	80 91 50 2c 	lds	r24, 0x2C50	; 0x802c50 <pxCurrentTCB>
    2b36:	90 91 51 2c 	lds	r25, 0x2C51	; 0x802c51 <pxCurrentTCB+0x1>
    2b3a:	fc 01       	movw	r30, r24
    2b3c:	22 8d       	ldd	r18, Z+26	; 0x1a
    2b3e:	89 81       	ldd	r24, Y+1	; 0x01
    2b40:	9a 81       	ldd	r25, Y+2	; 0x02
    2b42:	fc 01       	movw	r30, r24
    2b44:	82 8d       	ldd	r24, Z+26	; 0x1a
    2b46:	28 17       	cp	r18, r24
    2b48:	10 f4       	brcc	.+4      	; 0x2b4e <prvAddNewTaskToReadyList+0x100>
    2b4a:	0e 94 bc 0c 	call	0x1978	; 0x1978 <vPortYield>
    2b4e:	00 00       	nop
    2b50:	0f 90       	pop	r0
    2b52:	0f 90       	pop	r0
    2b54:	df 91       	pop	r29
    2b56:	cf 91       	pop	r28
    2b58:	08 95       	ret

00002b5a <vTaskDelay>:
    2b5a:	cf 93       	push	r28
    2b5c:	df 93       	push	r29
    2b5e:	cd b7       	in	r28, 0x3d	; 61
    2b60:	de b7       	in	r29, 0x3e	; 62
    2b62:	25 97       	sbiw	r28, 0x05	; 5
    2b64:	cd bf       	out	0x3d, r28	; 61
    2b66:	de bf       	out	0x3e, r29	; 62
    2b68:	6a 83       	std	Y+2, r22	; 0x02
    2b6a:	7b 83       	std	Y+3, r23	; 0x03
    2b6c:	8c 83       	std	Y+4, r24	; 0x04
    2b6e:	9d 83       	std	Y+5, r25	; 0x05
    2b70:	19 82       	std	Y+1, r1	; 0x01
    2b72:	8a 81       	ldd	r24, Y+2	; 0x02
    2b74:	9b 81       	ldd	r25, Y+3	; 0x03
    2b76:	ac 81       	ldd	r26, Y+4	; 0x04
    2b78:	bd 81       	ldd	r27, Y+5	; 0x05
    2b7a:	89 2b       	or	r24, r25
    2b7c:	8a 2b       	or	r24, r26
    2b7e:	8b 2b       	or	r24, r27
    2b80:	71 f0       	breq	.+28     	; 0x2b9e <vTaskDelay+0x44>
    2b82:	0e 94 27 16 	call	0x2c4e	; 0x2c4e <vTaskSuspendAll>
    2b86:	8a 81       	ldd	r24, Y+2	; 0x02
    2b88:	9b 81       	ldd	r25, Y+3	; 0x03
    2b8a:	ac 81       	ldd	r26, Y+4	; 0x04
    2b8c:	bd 81       	ldd	r27, Y+5	; 0x05
    2b8e:	40 e0       	ldi	r20, 0x00	; 0
    2b90:	bc 01       	movw	r22, r24
    2b92:	cd 01       	movw	r24, r26
    2b94:	0e 94 fe 1b 	call	0x37fc	; 0x37fc <prvAddCurrentTaskToDelayedList>
    2b98:	0e 94 34 16 	call	0x2c68	; 0x2c68 <xTaskResumeAll>
    2b9c:	89 83       	std	Y+1, r24	; 0x01
    2b9e:	89 81       	ldd	r24, Y+1	; 0x01
    2ba0:	88 23       	and	r24, r24
    2ba2:	11 f4       	brne	.+4      	; 0x2ba8 <vTaskDelay+0x4e>
    2ba4:	0e 94 bc 0c 	call	0x1978	; 0x1978 <vPortYield>
    2ba8:	00 00       	nop
    2baa:	25 96       	adiw	r28, 0x05	; 5
    2bac:	cd bf       	out	0x3d, r28	; 61
    2bae:	de bf       	out	0x3e, r29	; 62
    2bb0:	df 91       	pop	r29
    2bb2:	cf 91       	pop	r28
    2bb4:	08 95       	ret

00002bb6 <vTaskStartScheduler>:
    2bb6:	ef 92       	push	r14
    2bb8:	ff 92       	push	r15
    2bba:	0f 93       	push	r16
    2bbc:	cf 93       	push	r28
    2bbe:	df 93       	push	r29
    2bc0:	1f 92       	push	r1
    2bc2:	cd b7       	in	r28, 0x3d	; 61
    2bc4:	de b7       	in	r29, 0x3e	; 62
    2bc6:	0f 2e       	mov	r0, r31
    2bc8:	fd eb       	ldi	r31, 0xBD	; 189
    2bca:	ef 2e       	mov	r14, r31
    2bcc:	fc e2       	ldi	r31, 0x2C	; 44
    2bce:	ff 2e       	mov	r15, r31
    2bd0:	f0 2d       	mov	r31, r0
    2bd2:	00 e0       	ldi	r16, 0x00	; 0
    2bd4:	20 e0       	ldi	r18, 0x00	; 0
    2bd6:	30 e0       	ldi	r19, 0x00	; 0
    2bd8:	48 ec       	ldi	r20, 0xC8	; 200
    2bda:	50 e0       	ldi	r21, 0x00	; 0
    2bdc:	61 e0       	ldi	r22, 0x01	; 1
    2bde:	70 e2       	ldi	r23, 0x20	; 32
    2be0:	8e e0       	ldi	r24, 0x0E	; 14
    2be2:	9b e1       	ldi	r25, 0x1B	; 27
    2be4:	0e 94 da 13 	call	0x27b4	; 0x27b4 <xTaskCreate>
    2be8:	89 83       	std	Y+1, r24	; 0x01
    2bea:	89 81       	ldd	r24, Y+1	; 0x01
    2bec:	81 30       	cpi	r24, 0x01	; 1
    2bee:	19 f4       	brne	.+6      	; 0x2bf6 <vTaskStartScheduler+0x40>
    2bf0:	0e 94 9f 1c 	call	0x393e	; 0x393e <xTimerCreateTimerTask>
    2bf4:	89 83       	std	Y+1, r24	; 0x01
    2bf6:	89 81       	ldd	r24, Y+1	; 0x01
    2bf8:	81 30       	cpi	r24, 0x01	; 1
    2bfa:	09 f5       	brne	.+66     	; 0x2c3e <vTaskStartScheduler+0x88>
    2bfc:	80 ea       	ldi	r24, 0xA0	; 160
    2bfe:	90 e0       	ldi	r25, 0x00	; 0
    2c00:	20 ea       	ldi	r18, 0xA0	; 160
    2c02:	30 e0       	ldi	r19, 0x00	; 0
    2c04:	f9 01       	movw	r30, r18
    2c06:	22 81       	ldd	r18, Z+2	; 0x02
    2c08:	28 7f       	andi	r18, 0xF8	; 248
    2c0a:	fc 01       	movw	r30, r24
    2c0c:	22 83       	std	Z+2, r18	; 0x02
    2c0e:	8f ef       	ldi	r24, 0xFF	; 255
    2c10:	9f ef       	ldi	r25, 0xFF	; 255
    2c12:	dc 01       	movw	r26, r24
    2c14:	80 93 b9 2c 	sts	0x2CB9, r24	; 0x802cb9 <xNextTaskUnblockTime>
    2c18:	90 93 ba 2c 	sts	0x2CBA, r25	; 0x802cba <xNextTaskUnblockTime+0x1>
    2c1c:	a0 93 bb 2c 	sts	0x2CBB, r26	; 0x802cbb <xNextTaskUnblockTime+0x2>
    2c20:	b0 93 bc 2c 	sts	0x2CBC, r27	; 0x802cbc <xNextTaskUnblockTime+0x3>
    2c24:	81 e0       	ldi	r24, 0x01	; 1
    2c26:	80 93 b4 2c 	sts	0x2CB4, r24	; 0x802cb4 <xSchedulerRunning>
    2c2a:	10 92 af 2c 	sts	0x2CAF, r1	; 0x802caf <xTickCount>
    2c2e:	10 92 b0 2c 	sts	0x2CB0, r1	; 0x802cb0 <xTickCount+0x1>
    2c32:	10 92 b1 2c 	sts	0x2CB1, r1	; 0x802cb1 <xTickCount+0x2>
    2c36:	10 92 b2 2c 	sts	0x2CB2, r1	; 0x802cb2 <xTickCount+0x3>
    2c3a:	0e 94 84 0c 	call	0x1908	; 0x1908 <xPortStartScheduler>
    2c3e:	00 00       	nop
    2c40:	0f 90       	pop	r0
    2c42:	df 91       	pop	r29
    2c44:	cf 91       	pop	r28
    2c46:	0f 91       	pop	r16
    2c48:	ff 90       	pop	r15
    2c4a:	ef 90       	pop	r14
    2c4c:	08 95       	ret

00002c4e <vTaskSuspendAll>:
    2c4e:	cf 93       	push	r28
    2c50:	df 93       	push	r29
    2c52:	cd b7       	in	r28, 0x3d	; 61
    2c54:	de b7       	in	r29, 0x3e	; 62
    2c56:	80 91 bf 2c 	lds	r24, 0x2CBF	; 0x802cbf <uxSchedulerSuspended>
    2c5a:	8f 5f       	subi	r24, 0xFF	; 255
    2c5c:	80 93 bf 2c 	sts	0x2CBF, r24	; 0x802cbf <uxSchedulerSuspended>
    2c60:	00 00       	nop
    2c62:	df 91       	pop	r29
    2c64:	cf 91       	pop	r28
    2c66:	08 95       	ret

00002c68 <xTaskResumeAll>:
    2c68:	cf 93       	push	r28
    2c6a:	df 93       	push	r29
    2c6c:	00 d0       	rcall	.+0      	; 0x2c6e <xTaskResumeAll+0x6>
    2c6e:	1f 92       	push	r1
    2c70:	cd b7       	in	r28, 0x3d	; 61
    2c72:	de b7       	in	r29, 0x3e	; 62
    2c74:	19 82       	std	Y+1, r1	; 0x01
    2c76:	1a 82       	std	Y+2, r1	; 0x02
    2c78:	1b 82       	std	Y+3, r1	; 0x03
    2c7a:	f0 91 a2 00 	lds	r31, 0x00A2	; 0x8000a2 <__TEXT_REGION_LENGTH__+0x7000a2>
    2c7e:	ff 93       	push	r31
    2c80:	f8 7f       	andi	r31, 0xF8	; 248
    2c82:	f0 93 a2 00 	sts	0x00A2, r31	; 0x8000a2 <__TEXT_REGION_LENGTH__+0x7000a2>
    2c86:	80 91 bf 2c 	lds	r24, 0x2CBF	; 0x802cbf <uxSchedulerSuspended>
    2c8a:	81 50       	subi	r24, 0x01	; 1
    2c8c:	80 93 bf 2c 	sts	0x2CBF, r24	; 0x802cbf <uxSchedulerSuspended>
    2c90:	80 91 bf 2c 	lds	r24, 0x2CBF	; 0x802cbf <uxSchedulerSuspended>
    2c94:	88 23       	and	r24, r24
    2c96:	09 f0       	breq	.+2      	; 0x2c9a <xTaskResumeAll+0x32>
    2c98:	74 c0       	rjmp	.+232    	; 0x2d82 <xTaskResumeAll+0x11a>
    2c9a:	80 91 ae 2c 	lds	r24, 0x2CAE	; 0x802cae <uxCurrentNumberOfTasks>
    2c9e:	88 23       	and	r24, r24
    2ca0:	09 f4       	brne	.+2      	; 0x2ca4 <xTaskResumeAll+0x3c>
    2ca2:	6f c0       	rjmp	.+222    	; 0x2d82 <xTaskResumeAll+0x11a>
    2ca4:	46 c0       	rjmp	.+140    	; 0x2d32 <xTaskResumeAll+0xca>
    2ca6:	80 91 9f 2c 	lds	r24, 0x2C9F	; 0x802c9f <xPendingReadyList+0x7>
    2caa:	90 91 a0 2c 	lds	r25, 0x2CA0	; 0x802ca0 <xPendingReadyList+0x8>
    2cae:	fc 01       	movw	r30, r24
    2cb0:	80 85       	ldd	r24, Z+8	; 0x08
    2cb2:	91 85       	ldd	r25, Z+9	; 0x09
    2cb4:	89 83       	std	Y+1, r24	; 0x01
    2cb6:	9a 83       	std	Y+2, r25	; 0x02
    2cb8:	89 81       	ldd	r24, Y+1	; 0x01
    2cba:	9a 81       	ldd	r25, Y+2	; 0x02
    2cbc:	0e 96       	adiw	r24, 0x0e	; 14
    2cbe:	0e 94 3e 0a 	call	0x147c	; 0x147c <uxListRemove>
    2cc2:	89 81       	ldd	r24, Y+1	; 0x01
    2cc4:	9a 81       	ldd	r25, Y+2	; 0x02
    2cc6:	02 96       	adiw	r24, 0x02	; 2
    2cc8:	0e 94 3e 0a 	call	0x147c	; 0x147c <uxListRemove>
    2ccc:	89 81       	ldd	r24, Y+1	; 0x01
    2cce:	9a 81       	ldd	r25, Y+2	; 0x02
    2cd0:	fc 01       	movw	r30, r24
    2cd2:	92 8d       	ldd	r25, Z+26	; 0x1a
    2cd4:	80 91 b3 2c 	lds	r24, 0x2CB3	; 0x802cb3 <uxTopReadyPriority>
    2cd8:	89 17       	cp	r24, r25
    2cda:	30 f4       	brcc	.+12     	; 0x2ce8 <xTaskResumeAll+0x80>
    2cdc:	89 81       	ldd	r24, Y+1	; 0x01
    2cde:	9a 81       	ldd	r25, Y+2	; 0x02
    2ce0:	fc 01       	movw	r30, r24
    2ce2:	82 8d       	ldd	r24, Z+26	; 0x1a
    2ce4:	80 93 b3 2c 	sts	0x2CB3, r24	; 0x802cb3 <uxTopReadyPriority>
    2ce8:	89 81       	ldd	r24, Y+1	; 0x01
    2cea:	9a 81       	ldd	r25, Y+2	; 0x02
    2cec:	ac 01       	movw	r20, r24
    2cee:	4e 5f       	subi	r20, 0xFE	; 254
    2cf0:	5f 4f       	sbci	r21, 0xFF	; 255
    2cf2:	89 81       	ldd	r24, Y+1	; 0x01
    2cf4:	9a 81       	ldd	r25, Y+2	; 0x02
    2cf6:	fc 01       	movw	r30, r24
    2cf8:	82 8d       	ldd	r24, Z+26	; 0x1a
    2cfa:	28 2f       	mov	r18, r24
    2cfc:	30 e0       	ldi	r19, 0x00	; 0
    2cfe:	6b e0       	ldi	r22, 0x0B	; 11
    2d00:	62 9f       	mul	r22, r18
    2d02:	c0 01       	movw	r24, r0
    2d04:	63 9f       	mul	r22, r19
    2d06:	90 0d       	add	r25, r0
    2d08:	11 24       	eor	r1, r1
    2d0a:	8e 5a       	subi	r24, 0xAE	; 174
    2d0c:	93 4d       	sbci	r25, 0xD3	; 211
    2d0e:	ba 01       	movw	r22, r20
    2d10:	0e 94 72 09 	call	0x12e4	; 0x12e4 <vListInsertEnd>
    2d14:	89 81       	ldd	r24, Y+1	; 0x01
    2d16:	9a 81       	ldd	r25, Y+2	; 0x02
    2d18:	fc 01       	movw	r30, r24
    2d1a:	22 8d       	ldd	r18, Z+26	; 0x1a
    2d1c:	80 91 50 2c 	lds	r24, 0x2C50	; 0x802c50 <pxCurrentTCB>
    2d20:	90 91 51 2c 	lds	r25, 0x2C51	; 0x802c51 <pxCurrentTCB+0x1>
    2d24:	fc 01       	movw	r30, r24
    2d26:	82 8d       	ldd	r24, Z+26	; 0x1a
    2d28:	28 17       	cp	r18, r24
    2d2a:	18 f0       	brcs	.+6      	; 0x2d32 <xTaskResumeAll+0xca>
    2d2c:	81 e0       	ldi	r24, 0x01	; 1
    2d2e:	80 93 b6 2c 	sts	0x2CB6, r24	; 0x802cb6 <xYieldPending>
    2d32:	80 91 98 2c 	lds	r24, 0x2C98	; 0x802c98 <xPendingReadyList>
    2d36:	88 23       	and	r24, r24
    2d38:	09 f0       	breq	.+2      	; 0x2d3c <xTaskResumeAll+0xd4>
    2d3a:	b5 cf       	rjmp	.-150    	; 0x2ca6 <xTaskResumeAll+0x3e>
    2d3c:	89 81       	ldd	r24, Y+1	; 0x01
    2d3e:	9a 81       	ldd	r25, Y+2	; 0x02
    2d40:	89 2b       	or	r24, r25
    2d42:	11 f0       	breq	.+4      	; 0x2d48 <xTaskResumeAll+0xe0>
    2d44:	0e 94 64 1b 	call	0x36c8	; 0x36c8 <prvResetNextTaskUnblockTime>
    2d48:	80 91 b5 2c 	lds	r24, 0x2CB5	; 0x802cb5 <uxPendedTicks>
    2d4c:	8c 83       	std	Y+4, r24	; 0x04
    2d4e:	8c 81       	ldd	r24, Y+4	; 0x04
    2d50:	88 23       	and	r24, r24
    2d52:	79 f0       	breq	.+30     	; 0x2d72 <xTaskResumeAll+0x10a>
    2d54:	0e 94 f2 16 	call	0x2de4	; 0x2de4 <xTaskIncrementTick>
    2d58:	88 23       	and	r24, r24
    2d5a:	19 f0       	breq	.+6      	; 0x2d62 <xTaskResumeAll+0xfa>
    2d5c:	81 e0       	ldi	r24, 0x01	; 1
    2d5e:	80 93 b6 2c 	sts	0x2CB6, r24	; 0x802cb6 <xYieldPending>
    2d62:	8c 81       	ldd	r24, Y+4	; 0x04
    2d64:	81 50       	subi	r24, 0x01	; 1
    2d66:	8c 83       	std	Y+4, r24	; 0x04
    2d68:	8c 81       	ldd	r24, Y+4	; 0x04
    2d6a:	88 23       	and	r24, r24
    2d6c:	99 f7       	brne	.-26     	; 0x2d54 <xTaskResumeAll+0xec>
    2d6e:	10 92 b5 2c 	sts	0x2CB5, r1	; 0x802cb5 <uxPendedTicks>
    2d72:	80 91 b6 2c 	lds	r24, 0x2CB6	; 0x802cb6 <xYieldPending>
    2d76:	88 23       	and	r24, r24
    2d78:	21 f0       	breq	.+8      	; 0x2d82 <xTaskResumeAll+0x11a>
    2d7a:	81 e0       	ldi	r24, 0x01	; 1
    2d7c:	8b 83       	std	Y+3, r24	; 0x03
    2d7e:	0e 94 bc 0c 	call	0x1978	; 0x1978 <vPortYield>
    2d82:	ff 91       	pop	r31
    2d84:	f0 93 a2 00 	sts	0x00A2, r31	; 0x8000a2 <__TEXT_REGION_LENGTH__+0x7000a2>
    2d88:	8b 81       	ldd	r24, Y+3	; 0x03
    2d8a:	24 96       	adiw	r28, 0x04	; 4
    2d8c:	cd bf       	out	0x3d, r28	; 61
    2d8e:	de bf       	out	0x3e, r29	; 62
    2d90:	df 91       	pop	r29
    2d92:	cf 91       	pop	r28
    2d94:	08 95       	ret

00002d96 <xTaskGetTickCount>:
    2d96:	cf 93       	push	r28
    2d98:	df 93       	push	r29
    2d9a:	00 d0       	rcall	.+0      	; 0x2d9c <xTaskGetTickCount+0x6>
    2d9c:	1f 92       	push	r1
    2d9e:	cd b7       	in	r28, 0x3d	; 61
    2da0:	de b7       	in	r29, 0x3e	; 62
    2da2:	f0 91 a2 00 	lds	r31, 0x00A2	; 0x8000a2 <__TEXT_REGION_LENGTH__+0x7000a2>
    2da6:	ff 93       	push	r31
    2da8:	f8 7f       	andi	r31, 0xF8	; 248
    2daa:	f0 93 a2 00 	sts	0x00A2, r31	; 0x8000a2 <__TEXT_REGION_LENGTH__+0x7000a2>
    2dae:	80 91 af 2c 	lds	r24, 0x2CAF	; 0x802caf <xTickCount>
    2db2:	90 91 b0 2c 	lds	r25, 0x2CB0	; 0x802cb0 <xTickCount+0x1>
    2db6:	a0 91 b1 2c 	lds	r26, 0x2CB1	; 0x802cb1 <xTickCount+0x2>
    2dba:	b0 91 b2 2c 	lds	r27, 0x2CB2	; 0x802cb2 <xTickCount+0x3>
    2dbe:	89 83       	std	Y+1, r24	; 0x01
    2dc0:	9a 83       	std	Y+2, r25	; 0x02
    2dc2:	ab 83       	std	Y+3, r26	; 0x03
    2dc4:	bc 83       	std	Y+4, r27	; 0x04
    2dc6:	ff 91       	pop	r31
    2dc8:	f0 93 a2 00 	sts	0x00A2, r31	; 0x8000a2 <__TEXT_REGION_LENGTH__+0x7000a2>
    2dcc:	89 81       	ldd	r24, Y+1	; 0x01
    2dce:	9a 81       	ldd	r25, Y+2	; 0x02
    2dd0:	ab 81       	ldd	r26, Y+3	; 0x03
    2dd2:	bc 81       	ldd	r27, Y+4	; 0x04
    2dd4:	bc 01       	movw	r22, r24
    2dd6:	cd 01       	movw	r24, r26
    2dd8:	24 96       	adiw	r28, 0x04	; 4
    2dda:	cd bf       	out	0x3d, r28	; 61
    2ddc:	de bf       	out	0x3e, r29	; 62
    2dde:	df 91       	pop	r29
    2de0:	cf 91       	pop	r28
    2de2:	08 95       	ret

00002de4 <xTaskIncrementTick>:
    2de4:	cf 93       	push	r28
    2de6:	df 93       	push	r29
    2de8:	cd b7       	in	r28, 0x3d	; 61
    2dea:	de b7       	in	r29, 0x3e	; 62
    2dec:	2d 97       	sbiw	r28, 0x0d	; 13
    2dee:	cd bf       	out	0x3d, r28	; 61
    2df0:	de bf       	out	0x3e, r29	; 62
    2df2:	19 82       	std	Y+1, r1	; 0x01
    2df4:	80 91 bf 2c 	lds	r24, 0x2CBF	; 0x802cbf <uxSchedulerSuspended>
    2df8:	88 23       	and	r24, r24
    2dfa:	09 f0       	breq	.+2      	; 0x2dfe <xTaskIncrementTick+0x1a>
    2dfc:	f1 c0       	rjmp	.+482    	; 0x2fe0 <xTaskIncrementTick+0x1fc>
    2dfe:	80 91 af 2c 	lds	r24, 0x2CAF	; 0x802caf <xTickCount>
    2e02:	90 91 b0 2c 	lds	r25, 0x2CB0	; 0x802cb0 <xTickCount+0x1>
    2e06:	a0 91 b1 2c 	lds	r26, 0x2CB1	; 0x802cb1 <xTickCount+0x2>
    2e0a:	b0 91 b2 2c 	lds	r27, 0x2CB2	; 0x802cb2 <xTickCount+0x3>
    2e0e:	01 96       	adiw	r24, 0x01	; 1
    2e10:	a1 1d       	adc	r26, r1
    2e12:	b1 1d       	adc	r27, r1
    2e14:	8a 83       	std	Y+2, r24	; 0x02
    2e16:	9b 83       	std	Y+3, r25	; 0x03
    2e18:	ac 83       	std	Y+4, r26	; 0x04
    2e1a:	bd 83       	std	Y+5, r27	; 0x05
    2e1c:	8a 81       	ldd	r24, Y+2	; 0x02
    2e1e:	9b 81       	ldd	r25, Y+3	; 0x03
    2e20:	ac 81       	ldd	r26, Y+4	; 0x04
    2e22:	bd 81       	ldd	r27, Y+5	; 0x05
    2e24:	80 93 af 2c 	sts	0x2CAF, r24	; 0x802caf <xTickCount>
    2e28:	90 93 b0 2c 	sts	0x2CB0, r25	; 0x802cb0 <xTickCount+0x1>
    2e2c:	a0 93 b1 2c 	sts	0x2CB1, r26	; 0x802cb1 <xTickCount+0x2>
    2e30:	b0 93 b2 2c 	sts	0x2CB2, r27	; 0x802cb2 <xTickCount+0x3>
    2e34:	8a 81       	ldd	r24, Y+2	; 0x02
    2e36:	9b 81       	ldd	r25, Y+3	; 0x03
    2e38:	ac 81       	ldd	r26, Y+4	; 0x04
    2e3a:	bd 81       	ldd	r27, Y+5	; 0x05
    2e3c:	89 2b       	or	r24, r25
    2e3e:	8a 2b       	or	r24, r26
    2e40:	8b 2b       	or	r24, r27
    2e42:	d9 f4       	brne	.+54     	; 0x2e7a <xTaskIncrementTick+0x96>
    2e44:	80 91 94 2c 	lds	r24, 0x2C94	; 0x802c94 <pxDelayedTaskList>
    2e48:	90 91 95 2c 	lds	r25, 0x2C95	; 0x802c95 <pxDelayedTaskList+0x1>
    2e4c:	8e 83       	std	Y+6, r24	; 0x06
    2e4e:	9f 83       	std	Y+7, r25	; 0x07
    2e50:	80 91 96 2c 	lds	r24, 0x2C96	; 0x802c96 <pxOverflowDelayedTaskList>
    2e54:	90 91 97 2c 	lds	r25, 0x2C97	; 0x802c97 <pxOverflowDelayedTaskList+0x1>
    2e58:	80 93 94 2c 	sts	0x2C94, r24	; 0x802c94 <pxDelayedTaskList>
    2e5c:	90 93 95 2c 	sts	0x2C95, r25	; 0x802c95 <pxDelayedTaskList+0x1>
    2e60:	8e 81       	ldd	r24, Y+6	; 0x06
    2e62:	9f 81       	ldd	r25, Y+7	; 0x07
    2e64:	80 93 96 2c 	sts	0x2C96, r24	; 0x802c96 <pxOverflowDelayedTaskList>
    2e68:	90 93 97 2c 	sts	0x2C97, r25	; 0x802c97 <pxOverflowDelayedTaskList+0x1>
    2e6c:	80 91 b7 2c 	lds	r24, 0x2CB7	; 0x802cb7 <xNumOfOverflows>
    2e70:	8f 5f       	subi	r24, 0xFF	; 255
    2e72:	80 93 b7 2c 	sts	0x2CB7, r24	; 0x802cb7 <xNumOfOverflows>
    2e76:	0e 94 64 1b 	call	0x36c8	; 0x36c8 <prvResetNextTaskUnblockTime>
    2e7a:	80 91 b9 2c 	lds	r24, 0x2CB9	; 0x802cb9 <xNextTaskUnblockTime>
    2e7e:	90 91 ba 2c 	lds	r25, 0x2CBA	; 0x802cba <xNextTaskUnblockTime+0x1>
    2e82:	a0 91 bb 2c 	lds	r26, 0x2CBB	; 0x802cbb <xNextTaskUnblockTime+0x2>
    2e86:	b0 91 bc 2c 	lds	r27, 0x2CBC	; 0x802cbc <xNextTaskUnblockTime+0x3>
    2e8a:	2a 81       	ldd	r18, Y+2	; 0x02
    2e8c:	3b 81       	ldd	r19, Y+3	; 0x03
    2e8e:	4c 81       	ldd	r20, Y+4	; 0x04
    2e90:	5d 81       	ldd	r21, Y+5	; 0x05
    2e92:	28 17       	cp	r18, r24
    2e94:	39 07       	cpc	r19, r25
    2e96:	4a 07       	cpc	r20, r26
    2e98:	5b 07       	cpc	r21, r27
    2e9a:	08 f4       	brcc	.+2      	; 0x2e9e <xTaskIncrementTick+0xba>
    2e9c:	8a c0       	rjmp	.+276    	; 0x2fb2 <xTaskIncrementTick+0x1ce>
    2e9e:	80 91 94 2c 	lds	r24, 0x2C94	; 0x802c94 <pxDelayedTaskList>
    2ea2:	90 91 95 2c 	lds	r25, 0x2C95	; 0x802c95 <pxDelayedTaskList+0x1>
    2ea6:	fc 01       	movw	r30, r24
    2ea8:	80 81       	ld	r24, Z
    2eaa:	88 23       	and	r24, r24
    2eac:	61 f4       	brne	.+24     	; 0x2ec6 <xTaskIncrementTick+0xe2>
    2eae:	8f ef       	ldi	r24, 0xFF	; 255
    2eb0:	9f ef       	ldi	r25, 0xFF	; 255
    2eb2:	dc 01       	movw	r26, r24
    2eb4:	80 93 b9 2c 	sts	0x2CB9, r24	; 0x802cb9 <xNextTaskUnblockTime>
    2eb8:	90 93 ba 2c 	sts	0x2CBA, r25	; 0x802cba <xNextTaskUnblockTime+0x1>
    2ebc:	a0 93 bb 2c 	sts	0x2CBB, r26	; 0x802cbb <xNextTaskUnblockTime+0x2>
    2ec0:	b0 93 bc 2c 	sts	0x2CBC, r27	; 0x802cbc <xNextTaskUnblockTime+0x3>
    2ec4:	76 c0       	rjmp	.+236    	; 0x2fb2 <xTaskIncrementTick+0x1ce>
    2ec6:	80 91 94 2c 	lds	r24, 0x2C94	; 0x802c94 <pxDelayedTaskList>
    2eca:	90 91 95 2c 	lds	r25, 0x2C95	; 0x802c95 <pxDelayedTaskList+0x1>
    2ece:	fc 01       	movw	r30, r24
    2ed0:	87 81       	ldd	r24, Z+7	; 0x07
    2ed2:	90 85       	ldd	r25, Z+8	; 0x08
    2ed4:	fc 01       	movw	r30, r24
    2ed6:	80 85       	ldd	r24, Z+8	; 0x08
    2ed8:	91 85       	ldd	r25, Z+9	; 0x09
    2eda:	88 87       	std	Y+8, r24	; 0x08
    2edc:	99 87       	std	Y+9, r25	; 0x09
    2ede:	88 85       	ldd	r24, Y+8	; 0x08
    2ee0:	99 85       	ldd	r25, Y+9	; 0x09
    2ee2:	fc 01       	movw	r30, r24
    2ee4:	82 81       	ldd	r24, Z+2	; 0x02
    2ee6:	93 81       	ldd	r25, Z+3	; 0x03
    2ee8:	a4 81       	ldd	r26, Z+4	; 0x04
    2eea:	b5 81       	ldd	r27, Z+5	; 0x05
    2eec:	8a 87       	std	Y+10, r24	; 0x0a
    2eee:	9b 87       	std	Y+11, r25	; 0x0b
    2ef0:	ac 87       	std	Y+12, r26	; 0x0c
    2ef2:	bd 87       	std	Y+13, r27	; 0x0d
    2ef4:	2a 81       	ldd	r18, Y+2	; 0x02
    2ef6:	3b 81       	ldd	r19, Y+3	; 0x03
    2ef8:	4c 81       	ldd	r20, Y+4	; 0x04
    2efa:	5d 81       	ldd	r21, Y+5	; 0x05
    2efc:	8a 85       	ldd	r24, Y+10	; 0x0a
    2efe:	9b 85       	ldd	r25, Y+11	; 0x0b
    2f00:	ac 85       	ldd	r26, Y+12	; 0x0c
    2f02:	bd 85       	ldd	r27, Y+13	; 0x0d
    2f04:	28 17       	cp	r18, r24
    2f06:	39 07       	cpc	r19, r25
    2f08:	4a 07       	cpc	r20, r26
    2f0a:	5b 07       	cpc	r21, r27
    2f0c:	68 f4       	brcc	.+26     	; 0x2f28 <xTaskIncrementTick+0x144>
    2f0e:	8a 85       	ldd	r24, Y+10	; 0x0a
    2f10:	9b 85       	ldd	r25, Y+11	; 0x0b
    2f12:	ac 85       	ldd	r26, Y+12	; 0x0c
    2f14:	bd 85       	ldd	r27, Y+13	; 0x0d
    2f16:	80 93 b9 2c 	sts	0x2CB9, r24	; 0x802cb9 <xNextTaskUnblockTime>
    2f1a:	90 93 ba 2c 	sts	0x2CBA, r25	; 0x802cba <xNextTaskUnblockTime+0x1>
    2f1e:	a0 93 bb 2c 	sts	0x2CBB, r26	; 0x802cbb <xNextTaskUnblockTime+0x2>
    2f22:	b0 93 bc 2c 	sts	0x2CBC, r27	; 0x802cbc <xNextTaskUnblockTime+0x3>
    2f26:	45 c0       	rjmp	.+138    	; 0x2fb2 <xTaskIncrementTick+0x1ce>
    2f28:	88 85       	ldd	r24, Y+8	; 0x08
    2f2a:	99 85       	ldd	r25, Y+9	; 0x09
    2f2c:	02 96       	adiw	r24, 0x02	; 2
    2f2e:	0e 94 3e 0a 	call	0x147c	; 0x147c <uxListRemove>
    2f32:	88 85       	ldd	r24, Y+8	; 0x08
    2f34:	99 85       	ldd	r25, Y+9	; 0x09
    2f36:	fc 01       	movw	r30, r24
    2f38:	80 8d       	ldd	r24, Z+24	; 0x18
    2f3a:	91 8d       	ldd	r25, Z+25	; 0x19
    2f3c:	89 2b       	or	r24, r25
    2f3e:	29 f0       	breq	.+10     	; 0x2f4a <xTaskIncrementTick+0x166>
    2f40:	88 85       	ldd	r24, Y+8	; 0x08
    2f42:	99 85       	ldd	r25, Y+9	; 0x09
    2f44:	0e 96       	adiw	r24, 0x0e	; 14
    2f46:	0e 94 3e 0a 	call	0x147c	; 0x147c <uxListRemove>
    2f4a:	88 85       	ldd	r24, Y+8	; 0x08
    2f4c:	99 85       	ldd	r25, Y+9	; 0x09
    2f4e:	fc 01       	movw	r30, r24
    2f50:	92 8d       	ldd	r25, Z+26	; 0x1a
    2f52:	80 91 b3 2c 	lds	r24, 0x2CB3	; 0x802cb3 <uxTopReadyPriority>
    2f56:	89 17       	cp	r24, r25
    2f58:	30 f4       	brcc	.+12     	; 0x2f66 <xTaskIncrementTick+0x182>
    2f5a:	88 85       	ldd	r24, Y+8	; 0x08
    2f5c:	99 85       	ldd	r25, Y+9	; 0x09
    2f5e:	fc 01       	movw	r30, r24
    2f60:	82 8d       	ldd	r24, Z+26	; 0x1a
    2f62:	80 93 b3 2c 	sts	0x2CB3, r24	; 0x802cb3 <uxTopReadyPriority>
    2f66:	88 85       	ldd	r24, Y+8	; 0x08
    2f68:	99 85       	ldd	r25, Y+9	; 0x09
    2f6a:	ac 01       	movw	r20, r24
    2f6c:	4e 5f       	subi	r20, 0xFE	; 254
    2f6e:	5f 4f       	sbci	r21, 0xFF	; 255
    2f70:	88 85       	ldd	r24, Y+8	; 0x08
    2f72:	99 85       	ldd	r25, Y+9	; 0x09
    2f74:	fc 01       	movw	r30, r24
    2f76:	82 8d       	ldd	r24, Z+26	; 0x1a
    2f78:	28 2f       	mov	r18, r24
    2f7a:	30 e0       	ldi	r19, 0x00	; 0
    2f7c:	6b e0       	ldi	r22, 0x0B	; 11
    2f7e:	62 9f       	mul	r22, r18
    2f80:	c0 01       	movw	r24, r0
    2f82:	63 9f       	mul	r22, r19
    2f84:	90 0d       	add	r25, r0
    2f86:	11 24       	eor	r1, r1
    2f88:	8e 5a       	subi	r24, 0xAE	; 174
    2f8a:	93 4d       	sbci	r25, 0xD3	; 211
    2f8c:	ba 01       	movw	r22, r20
    2f8e:	0e 94 72 09 	call	0x12e4	; 0x12e4 <vListInsertEnd>
    2f92:	88 85       	ldd	r24, Y+8	; 0x08
    2f94:	99 85       	ldd	r25, Y+9	; 0x09
    2f96:	fc 01       	movw	r30, r24
    2f98:	22 8d       	ldd	r18, Z+26	; 0x1a
    2f9a:	80 91 50 2c 	lds	r24, 0x2C50	; 0x802c50 <pxCurrentTCB>
    2f9e:	90 91 51 2c 	lds	r25, 0x2C51	; 0x802c51 <pxCurrentTCB+0x1>
    2fa2:	fc 01       	movw	r30, r24
    2fa4:	82 8d       	ldd	r24, Z+26	; 0x1a
    2fa6:	28 17       	cp	r18, r24
    2fa8:	08 f4       	brcc	.+2      	; 0x2fac <xTaskIncrementTick+0x1c8>
    2faa:	79 cf       	rjmp	.-270    	; 0x2e9e <xTaskIncrementTick+0xba>
    2fac:	81 e0       	ldi	r24, 0x01	; 1
    2fae:	89 83       	std	Y+1, r24	; 0x01
    2fb0:	76 cf       	rjmp	.-276    	; 0x2e9e <xTaskIncrementTick+0xba>
    2fb2:	80 91 50 2c 	lds	r24, 0x2C50	; 0x802c50 <pxCurrentTCB>
    2fb6:	90 91 51 2c 	lds	r25, 0x2C51	; 0x802c51 <pxCurrentTCB+0x1>
    2fba:	fc 01       	movw	r30, r24
    2fbc:	82 8d       	ldd	r24, Z+26	; 0x1a
    2fbe:	28 2f       	mov	r18, r24
    2fc0:	30 e0       	ldi	r19, 0x00	; 0
    2fc2:	4b e0       	ldi	r20, 0x0B	; 11
    2fc4:	42 9f       	mul	r20, r18
    2fc6:	c0 01       	movw	r24, r0
    2fc8:	43 9f       	mul	r20, r19
    2fca:	90 0d       	add	r25, r0
    2fcc:	11 24       	eor	r1, r1
    2fce:	8e 5a       	subi	r24, 0xAE	; 174
    2fd0:	93 4d       	sbci	r25, 0xD3	; 211
    2fd2:	fc 01       	movw	r30, r24
    2fd4:	80 81       	ld	r24, Z
    2fd6:	82 30       	cpi	r24, 0x02	; 2
    2fd8:	40 f0       	brcs	.+16     	; 0x2fea <xTaskIncrementTick+0x206>
    2fda:	81 e0       	ldi	r24, 0x01	; 1
    2fdc:	89 83       	std	Y+1, r24	; 0x01
    2fde:	05 c0       	rjmp	.+10     	; 0x2fea <xTaskIncrementTick+0x206>
    2fe0:	80 91 b5 2c 	lds	r24, 0x2CB5	; 0x802cb5 <uxPendedTicks>
    2fe4:	8f 5f       	subi	r24, 0xFF	; 255
    2fe6:	80 93 b5 2c 	sts	0x2CB5, r24	; 0x802cb5 <uxPendedTicks>
    2fea:	80 91 b6 2c 	lds	r24, 0x2CB6	; 0x802cb6 <xYieldPending>
    2fee:	88 23       	and	r24, r24
    2ff0:	11 f0       	breq	.+4      	; 0x2ff6 <xTaskIncrementTick+0x212>
    2ff2:	81 e0       	ldi	r24, 0x01	; 1
    2ff4:	89 83       	std	Y+1, r24	; 0x01
    2ff6:	89 81       	ldd	r24, Y+1	; 0x01
    2ff8:	2d 96       	adiw	r28, 0x0d	; 13
    2ffa:	cd bf       	out	0x3d, r28	; 61
    2ffc:	de bf       	out	0x3e, r29	; 62
    2ffe:	df 91       	pop	r29
    3000:	cf 91       	pop	r28
    3002:	08 95       	ret

00003004 <vTaskSwitchContext>:
    3004:	cf 93       	push	r28
    3006:	df 93       	push	r29
    3008:	cd b7       	in	r28, 0x3d	; 61
    300a:	de b7       	in	r29, 0x3e	; 62
    300c:	29 97       	sbiw	r28, 0x09	; 9
    300e:	cd bf       	out	0x3d, r28	; 61
    3010:	de bf       	out	0x3e, r29	; 62
    3012:	80 91 bf 2c 	lds	r24, 0x2CBF	; 0x802cbf <uxSchedulerSuspended>
    3016:	88 23       	and	r24, r24
    3018:	21 f0       	breq	.+8      	; 0x3022 <vTaskSwitchContext+0x1e>
    301a:	81 e0       	ldi	r24, 0x01	; 1
    301c:	80 93 b6 2c 	sts	0x2CB6, r24	; 0x802cb6 <xYieldPending>
    3020:	ba c0       	rjmp	.+372    	; 0x3196 <vTaskSwitchContext+0x192>
    3022:	10 92 b6 2c 	sts	0x2CB6, r1	; 0x802cb6 <xYieldPending>
    3026:	80 91 50 2c 	lds	r24, 0x2C50	; 0x802c50 <pxCurrentTCB>
    302a:	90 91 51 2c 	lds	r25, 0x2C51	; 0x802c51 <pxCurrentTCB+0x1>
    302e:	fc 01       	movw	r30, r24
    3030:	83 8d       	ldd	r24, Z+27	; 0x1b
    3032:	94 8d       	ldd	r25, Z+28	; 0x1c
    3034:	8a 83       	std	Y+2, r24	; 0x02
    3036:	9b 83       	std	Y+3, r25	; 0x03
    3038:	85 ea       	ldi	r24, 0xA5	; 165
    303a:	95 ea       	ldi	r25, 0xA5	; 165
    303c:	dc 01       	movw	r26, r24
    303e:	8c 83       	std	Y+4, r24	; 0x04
    3040:	9d 83       	std	Y+5, r25	; 0x05
    3042:	ae 83       	std	Y+6, r26	; 0x06
    3044:	bf 83       	std	Y+7, r27	; 0x07
    3046:	8a 81       	ldd	r24, Y+2	; 0x02
    3048:	9b 81       	ldd	r25, Y+3	; 0x03
    304a:	fc 01       	movw	r30, r24
    304c:	20 81       	ld	r18, Z
    304e:	31 81       	ldd	r19, Z+1	; 0x01
    3050:	42 81       	ldd	r20, Z+2	; 0x02
    3052:	53 81       	ldd	r21, Z+3	; 0x03
    3054:	8c 81       	ldd	r24, Y+4	; 0x04
    3056:	9d 81       	ldd	r25, Y+5	; 0x05
    3058:	ae 81       	ldd	r26, Y+6	; 0x06
    305a:	bf 81       	ldd	r27, Y+7	; 0x07
    305c:	28 17       	cp	r18, r24
    305e:	39 07       	cpc	r19, r25
    3060:	4a 07       	cpc	r20, r26
    3062:	5b 07       	cpc	r21, r27
    3064:	99 f5       	brne	.+102    	; 0x30cc <vTaskSwitchContext+0xc8>
    3066:	8a 81       	ldd	r24, Y+2	; 0x02
    3068:	9b 81       	ldd	r25, Y+3	; 0x03
    306a:	04 96       	adiw	r24, 0x04	; 4
    306c:	fc 01       	movw	r30, r24
    306e:	20 81       	ld	r18, Z
    3070:	31 81       	ldd	r19, Z+1	; 0x01
    3072:	42 81       	ldd	r20, Z+2	; 0x02
    3074:	53 81       	ldd	r21, Z+3	; 0x03
    3076:	8c 81       	ldd	r24, Y+4	; 0x04
    3078:	9d 81       	ldd	r25, Y+5	; 0x05
    307a:	ae 81       	ldd	r26, Y+6	; 0x06
    307c:	bf 81       	ldd	r27, Y+7	; 0x07
    307e:	28 17       	cp	r18, r24
    3080:	39 07       	cpc	r19, r25
    3082:	4a 07       	cpc	r20, r26
    3084:	5b 07       	cpc	r21, r27
    3086:	11 f5       	brne	.+68     	; 0x30cc <vTaskSwitchContext+0xc8>
    3088:	8a 81       	ldd	r24, Y+2	; 0x02
    308a:	9b 81       	ldd	r25, Y+3	; 0x03
    308c:	08 96       	adiw	r24, 0x08	; 8
    308e:	fc 01       	movw	r30, r24
    3090:	20 81       	ld	r18, Z
    3092:	31 81       	ldd	r19, Z+1	; 0x01
    3094:	42 81       	ldd	r20, Z+2	; 0x02
    3096:	53 81       	ldd	r21, Z+3	; 0x03
    3098:	8c 81       	ldd	r24, Y+4	; 0x04
    309a:	9d 81       	ldd	r25, Y+5	; 0x05
    309c:	ae 81       	ldd	r26, Y+6	; 0x06
    309e:	bf 81       	ldd	r27, Y+7	; 0x07
    30a0:	28 17       	cp	r18, r24
    30a2:	39 07       	cpc	r19, r25
    30a4:	4a 07       	cpc	r20, r26
    30a6:	5b 07       	cpc	r21, r27
    30a8:	89 f4       	brne	.+34     	; 0x30cc <vTaskSwitchContext+0xc8>
    30aa:	8a 81       	ldd	r24, Y+2	; 0x02
    30ac:	9b 81       	ldd	r25, Y+3	; 0x03
    30ae:	0c 96       	adiw	r24, 0x0c	; 12
    30b0:	fc 01       	movw	r30, r24
    30b2:	20 81       	ld	r18, Z
    30b4:	31 81       	ldd	r19, Z+1	; 0x01
    30b6:	42 81       	ldd	r20, Z+2	; 0x02
    30b8:	53 81       	ldd	r21, Z+3	; 0x03
    30ba:	8c 81       	ldd	r24, Y+4	; 0x04
    30bc:	9d 81       	ldd	r25, Y+5	; 0x05
    30be:	ae 81       	ldd	r26, Y+6	; 0x06
    30c0:	bf 81       	ldd	r27, Y+7	; 0x07
    30c2:	28 17       	cp	r18, r24
    30c4:	39 07       	cpc	r19, r25
    30c6:	4a 07       	cpc	r20, r26
    30c8:	5b 07       	cpc	r21, r27
    30ca:	71 f0       	breq	.+28     	; 0x30e8 <vTaskSwitchContext+0xe4>
    30cc:	80 91 50 2c 	lds	r24, 0x2C50	; 0x802c50 <pxCurrentTCB>
    30d0:	90 91 51 2c 	lds	r25, 0x2C51	; 0x802c51 <pxCurrentTCB+0x1>
    30d4:	9c 01       	movw	r18, r24
    30d6:	23 5e       	subi	r18, 0xE3	; 227
    30d8:	3f 4f       	sbci	r19, 0xFF	; 255
    30da:	80 91 50 2c 	lds	r24, 0x2C50	; 0x802c50 <pxCurrentTCB>
    30de:	90 91 51 2c 	lds	r25, 0x2C51	; 0x802c51 <pxCurrentTCB+0x1>
    30e2:	b9 01       	movw	r22, r18
    30e4:	0e 94 4c 05 	call	0xa98	; 0xa98 <vApplicationStackOverflowHook>
    30e8:	80 91 b3 2c 	lds	r24, 0x2CB3	; 0x802cb3 <uxTopReadyPriority>
    30ec:	89 83       	std	Y+1, r24	; 0x01
    30ee:	03 c0       	rjmp	.+6      	; 0x30f6 <vTaskSwitchContext+0xf2>
    30f0:	89 81       	ldd	r24, Y+1	; 0x01
    30f2:	81 50       	subi	r24, 0x01	; 1
    30f4:	89 83       	std	Y+1, r24	; 0x01
    30f6:	89 81       	ldd	r24, Y+1	; 0x01
    30f8:	28 2f       	mov	r18, r24
    30fa:	30 e0       	ldi	r19, 0x00	; 0
    30fc:	4b e0       	ldi	r20, 0x0B	; 11
    30fe:	42 9f       	mul	r20, r18
    3100:	c0 01       	movw	r24, r0
    3102:	43 9f       	mul	r20, r19
    3104:	90 0d       	add	r25, r0
    3106:	11 24       	eor	r1, r1
    3108:	8e 5a       	subi	r24, 0xAE	; 174
    310a:	93 4d       	sbci	r25, 0xD3	; 211
    310c:	fc 01       	movw	r30, r24
    310e:	80 81       	ld	r24, Z
    3110:	88 23       	and	r24, r24
    3112:	71 f3       	breq	.-36     	; 0x30f0 <vTaskSwitchContext+0xec>
    3114:	89 81       	ldd	r24, Y+1	; 0x01
    3116:	28 2f       	mov	r18, r24
    3118:	30 e0       	ldi	r19, 0x00	; 0
    311a:	4b e0       	ldi	r20, 0x0B	; 11
    311c:	42 9f       	mul	r20, r18
    311e:	c0 01       	movw	r24, r0
    3120:	43 9f       	mul	r20, r19
    3122:	90 0d       	add	r25, r0
    3124:	11 24       	eor	r1, r1
    3126:	8e 5a       	subi	r24, 0xAE	; 174
    3128:	93 4d       	sbci	r25, 0xD3	; 211
    312a:	88 87       	std	Y+8, r24	; 0x08
    312c:	99 87       	std	Y+9, r25	; 0x09
    312e:	88 85       	ldd	r24, Y+8	; 0x08
    3130:	99 85       	ldd	r25, Y+9	; 0x09
    3132:	fc 01       	movw	r30, r24
    3134:	81 81       	ldd	r24, Z+1	; 0x01
    3136:	92 81       	ldd	r25, Z+2	; 0x02
    3138:	fc 01       	movw	r30, r24
    313a:	24 81       	ldd	r18, Z+4	; 0x04
    313c:	35 81       	ldd	r19, Z+5	; 0x05
    313e:	88 85       	ldd	r24, Y+8	; 0x08
    3140:	99 85       	ldd	r25, Y+9	; 0x09
    3142:	fc 01       	movw	r30, r24
    3144:	21 83       	std	Z+1, r18	; 0x01
    3146:	32 83       	std	Z+2, r19	; 0x02
    3148:	88 85       	ldd	r24, Y+8	; 0x08
    314a:	99 85       	ldd	r25, Y+9	; 0x09
    314c:	fc 01       	movw	r30, r24
    314e:	21 81       	ldd	r18, Z+1	; 0x01
    3150:	32 81       	ldd	r19, Z+2	; 0x02
    3152:	88 85       	ldd	r24, Y+8	; 0x08
    3154:	99 85       	ldd	r25, Y+9	; 0x09
    3156:	03 96       	adiw	r24, 0x03	; 3
    3158:	28 17       	cp	r18, r24
    315a:	39 07       	cpc	r19, r25
    315c:	69 f4       	brne	.+26     	; 0x3178 <vTaskSwitchContext+0x174>
    315e:	88 85       	ldd	r24, Y+8	; 0x08
    3160:	99 85       	ldd	r25, Y+9	; 0x09
    3162:	fc 01       	movw	r30, r24
    3164:	81 81       	ldd	r24, Z+1	; 0x01
    3166:	92 81       	ldd	r25, Z+2	; 0x02
    3168:	fc 01       	movw	r30, r24
    316a:	24 81       	ldd	r18, Z+4	; 0x04
    316c:	35 81       	ldd	r19, Z+5	; 0x05
    316e:	88 85       	ldd	r24, Y+8	; 0x08
    3170:	99 85       	ldd	r25, Y+9	; 0x09
    3172:	fc 01       	movw	r30, r24
    3174:	21 83       	std	Z+1, r18	; 0x01
    3176:	32 83       	std	Z+2, r19	; 0x02
    3178:	88 85       	ldd	r24, Y+8	; 0x08
    317a:	99 85       	ldd	r25, Y+9	; 0x09
    317c:	fc 01       	movw	r30, r24
    317e:	81 81       	ldd	r24, Z+1	; 0x01
    3180:	92 81       	ldd	r25, Z+2	; 0x02
    3182:	fc 01       	movw	r30, r24
    3184:	80 85       	ldd	r24, Z+8	; 0x08
    3186:	91 85       	ldd	r25, Z+9	; 0x09
    3188:	80 93 50 2c 	sts	0x2C50, r24	; 0x802c50 <pxCurrentTCB>
    318c:	90 93 51 2c 	sts	0x2C51, r25	; 0x802c51 <pxCurrentTCB+0x1>
    3190:	89 81       	ldd	r24, Y+1	; 0x01
    3192:	80 93 b3 2c 	sts	0x2CB3, r24	; 0x802cb3 <uxTopReadyPriority>
    3196:	00 00       	nop
    3198:	29 96       	adiw	r28, 0x09	; 9
    319a:	cd bf       	out	0x3d, r28	; 61
    319c:	de bf       	out	0x3e, r29	; 62
    319e:	df 91       	pop	r29
    31a0:	cf 91       	pop	r28
    31a2:	08 95       	ret

000031a4 <vTaskPlaceOnEventList>:
    31a4:	cf 93       	push	r28
    31a6:	df 93       	push	r29
    31a8:	00 d0       	rcall	.+0      	; 0x31aa <vTaskPlaceOnEventList+0x6>
    31aa:	00 d0       	rcall	.+0      	; 0x31ac <vTaskPlaceOnEventList+0x8>
    31ac:	cd b7       	in	r28, 0x3d	; 61
    31ae:	de b7       	in	r29, 0x3e	; 62
    31b0:	89 83       	std	Y+1, r24	; 0x01
    31b2:	9a 83       	std	Y+2, r25	; 0x02
    31b4:	4b 83       	std	Y+3, r20	; 0x03
    31b6:	5c 83       	std	Y+4, r21	; 0x04
    31b8:	6d 83       	std	Y+5, r22	; 0x05
    31ba:	7e 83       	std	Y+6, r23	; 0x06
    31bc:	80 91 50 2c 	lds	r24, 0x2C50	; 0x802c50 <pxCurrentTCB>
    31c0:	90 91 51 2c 	lds	r25, 0x2C51	; 0x802c51 <pxCurrentTCB+0x1>
    31c4:	9c 01       	movw	r18, r24
    31c6:	22 5f       	subi	r18, 0xF2	; 242
    31c8:	3f 4f       	sbci	r19, 0xFF	; 255
    31ca:	89 81       	ldd	r24, Y+1	; 0x01
    31cc:	9a 81       	ldd	r25, Y+2	; 0x02
    31ce:	b9 01       	movw	r22, r18
    31d0:	0e 94 bd 09 	call	0x137a	; 0x137a <vListInsert>
    31d4:	8b 81       	ldd	r24, Y+3	; 0x03
    31d6:	9c 81       	ldd	r25, Y+4	; 0x04
    31d8:	ad 81       	ldd	r26, Y+5	; 0x05
    31da:	be 81       	ldd	r27, Y+6	; 0x06
    31dc:	41 e0       	ldi	r20, 0x01	; 1
    31de:	bc 01       	movw	r22, r24
    31e0:	cd 01       	movw	r24, r26
    31e2:	0e 94 fe 1b 	call	0x37fc	; 0x37fc <prvAddCurrentTaskToDelayedList>
    31e6:	00 00       	nop
    31e8:	26 96       	adiw	r28, 0x06	; 6
    31ea:	cd bf       	out	0x3d, r28	; 61
    31ec:	de bf       	out	0x3e, r29	; 62
    31ee:	df 91       	pop	r29
    31f0:	cf 91       	pop	r28
    31f2:	08 95       	ret

000031f4 <vTaskPlaceOnUnorderedEventList>:
    31f4:	0f 93       	push	r16
    31f6:	1f 93       	push	r17
    31f8:	cf 93       	push	r28
    31fa:	df 93       	push	r29
    31fc:	cd b7       	in	r28, 0x3d	; 61
    31fe:	de b7       	in	r29, 0x3e	; 62
    3200:	2a 97       	sbiw	r28, 0x0a	; 10
    3202:	cd bf       	out	0x3d, r28	; 61
    3204:	de bf       	out	0x3e, r29	; 62
    3206:	89 83       	std	Y+1, r24	; 0x01
    3208:	9a 83       	std	Y+2, r25	; 0x02
    320a:	4b 83       	std	Y+3, r20	; 0x03
    320c:	5c 83       	std	Y+4, r21	; 0x04
    320e:	6d 83       	std	Y+5, r22	; 0x05
    3210:	7e 83       	std	Y+6, r23	; 0x06
    3212:	0f 83       	std	Y+7, r16	; 0x07
    3214:	18 87       	std	Y+8, r17	; 0x08
    3216:	29 87       	std	Y+9, r18	; 0x09
    3218:	3a 87       	std	Y+10, r19	; 0x0a
    321a:	20 91 50 2c 	lds	r18, 0x2C50	; 0x802c50 <pxCurrentTCB>
    321e:	30 91 51 2c 	lds	r19, 0x2C51	; 0x802c51 <pxCurrentTCB+0x1>
    3222:	8b 81       	ldd	r24, Y+3	; 0x03
    3224:	9c 81       	ldd	r25, Y+4	; 0x04
    3226:	ad 81       	ldd	r26, Y+5	; 0x05
    3228:	be 81       	ldd	r27, Y+6	; 0x06
    322a:	b0 68       	ori	r27, 0x80	; 128
    322c:	f9 01       	movw	r30, r18
    322e:	86 87       	std	Z+14, r24	; 0x0e
    3230:	97 87       	std	Z+15, r25	; 0x0f
    3232:	a0 8b       	std	Z+16, r26	; 0x10
    3234:	b1 8b       	std	Z+17, r27	; 0x11
    3236:	80 91 50 2c 	lds	r24, 0x2C50	; 0x802c50 <pxCurrentTCB>
    323a:	90 91 51 2c 	lds	r25, 0x2C51	; 0x802c51 <pxCurrentTCB+0x1>
    323e:	9c 01       	movw	r18, r24
    3240:	22 5f       	subi	r18, 0xF2	; 242
    3242:	3f 4f       	sbci	r19, 0xFF	; 255
    3244:	89 81       	ldd	r24, Y+1	; 0x01
    3246:	9a 81       	ldd	r25, Y+2	; 0x02
    3248:	b9 01       	movw	r22, r18
    324a:	0e 94 72 09 	call	0x12e4	; 0x12e4 <vListInsertEnd>
    324e:	8f 81       	ldd	r24, Y+7	; 0x07
    3250:	98 85       	ldd	r25, Y+8	; 0x08
    3252:	a9 85       	ldd	r26, Y+9	; 0x09
    3254:	ba 85       	ldd	r27, Y+10	; 0x0a
    3256:	41 e0       	ldi	r20, 0x01	; 1
    3258:	bc 01       	movw	r22, r24
    325a:	cd 01       	movw	r24, r26
    325c:	0e 94 fe 1b 	call	0x37fc	; 0x37fc <prvAddCurrentTaskToDelayedList>
    3260:	00 00       	nop
    3262:	2a 96       	adiw	r28, 0x0a	; 10
    3264:	cd bf       	out	0x3d, r28	; 61
    3266:	de bf       	out	0x3e, r29	; 62
    3268:	df 91       	pop	r29
    326a:	cf 91       	pop	r28
    326c:	1f 91       	pop	r17
    326e:	0f 91       	pop	r16
    3270:	08 95       	ret

00003272 <vTaskPlaceOnEventListRestricted>:
    3272:	cf 93       	push	r28
    3274:	df 93       	push	r29
    3276:	cd b7       	in	r28, 0x3d	; 61
    3278:	de b7       	in	r29, 0x3e	; 62
    327a:	27 97       	sbiw	r28, 0x07	; 7
    327c:	cd bf       	out	0x3d, r28	; 61
    327e:	de bf       	out	0x3e, r29	; 62
    3280:	89 83       	std	Y+1, r24	; 0x01
    3282:	9a 83       	std	Y+2, r25	; 0x02
    3284:	4b 83       	std	Y+3, r20	; 0x03
    3286:	5c 83       	std	Y+4, r21	; 0x04
    3288:	6d 83       	std	Y+5, r22	; 0x05
    328a:	7e 83       	std	Y+6, r23	; 0x06
    328c:	2f 83       	std	Y+7, r18	; 0x07
    328e:	80 91 50 2c 	lds	r24, 0x2C50	; 0x802c50 <pxCurrentTCB>
    3292:	90 91 51 2c 	lds	r25, 0x2C51	; 0x802c51 <pxCurrentTCB+0x1>
    3296:	9c 01       	movw	r18, r24
    3298:	22 5f       	subi	r18, 0xF2	; 242
    329a:	3f 4f       	sbci	r19, 0xFF	; 255
    329c:	89 81       	ldd	r24, Y+1	; 0x01
    329e:	9a 81       	ldd	r25, Y+2	; 0x02
    32a0:	b9 01       	movw	r22, r18
    32a2:	0e 94 72 09 	call	0x12e4	; 0x12e4 <vListInsertEnd>
    32a6:	8f 81       	ldd	r24, Y+7	; 0x07
    32a8:	88 23       	and	r24, r24
    32aa:	39 f0       	breq	.+14     	; 0x32ba <vTaskPlaceOnEventListRestricted+0x48>
    32ac:	8f ef       	ldi	r24, 0xFF	; 255
    32ae:	9f ef       	ldi	r25, 0xFF	; 255
    32b0:	dc 01       	movw	r26, r24
    32b2:	8b 83       	std	Y+3, r24	; 0x03
    32b4:	9c 83       	std	Y+4, r25	; 0x04
    32b6:	ad 83       	std	Y+5, r26	; 0x05
    32b8:	be 83       	std	Y+6, r27	; 0x06
    32ba:	8b 81       	ldd	r24, Y+3	; 0x03
    32bc:	9c 81       	ldd	r25, Y+4	; 0x04
    32be:	ad 81       	ldd	r26, Y+5	; 0x05
    32c0:	be 81       	ldd	r27, Y+6	; 0x06
    32c2:	4f 81       	ldd	r20, Y+7	; 0x07
    32c4:	bc 01       	movw	r22, r24
    32c6:	cd 01       	movw	r24, r26
    32c8:	0e 94 fe 1b 	call	0x37fc	; 0x37fc <prvAddCurrentTaskToDelayedList>
    32cc:	00 00       	nop
    32ce:	27 96       	adiw	r28, 0x07	; 7
    32d0:	cd bf       	out	0x3d, r28	; 61
    32d2:	de bf       	out	0x3e, r29	; 62
    32d4:	df 91       	pop	r29
    32d6:	cf 91       	pop	r28
    32d8:	08 95       	ret

000032da <xTaskRemoveFromEventList>:
    32da:	cf 93       	push	r28
    32dc:	df 93       	push	r29
    32de:	cd b7       	in	r28, 0x3d	; 61
    32e0:	de b7       	in	r29, 0x3e	; 62
    32e2:	25 97       	sbiw	r28, 0x05	; 5
    32e4:	cd bf       	out	0x3d, r28	; 61
    32e6:	de bf       	out	0x3e, r29	; 62
    32e8:	8c 83       	std	Y+4, r24	; 0x04
    32ea:	9d 83       	std	Y+5, r25	; 0x05
    32ec:	8c 81       	ldd	r24, Y+4	; 0x04
    32ee:	9d 81       	ldd	r25, Y+5	; 0x05
    32f0:	fc 01       	movw	r30, r24
    32f2:	87 81       	ldd	r24, Z+7	; 0x07
    32f4:	90 85       	ldd	r25, Z+8	; 0x08
    32f6:	fc 01       	movw	r30, r24
    32f8:	80 85       	ldd	r24, Z+8	; 0x08
    32fa:	91 85       	ldd	r25, Z+9	; 0x09
    32fc:	8a 83       	std	Y+2, r24	; 0x02
    32fe:	9b 83       	std	Y+3, r25	; 0x03
    3300:	8a 81       	ldd	r24, Y+2	; 0x02
    3302:	9b 81       	ldd	r25, Y+3	; 0x03
    3304:	0e 96       	adiw	r24, 0x0e	; 14
    3306:	0e 94 3e 0a 	call	0x147c	; 0x147c <uxListRemove>
    330a:	80 91 bf 2c 	lds	r24, 0x2CBF	; 0x802cbf <uxSchedulerSuspended>
    330e:	88 23       	and	r24, r24
    3310:	51 f5       	brne	.+84     	; 0x3366 <xTaskRemoveFromEventList+0x8c>
    3312:	8a 81       	ldd	r24, Y+2	; 0x02
    3314:	9b 81       	ldd	r25, Y+3	; 0x03
    3316:	02 96       	adiw	r24, 0x02	; 2
    3318:	0e 94 3e 0a 	call	0x147c	; 0x147c <uxListRemove>
    331c:	8a 81       	ldd	r24, Y+2	; 0x02
    331e:	9b 81       	ldd	r25, Y+3	; 0x03
    3320:	fc 01       	movw	r30, r24
    3322:	92 8d       	ldd	r25, Z+26	; 0x1a
    3324:	80 91 b3 2c 	lds	r24, 0x2CB3	; 0x802cb3 <uxTopReadyPriority>
    3328:	89 17       	cp	r24, r25
    332a:	30 f4       	brcc	.+12     	; 0x3338 <xTaskRemoveFromEventList+0x5e>
    332c:	8a 81       	ldd	r24, Y+2	; 0x02
    332e:	9b 81       	ldd	r25, Y+3	; 0x03
    3330:	fc 01       	movw	r30, r24
    3332:	82 8d       	ldd	r24, Z+26	; 0x1a
    3334:	80 93 b3 2c 	sts	0x2CB3, r24	; 0x802cb3 <uxTopReadyPriority>
    3338:	8a 81       	ldd	r24, Y+2	; 0x02
    333a:	9b 81       	ldd	r25, Y+3	; 0x03
    333c:	ac 01       	movw	r20, r24
    333e:	4e 5f       	subi	r20, 0xFE	; 254
    3340:	5f 4f       	sbci	r21, 0xFF	; 255
    3342:	8a 81       	ldd	r24, Y+2	; 0x02
    3344:	9b 81       	ldd	r25, Y+3	; 0x03
    3346:	fc 01       	movw	r30, r24
    3348:	82 8d       	ldd	r24, Z+26	; 0x1a
    334a:	28 2f       	mov	r18, r24
    334c:	30 e0       	ldi	r19, 0x00	; 0
    334e:	6b e0       	ldi	r22, 0x0B	; 11
    3350:	62 9f       	mul	r22, r18
    3352:	c0 01       	movw	r24, r0
    3354:	63 9f       	mul	r22, r19
    3356:	90 0d       	add	r25, r0
    3358:	11 24       	eor	r1, r1
    335a:	8e 5a       	subi	r24, 0xAE	; 174
    335c:	93 4d       	sbci	r25, 0xD3	; 211
    335e:	ba 01       	movw	r22, r20
    3360:	0e 94 72 09 	call	0x12e4	; 0x12e4 <vListInsertEnd>
    3364:	08 c0       	rjmp	.+16     	; 0x3376 <xTaskRemoveFromEventList+0x9c>
    3366:	8a 81       	ldd	r24, Y+2	; 0x02
    3368:	9b 81       	ldd	r25, Y+3	; 0x03
    336a:	0e 96       	adiw	r24, 0x0e	; 14
    336c:	bc 01       	movw	r22, r24
    336e:	88 e9       	ldi	r24, 0x98	; 152
    3370:	9c e2       	ldi	r25, 0x2C	; 44
    3372:	0e 94 72 09 	call	0x12e4	; 0x12e4 <vListInsertEnd>
    3376:	8a 81       	ldd	r24, Y+2	; 0x02
    3378:	9b 81       	ldd	r25, Y+3	; 0x03
    337a:	fc 01       	movw	r30, r24
    337c:	22 8d       	ldd	r18, Z+26	; 0x1a
    337e:	80 91 50 2c 	lds	r24, 0x2C50	; 0x802c50 <pxCurrentTCB>
    3382:	90 91 51 2c 	lds	r25, 0x2C51	; 0x802c51 <pxCurrentTCB+0x1>
    3386:	fc 01       	movw	r30, r24
    3388:	82 8d       	ldd	r24, Z+26	; 0x1a
    338a:	82 17       	cp	r24, r18
    338c:	30 f4       	brcc	.+12     	; 0x339a <xTaskRemoveFromEventList+0xc0>
    338e:	81 e0       	ldi	r24, 0x01	; 1
    3390:	89 83       	std	Y+1, r24	; 0x01
    3392:	81 e0       	ldi	r24, 0x01	; 1
    3394:	80 93 b6 2c 	sts	0x2CB6, r24	; 0x802cb6 <xYieldPending>
    3398:	01 c0       	rjmp	.+2      	; 0x339c <xTaskRemoveFromEventList+0xc2>
    339a:	19 82       	std	Y+1, r1	; 0x01
    339c:	89 81       	ldd	r24, Y+1	; 0x01
    339e:	25 96       	adiw	r28, 0x05	; 5
    33a0:	cd bf       	out	0x3d, r28	; 61
    33a2:	de bf       	out	0x3e, r29	; 62
    33a4:	df 91       	pop	r29
    33a6:	cf 91       	pop	r28
    33a8:	08 95       	ret

000033aa <vTaskRemoveFromUnorderedEventList>:
    33aa:	cf 93       	push	r28
    33ac:	df 93       	push	r29
    33ae:	cd b7       	in	r28, 0x3d	; 61
    33b0:	de b7       	in	r29, 0x3e	; 62
    33b2:	28 97       	sbiw	r28, 0x08	; 8
    33b4:	cd bf       	out	0x3d, r28	; 61
    33b6:	de bf       	out	0x3e, r29	; 62
    33b8:	8b 83       	std	Y+3, r24	; 0x03
    33ba:	9c 83       	std	Y+4, r25	; 0x04
    33bc:	4d 83       	std	Y+5, r20	; 0x05
    33be:	5e 83       	std	Y+6, r21	; 0x06
    33c0:	6f 83       	std	Y+7, r22	; 0x07
    33c2:	78 87       	std	Y+8, r23	; 0x08
    33c4:	8d 81       	ldd	r24, Y+5	; 0x05
    33c6:	9e 81       	ldd	r25, Y+6	; 0x06
    33c8:	af 81       	ldd	r26, Y+7	; 0x07
    33ca:	b8 85       	ldd	r27, Y+8	; 0x08
    33cc:	b0 68       	ori	r27, 0x80	; 128
    33ce:	2b 81       	ldd	r18, Y+3	; 0x03
    33d0:	3c 81       	ldd	r19, Y+4	; 0x04
    33d2:	f9 01       	movw	r30, r18
    33d4:	80 83       	st	Z, r24
    33d6:	91 83       	std	Z+1, r25	; 0x01
    33d8:	a2 83       	std	Z+2, r26	; 0x02
    33da:	b3 83       	std	Z+3, r27	; 0x03
    33dc:	8b 81       	ldd	r24, Y+3	; 0x03
    33de:	9c 81       	ldd	r25, Y+4	; 0x04
    33e0:	fc 01       	movw	r30, r24
    33e2:	80 85       	ldd	r24, Z+8	; 0x08
    33e4:	91 85       	ldd	r25, Z+9	; 0x09
    33e6:	89 83       	std	Y+1, r24	; 0x01
    33e8:	9a 83       	std	Y+2, r25	; 0x02
    33ea:	8b 81       	ldd	r24, Y+3	; 0x03
    33ec:	9c 81       	ldd	r25, Y+4	; 0x04
    33ee:	0e 94 3e 0a 	call	0x147c	; 0x147c <uxListRemove>
    33f2:	89 81       	ldd	r24, Y+1	; 0x01
    33f4:	9a 81       	ldd	r25, Y+2	; 0x02
    33f6:	02 96       	adiw	r24, 0x02	; 2
    33f8:	0e 94 3e 0a 	call	0x147c	; 0x147c <uxListRemove>
    33fc:	89 81       	ldd	r24, Y+1	; 0x01
    33fe:	9a 81       	ldd	r25, Y+2	; 0x02
    3400:	fc 01       	movw	r30, r24
    3402:	92 8d       	ldd	r25, Z+26	; 0x1a
    3404:	80 91 b3 2c 	lds	r24, 0x2CB3	; 0x802cb3 <uxTopReadyPriority>
    3408:	89 17       	cp	r24, r25
    340a:	30 f4       	brcc	.+12     	; 0x3418 <vTaskRemoveFromUnorderedEventList+0x6e>
    340c:	89 81       	ldd	r24, Y+1	; 0x01
    340e:	9a 81       	ldd	r25, Y+2	; 0x02
    3410:	fc 01       	movw	r30, r24
    3412:	82 8d       	ldd	r24, Z+26	; 0x1a
    3414:	80 93 b3 2c 	sts	0x2CB3, r24	; 0x802cb3 <uxTopReadyPriority>
    3418:	89 81       	ldd	r24, Y+1	; 0x01
    341a:	9a 81       	ldd	r25, Y+2	; 0x02
    341c:	ac 01       	movw	r20, r24
    341e:	4e 5f       	subi	r20, 0xFE	; 254
    3420:	5f 4f       	sbci	r21, 0xFF	; 255
    3422:	89 81       	ldd	r24, Y+1	; 0x01
    3424:	9a 81       	ldd	r25, Y+2	; 0x02
    3426:	fc 01       	movw	r30, r24
    3428:	82 8d       	ldd	r24, Z+26	; 0x1a
    342a:	28 2f       	mov	r18, r24
    342c:	30 e0       	ldi	r19, 0x00	; 0
    342e:	6b e0       	ldi	r22, 0x0B	; 11
    3430:	62 9f       	mul	r22, r18
    3432:	c0 01       	movw	r24, r0
    3434:	63 9f       	mul	r22, r19
    3436:	90 0d       	add	r25, r0
    3438:	11 24       	eor	r1, r1
    343a:	8e 5a       	subi	r24, 0xAE	; 174
    343c:	93 4d       	sbci	r25, 0xD3	; 211
    343e:	ba 01       	movw	r22, r20
    3440:	0e 94 72 09 	call	0x12e4	; 0x12e4 <vListInsertEnd>
    3444:	89 81       	ldd	r24, Y+1	; 0x01
    3446:	9a 81       	ldd	r25, Y+2	; 0x02
    3448:	fc 01       	movw	r30, r24
    344a:	22 8d       	ldd	r18, Z+26	; 0x1a
    344c:	80 91 50 2c 	lds	r24, 0x2C50	; 0x802c50 <pxCurrentTCB>
    3450:	90 91 51 2c 	lds	r25, 0x2C51	; 0x802c51 <pxCurrentTCB+0x1>
    3454:	fc 01       	movw	r30, r24
    3456:	82 8d       	ldd	r24, Z+26	; 0x1a
    3458:	82 17       	cp	r24, r18
    345a:	18 f4       	brcc	.+6      	; 0x3462 <vTaskRemoveFromUnorderedEventList+0xb8>
    345c:	81 e0       	ldi	r24, 0x01	; 1
    345e:	80 93 b6 2c 	sts	0x2CB6, r24	; 0x802cb6 <xYieldPending>
    3462:	00 00       	nop
    3464:	28 96       	adiw	r28, 0x08	; 8
    3466:	cd bf       	out	0x3d, r28	; 61
    3468:	de bf       	out	0x3e, r29	; 62
    346a:	df 91       	pop	r29
    346c:	cf 91       	pop	r28
    346e:	08 95       	ret

00003470 <vTaskInternalSetTimeOutState>:
    3470:	cf 93       	push	r28
    3472:	df 93       	push	r29
    3474:	1f 92       	push	r1
    3476:	1f 92       	push	r1
    3478:	cd b7       	in	r28, 0x3d	; 61
    347a:	de b7       	in	r29, 0x3e	; 62
    347c:	89 83       	std	Y+1, r24	; 0x01
    347e:	9a 83       	std	Y+2, r25	; 0x02
    3480:	20 91 b7 2c 	lds	r18, 0x2CB7	; 0x802cb7 <xNumOfOverflows>
    3484:	89 81       	ldd	r24, Y+1	; 0x01
    3486:	9a 81       	ldd	r25, Y+2	; 0x02
    3488:	fc 01       	movw	r30, r24
    348a:	20 83       	st	Z, r18
    348c:	80 91 af 2c 	lds	r24, 0x2CAF	; 0x802caf <xTickCount>
    3490:	90 91 b0 2c 	lds	r25, 0x2CB0	; 0x802cb0 <xTickCount+0x1>
    3494:	a0 91 b1 2c 	lds	r26, 0x2CB1	; 0x802cb1 <xTickCount+0x2>
    3498:	b0 91 b2 2c 	lds	r27, 0x2CB2	; 0x802cb2 <xTickCount+0x3>
    349c:	29 81       	ldd	r18, Y+1	; 0x01
    349e:	3a 81       	ldd	r19, Y+2	; 0x02
    34a0:	f9 01       	movw	r30, r18
    34a2:	81 83       	std	Z+1, r24	; 0x01
    34a4:	92 83       	std	Z+2, r25	; 0x02
    34a6:	a3 83       	std	Z+3, r26	; 0x03
    34a8:	b4 83       	std	Z+4, r27	; 0x04
    34aa:	00 00       	nop
    34ac:	0f 90       	pop	r0
    34ae:	0f 90       	pop	r0
    34b0:	df 91       	pop	r29
    34b2:	cf 91       	pop	r28
    34b4:	08 95       	ret

000034b6 <xTaskCheckForTimeOut>:
    34b6:	ef 92       	push	r14
    34b8:	ff 92       	push	r15
    34ba:	0f 93       	push	r16
    34bc:	1f 93       	push	r17
    34be:	cf 93       	push	r28
    34c0:	df 93       	push	r29
    34c2:	cd b7       	in	r28, 0x3d	; 61
    34c4:	de b7       	in	r29, 0x3e	; 62
    34c6:	2d 97       	sbiw	r28, 0x0d	; 13
    34c8:	cd bf       	out	0x3d, r28	; 61
    34ca:	de bf       	out	0x3e, r29	; 62
    34cc:	8a 87       	std	Y+10, r24	; 0x0a
    34ce:	9b 87       	std	Y+11, r25	; 0x0b
    34d0:	6c 87       	std	Y+12, r22	; 0x0c
    34d2:	7d 87       	std	Y+13, r23	; 0x0d
    34d4:	f0 91 a2 00 	lds	r31, 0x00A2	; 0x8000a2 <__TEXT_REGION_LENGTH__+0x7000a2>
    34d8:	ff 93       	push	r31
    34da:	f8 7f       	andi	r31, 0xF8	; 248
    34dc:	f0 93 a2 00 	sts	0x00A2, r31	; 0x8000a2 <__TEXT_REGION_LENGTH__+0x7000a2>
    34e0:	80 91 af 2c 	lds	r24, 0x2CAF	; 0x802caf <xTickCount>
    34e4:	90 91 b0 2c 	lds	r25, 0x2CB0	; 0x802cb0 <xTickCount+0x1>
    34e8:	a0 91 b1 2c 	lds	r26, 0x2CB1	; 0x802cb1 <xTickCount+0x2>
    34ec:	b0 91 b2 2c 	lds	r27, 0x2CB2	; 0x802cb2 <xTickCount+0x3>
    34f0:	8a 83       	std	Y+2, r24	; 0x02
    34f2:	9b 83       	std	Y+3, r25	; 0x03
    34f4:	ac 83       	std	Y+4, r26	; 0x04
    34f6:	bd 83       	std	Y+5, r27	; 0x05
    34f8:	8a 85       	ldd	r24, Y+10	; 0x0a
    34fa:	9b 85       	ldd	r25, Y+11	; 0x0b
    34fc:	fc 01       	movw	r30, r24
    34fe:	81 81       	ldd	r24, Z+1	; 0x01
    3500:	92 81       	ldd	r25, Z+2	; 0x02
    3502:	a3 81       	ldd	r26, Z+3	; 0x03
    3504:	b4 81       	ldd	r27, Z+4	; 0x04
    3506:	2a 81       	ldd	r18, Y+2	; 0x02
    3508:	3b 81       	ldd	r19, Y+3	; 0x03
    350a:	4c 81       	ldd	r20, Y+4	; 0x04
    350c:	5d 81       	ldd	r21, Y+5	; 0x05
    350e:	79 01       	movw	r14, r18
    3510:	8a 01       	movw	r16, r20
    3512:	e8 1a       	sub	r14, r24
    3514:	f9 0a       	sbc	r15, r25
    3516:	0a 0b       	sbc	r16, r26
    3518:	1b 0b       	sbc	r17, r27
    351a:	d8 01       	movw	r26, r16
    351c:	c7 01       	movw	r24, r14
    351e:	8e 83       	std	Y+6, r24	; 0x06
    3520:	9f 83       	std	Y+7, r25	; 0x07
    3522:	a8 87       	std	Y+8, r26	; 0x08
    3524:	b9 87       	std	Y+9, r27	; 0x09
    3526:	8c 85       	ldd	r24, Y+12	; 0x0c
    3528:	9d 85       	ldd	r25, Y+13	; 0x0d
    352a:	fc 01       	movw	r30, r24
    352c:	80 81       	ld	r24, Z
    352e:	91 81       	ldd	r25, Z+1	; 0x01
    3530:	a2 81       	ldd	r26, Z+2	; 0x02
    3532:	b3 81       	ldd	r27, Z+3	; 0x03
    3534:	8f 3f       	cpi	r24, 0xFF	; 255
    3536:	9f 4f       	sbci	r25, 0xFF	; 255
    3538:	af 4f       	sbci	r26, 0xFF	; 255
    353a:	bf 4f       	sbci	r27, 0xFF	; 255
    353c:	11 f4       	brne	.+4      	; 0x3542 <xTaskCheckForTimeOut+0x8c>
    353e:	19 82       	std	Y+1, r1	; 0x01
    3540:	54 c0       	rjmp	.+168    	; 0x35ea <xTaskCheckForTimeOut+0x134>
    3542:	8a 85       	ldd	r24, Y+10	; 0x0a
    3544:	9b 85       	ldd	r25, Y+11	; 0x0b
    3546:	fc 01       	movw	r30, r24
    3548:	90 81       	ld	r25, Z
    354a:	80 91 b7 2c 	lds	r24, 0x2CB7	; 0x802cb7 <xNumOfOverflows>
    354e:	98 17       	cp	r25, r24
    3550:	99 f0       	breq	.+38     	; 0x3578 <xTaskCheckForTimeOut+0xc2>
    3552:	8a 85       	ldd	r24, Y+10	; 0x0a
    3554:	9b 85       	ldd	r25, Y+11	; 0x0b
    3556:	fc 01       	movw	r30, r24
    3558:	21 81       	ldd	r18, Z+1	; 0x01
    355a:	32 81       	ldd	r19, Z+2	; 0x02
    355c:	43 81       	ldd	r20, Z+3	; 0x03
    355e:	54 81       	ldd	r21, Z+4	; 0x04
    3560:	8a 81       	ldd	r24, Y+2	; 0x02
    3562:	9b 81       	ldd	r25, Y+3	; 0x03
    3564:	ac 81       	ldd	r26, Y+4	; 0x04
    3566:	bd 81       	ldd	r27, Y+5	; 0x05
    3568:	82 17       	cp	r24, r18
    356a:	93 07       	cpc	r25, r19
    356c:	a4 07       	cpc	r26, r20
    356e:	b5 07       	cpc	r27, r21
    3570:	18 f0       	brcs	.+6      	; 0x3578 <xTaskCheckForTimeOut+0xc2>
    3572:	81 e0       	ldi	r24, 0x01	; 1
    3574:	89 83       	std	Y+1, r24	; 0x01
    3576:	39 c0       	rjmp	.+114    	; 0x35ea <xTaskCheckForTimeOut+0x134>
    3578:	8c 85       	ldd	r24, Y+12	; 0x0c
    357a:	9d 85       	ldd	r25, Y+13	; 0x0d
    357c:	fc 01       	movw	r30, r24
    357e:	20 81       	ld	r18, Z
    3580:	31 81       	ldd	r19, Z+1	; 0x01
    3582:	42 81       	ldd	r20, Z+2	; 0x02
    3584:	53 81       	ldd	r21, Z+3	; 0x03
    3586:	8e 81       	ldd	r24, Y+6	; 0x06
    3588:	9f 81       	ldd	r25, Y+7	; 0x07
    358a:	a8 85       	ldd	r26, Y+8	; 0x08
    358c:	b9 85       	ldd	r27, Y+9	; 0x09
    358e:	82 17       	cp	r24, r18
    3590:	93 07       	cpc	r25, r19
    3592:	a4 07       	cpc	r26, r20
    3594:	b5 07       	cpc	r27, r21
    3596:	00 f5       	brcc	.+64     	; 0x35d8 <xTaskCheckForTimeOut+0x122>
    3598:	8c 85       	ldd	r24, Y+12	; 0x0c
    359a:	9d 85       	ldd	r25, Y+13	; 0x0d
    359c:	fc 01       	movw	r30, r24
    359e:	20 81       	ld	r18, Z
    35a0:	31 81       	ldd	r19, Z+1	; 0x01
    35a2:	42 81       	ldd	r20, Z+2	; 0x02
    35a4:	53 81       	ldd	r21, Z+3	; 0x03
    35a6:	8e 81       	ldd	r24, Y+6	; 0x06
    35a8:	9f 81       	ldd	r25, Y+7	; 0x07
    35aa:	a8 85       	ldd	r26, Y+8	; 0x08
    35ac:	b9 85       	ldd	r27, Y+9	; 0x09
    35ae:	79 01       	movw	r14, r18
    35b0:	8a 01       	movw	r16, r20
    35b2:	e8 1a       	sub	r14, r24
    35b4:	f9 0a       	sbc	r15, r25
    35b6:	0a 0b       	sbc	r16, r26
    35b8:	1b 0b       	sbc	r17, r27
    35ba:	d8 01       	movw	r26, r16
    35bc:	c7 01       	movw	r24, r14
    35be:	2c 85       	ldd	r18, Y+12	; 0x0c
    35c0:	3d 85       	ldd	r19, Y+13	; 0x0d
    35c2:	f9 01       	movw	r30, r18
    35c4:	80 83       	st	Z, r24
    35c6:	91 83       	std	Z+1, r25	; 0x01
    35c8:	a2 83       	std	Z+2, r26	; 0x02
    35ca:	b3 83       	std	Z+3, r27	; 0x03
    35cc:	8a 85       	ldd	r24, Y+10	; 0x0a
    35ce:	9b 85       	ldd	r25, Y+11	; 0x0b
    35d0:	0e 94 38 1a 	call	0x3470	; 0x3470 <vTaskInternalSetTimeOutState>
    35d4:	19 82       	std	Y+1, r1	; 0x01
    35d6:	09 c0       	rjmp	.+18     	; 0x35ea <xTaskCheckForTimeOut+0x134>
    35d8:	8c 85       	ldd	r24, Y+12	; 0x0c
    35da:	9d 85       	ldd	r25, Y+13	; 0x0d
    35dc:	fc 01       	movw	r30, r24
    35de:	10 82       	st	Z, r1
    35e0:	11 82       	std	Z+1, r1	; 0x01
    35e2:	12 82       	std	Z+2, r1	; 0x02
    35e4:	13 82       	std	Z+3, r1	; 0x03
    35e6:	81 e0       	ldi	r24, 0x01	; 1
    35e8:	89 83       	std	Y+1, r24	; 0x01
    35ea:	ff 91       	pop	r31
    35ec:	f0 93 a2 00 	sts	0x00A2, r31	; 0x8000a2 <__TEXT_REGION_LENGTH__+0x7000a2>
    35f0:	89 81       	ldd	r24, Y+1	; 0x01
    35f2:	2d 96       	adiw	r28, 0x0d	; 13
    35f4:	cd bf       	out	0x3d, r28	; 61
    35f6:	de bf       	out	0x3e, r29	; 62
    35f8:	df 91       	pop	r29
    35fa:	cf 91       	pop	r28
    35fc:	1f 91       	pop	r17
    35fe:	0f 91       	pop	r16
    3600:	ff 90       	pop	r15
    3602:	ef 90       	pop	r14
    3604:	08 95       	ret

00003606 <vTaskMissedYield>:
    3606:	cf 93       	push	r28
    3608:	df 93       	push	r29
    360a:	cd b7       	in	r28, 0x3d	; 61
    360c:	de b7       	in	r29, 0x3e	; 62
    360e:	81 e0       	ldi	r24, 0x01	; 1
    3610:	80 93 b6 2c 	sts	0x2CB6, r24	; 0x802cb6 <xYieldPending>
    3614:	00 00       	nop
    3616:	df 91       	pop	r29
    3618:	cf 91       	pop	r28
    361a:	08 95       	ret

0000361c <prvIdleTask>:
    361c:	cf 93       	push	r28
    361e:	df 93       	push	r29
    3620:	1f 92       	push	r1
    3622:	1f 92       	push	r1
    3624:	cd b7       	in	r28, 0x3d	; 61
    3626:	de b7       	in	r29, 0x3e	; 62
    3628:	89 83       	std	Y+1, r24	; 0x01
    362a:	9a 83       	std	Y+2, r25	; 0x02
    362c:	0e 94 5c 1b 	call	0x36b8	; 0x36b8 <prvCheckTasksWaitingTermination>
    3630:	80 91 52 2c 	lds	r24, 0x2C52	; 0x802c52 <pxReadyTasksLists>
    3634:	82 30       	cpi	r24, 0x02	; 2
    3636:	10 f0       	brcs	.+4      	; 0x363c <prvIdleTask+0x20>
    3638:	0e 94 bc 0c 	call	0x1978	; 0x1978 <vPortYield>
    363c:	0e 94 fd 21 	call	0x43fa	; 0x43fa <vApplicationIdleHook>
    3640:	f5 cf       	rjmp	.-22     	; 0x362c <prvIdleTask+0x10>

00003642 <prvInitialiseTaskLists>:
    3642:	cf 93       	push	r28
    3644:	df 93       	push	r29
    3646:	1f 92       	push	r1
    3648:	cd b7       	in	r28, 0x3d	; 61
    364a:	de b7       	in	r29, 0x3e	; 62
    364c:	19 82       	std	Y+1, r1	; 0x01
    364e:	10 c0       	rjmp	.+32     	; 0x3670 <prvInitialiseTaskLists+0x2e>
    3650:	89 81       	ldd	r24, Y+1	; 0x01
    3652:	28 2f       	mov	r18, r24
    3654:	30 e0       	ldi	r19, 0x00	; 0
    3656:	4b e0       	ldi	r20, 0x0B	; 11
    3658:	42 9f       	mul	r20, r18
    365a:	c0 01       	movw	r24, r0
    365c:	43 9f       	mul	r20, r19
    365e:	90 0d       	add	r25, r0
    3660:	11 24       	eor	r1, r1
    3662:	8e 5a       	subi	r24, 0xAE	; 174
    3664:	93 4d       	sbci	r25, 0xD3	; 211
    3666:	0e 94 25 09 	call	0x124a	; 0x124a <vListInitialise>
    366a:	89 81       	ldd	r24, Y+1	; 0x01
    366c:	8f 5f       	subi	r24, 0xFF	; 255
    366e:	89 83       	std	Y+1, r24	; 0x01
    3670:	89 81       	ldd	r24, Y+1	; 0x01
    3672:	84 30       	cpi	r24, 0x04	; 4
    3674:	68 f3       	brcs	.-38     	; 0x3650 <prvInitialiseTaskLists+0xe>
    3676:	8e e7       	ldi	r24, 0x7E	; 126
    3678:	9c e2       	ldi	r25, 0x2C	; 44
    367a:	0e 94 25 09 	call	0x124a	; 0x124a <vListInitialise>
    367e:	89 e8       	ldi	r24, 0x89	; 137
    3680:	9c e2       	ldi	r25, 0x2C	; 44
    3682:	0e 94 25 09 	call	0x124a	; 0x124a <vListInitialise>
    3686:	88 e9       	ldi	r24, 0x98	; 152
    3688:	9c e2       	ldi	r25, 0x2C	; 44
    368a:	0e 94 25 09 	call	0x124a	; 0x124a <vListInitialise>
    368e:	83 ea       	ldi	r24, 0xA3	; 163
    3690:	9c e2       	ldi	r25, 0x2C	; 44
    3692:	0e 94 25 09 	call	0x124a	; 0x124a <vListInitialise>
    3696:	8e e7       	ldi	r24, 0x7E	; 126
    3698:	9c e2       	ldi	r25, 0x2C	; 44
    369a:	80 93 94 2c 	sts	0x2C94, r24	; 0x802c94 <pxDelayedTaskList>
    369e:	90 93 95 2c 	sts	0x2C95, r25	; 0x802c95 <pxDelayedTaskList+0x1>
    36a2:	89 e8       	ldi	r24, 0x89	; 137
    36a4:	9c e2       	ldi	r25, 0x2C	; 44
    36a6:	80 93 96 2c 	sts	0x2C96, r24	; 0x802c96 <pxOverflowDelayedTaskList>
    36aa:	90 93 97 2c 	sts	0x2C97, r25	; 0x802c97 <pxOverflowDelayedTaskList+0x1>
    36ae:	00 00       	nop
    36b0:	0f 90       	pop	r0
    36b2:	df 91       	pop	r29
    36b4:	cf 91       	pop	r28
    36b6:	08 95       	ret

000036b8 <prvCheckTasksWaitingTermination>:
    36b8:	cf 93       	push	r28
    36ba:	df 93       	push	r29
    36bc:	cd b7       	in	r28, 0x3d	; 61
    36be:	de b7       	in	r29, 0x3e	; 62
    36c0:	00 00       	nop
    36c2:	df 91       	pop	r29
    36c4:	cf 91       	pop	r28
    36c6:	08 95       	ret

000036c8 <prvResetNextTaskUnblockTime>:
    36c8:	cf 93       	push	r28
    36ca:	df 93       	push	r29
    36cc:	1f 92       	push	r1
    36ce:	1f 92       	push	r1
    36d0:	cd b7       	in	r28, 0x3d	; 61
    36d2:	de b7       	in	r29, 0x3e	; 62
    36d4:	80 91 94 2c 	lds	r24, 0x2C94	; 0x802c94 <pxDelayedTaskList>
    36d8:	90 91 95 2c 	lds	r25, 0x2C95	; 0x802c95 <pxDelayedTaskList+0x1>
    36dc:	fc 01       	movw	r30, r24
    36de:	80 81       	ld	r24, Z
    36e0:	88 23       	and	r24, r24
    36e2:	61 f4       	brne	.+24     	; 0x36fc <prvResetNextTaskUnblockTime+0x34>
    36e4:	8f ef       	ldi	r24, 0xFF	; 255
    36e6:	9f ef       	ldi	r25, 0xFF	; 255
    36e8:	dc 01       	movw	r26, r24
    36ea:	80 93 b9 2c 	sts	0x2CB9, r24	; 0x802cb9 <xNextTaskUnblockTime>
    36ee:	90 93 ba 2c 	sts	0x2CBA, r25	; 0x802cba <xNextTaskUnblockTime+0x1>
    36f2:	a0 93 bb 2c 	sts	0x2CBB, r26	; 0x802cbb <xNextTaskUnblockTime+0x2>
    36f6:	b0 93 bc 2c 	sts	0x2CBC, r27	; 0x802cbc <xNextTaskUnblockTime+0x3>
    36fa:	1b c0       	rjmp	.+54     	; 0x3732 <prvResetNextTaskUnblockTime+0x6a>
    36fc:	80 91 94 2c 	lds	r24, 0x2C94	; 0x802c94 <pxDelayedTaskList>
    3700:	90 91 95 2c 	lds	r25, 0x2C95	; 0x802c95 <pxDelayedTaskList+0x1>
    3704:	fc 01       	movw	r30, r24
    3706:	87 81       	ldd	r24, Z+7	; 0x07
    3708:	90 85       	ldd	r25, Z+8	; 0x08
    370a:	fc 01       	movw	r30, r24
    370c:	80 85       	ldd	r24, Z+8	; 0x08
    370e:	91 85       	ldd	r25, Z+9	; 0x09
    3710:	89 83       	std	Y+1, r24	; 0x01
    3712:	9a 83       	std	Y+2, r25	; 0x02
    3714:	89 81       	ldd	r24, Y+1	; 0x01
    3716:	9a 81       	ldd	r25, Y+2	; 0x02
    3718:	fc 01       	movw	r30, r24
    371a:	82 81       	ldd	r24, Z+2	; 0x02
    371c:	93 81       	ldd	r25, Z+3	; 0x03
    371e:	a4 81       	ldd	r26, Z+4	; 0x04
    3720:	b5 81       	ldd	r27, Z+5	; 0x05
    3722:	80 93 b9 2c 	sts	0x2CB9, r24	; 0x802cb9 <xNextTaskUnblockTime>
    3726:	90 93 ba 2c 	sts	0x2CBA, r25	; 0x802cba <xNextTaskUnblockTime+0x1>
    372a:	a0 93 bb 2c 	sts	0x2CBB, r26	; 0x802cbb <xNextTaskUnblockTime+0x2>
    372e:	b0 93 bc 2c 	sts	0x2CBC, r27	; 0x802cbc <xNextTaskUnblockTime+0x3>
    3732:	00 00       	nop
    3734:	0f 90       	pop	r0
    3736:	0f 90       	pop	r0
    3738:	df 91       	pop	r29
    373a:	cf 91       	pop	r28
    373c:	08 95       	ret

0000373e <xTaskGetSchedulerState>:
    373e:	cf 93       	push	r28
    3740:	df 93       	push	r29
    3742:	1f 92       	push	r1
    3744:	cd b7       	in	r28, 0x3d	; 61
    3746:	de b7       	in	r29, 0x3e	; 62
    3748:	80 91 b4 2c 	lds	r24, 0x2CB4	; 0x802cb4 <xSchedulerRunning>
    374c:	88 23       	and	r24, r24
    374e:	19 f4       	brne	.+6      	; 0x3756 <xTaskGetSchedulerState+0x18>
    3750:	81 e0       	ldi	r24, 0x01	; 1
    3752:	89 83       	std	Y+1, r24	; 0x01
    3754:	08 c0       	rjmp	.+16     	; 0x3766 <xTaskGetSchedulerState+0x28>
    3756:	80 91 bf 2c 	lds	r24, 0x2CBF	; 0x802cbf <uxSchedulerSuspended>
    375a:	88 23       	and	r24, r24
    375c:	19 f4       	brne	.+6      	; 0x3764 <xTaskGetSchedulerState+0x26>
    375e:	82 e0       	ldi	r24, 0x02	; 2
    3760:	89 83       	std	Y+1, r24	; 0x01
    3762:	01 c0       	rjmp	.+2      	; 0x3766 <xTaskGetSchedulerState+0x28>
    3764:	19 82       	std	Y+1, r1	; 0x01
    3766:	89 81       	ldd	r24, Y+1	; 0x01
    3768:	0f 90       	pop	r0
    376a:	df 91       	pop	r29
    376c:	cf 91       	pop	r28
    376e:	08 95       	ret

00003770 <uxTaskResetEventItemValue>:
    3770:	ef 92       	push	r14
    3772:	ff 92       	push	r15
    3774:	0f 93       	push	r16
    3776:	1f 93       	push	r17
    3778:	cf 93       	push	r28
    377a:	df 93       	push	r29
    377c:	00 d0       	rcall	.+0      	; 0x377e <uxTaskResetEventItemValue+0xe>
    377e:	1f 92       	push	r1
    3780:	cd b7       	in	r28, 0x3d	; 61
    3782:	de b7       	in	r29, 0x3e	; 62
    3784:	80 91 50 2c 	lds	r24, 0x2C50	; 0x802c50 <pxCurrentTCB>
    3788:	90 91 51 2c 	lds	r25, 0x2C51	; 0x802c51 <pxCurrentTCB+0x1>
    378c:	fc 01       	movw	r30, r24
    378e:	86 85       	ldd	r24, Z+14	; 0x0e
    3790:	97 85       	ldd	r25, Z+15	; 0x0f
    3792:	a0 89       	ldd	r26, Z+16	; 0x10
    3794:	b1 89       	ldd	r27, Z+17	; 0x11
    3796:	89 83       	std	Y+1, r24	; 0x01
    3798:	9a 83       	std	Y+2, r25	; 0x02
    379a:	ab 83       	std	Y+3, r26	; 0x03
    379c:	bc 83       	std	Y+4, r27	; 0x04
    379e:	60 91 50 2c 	lds	r22, 0x2C50	; 0x802c50 <pxCurrentTCB>
    37a2:	70 91 51 2c 	lds	r23, 0x2C51	; 0x802c51 <pxCurrentTCB+0x1>
    37a6:	80 91 50 2c 	lds	r24, 0x2C50	; 0x802c50 <pxCurrentTCB>
    37aa:	90 91 51 2c 	lds	r25, 0x2C51	; 0x802c51 <pxCurrentTCB+0x1>
    37ae:	fc 01       	movw	r30, r24
    37b0:	82 8d       	ldd	r24, Z+26	; 0x1a
    37b2:	88 2f       	mov	r24, r24
    37b4:	90 e0       	ldi	r25, 0x00	; 0
    37b6:	a0 e0       	ldi	r26, 0x00	; 0
    37b8:	b0 e0       	ldi	r27, 0x00	; 0
    37ba:	24 e0       	ldi	r18, 0x04	; 4
    37bc:	30 e0       	ldi	r19, 0x00	; 0
    37be:	40 e0       	ldi	r20, 0x00	; 0
    37c0:	50 e0       	ldi	r21, 0x00	; 0
    37c2:	79 01       	movw	r14, r18
    37c4:	8a 01       	movw	r16, r20
    37c6:	e8 1a       	sub	r14, r24
    37c8:	f9 0a       	sbc	r15, r25
    37ca:	0a 0b       	sbc	r16, r26
    37cc:	1b 0b       	sbc	r17, r27
    37ce:	d8 01       	movw	r26, r16
    37d0:	c7 01       	movw	r24, r14
    37d2:	fb 01       	movw	r30, r22
    37d4:	86 87       	std	Z+14, r24	; 0x0e
    37d6:	97 87       	std	Z+15, r25	; 0x0f
    37d8:	a0 8b       	std	Z+16, r26	; 0x10
    37da:	b1 8b       	std	Z+17, r27	; 0x11
    37dc:	89 81       	ldd	r24, Y+1	; 0x01
    37de:	9a 81       	ldd	r25, Y+2	; 0x02
    37e0:	ab 81       	ldd	r26, Y+3	; 0x03
    37e2:	bc 81       	ldd	r27, Y+4	; 0x04
    37e4:	bc 01       	movw	r22, r24
    37e6:	cd 01       	movw	r24, r26
    37e8:	24 96       	adiw	r28, 0x04	; 4
    37ea:	cd bf       	out	0x3d, r28	; 61
    37ec:	de bf       	out	0x3e, r29	; 62
    37ee:	df 91       	pop	r29
    37f0:	cf 91       	pop	r28
    37f2:	1f 91       	pop	r17
    37f4:	0f 91       	pop	r16
    37f6:	ff 90       	pop	r15
    37f8:	ef 90       	pop	r14
    37fa:	08 95       	ret

000037fc <prvAddCurrentTaskToDelayedList>:
#endif /* configUSE_TASK_NOTIFICATIONS */
/*-----------------------------------------------------------*/


static void prvAddCurrentTaskToDelayedList( TickType_t xTicksToWait, const BaseType_t xCanBlockIndefinitely )
{
    37fc:	cf 93       	push	r28
    37fe:	df 93       	push	r29
    3800:	cd b7       	in	r28, 0x3d	; 61
    3802:	de b7       	in	r29, 0x3e	; 62
    3804:	2d 97       	sbiw	r28, 0x0d	; 13
    3806:	cd bf       	out	0x3d, r28	; 61
    3808:	de bf       	out	0x3e, r29	; 62
    380a:	69 87       	std	Y+9, r22	; 0x09
    380c:	7a 87       	std	Y+10, r23	; 0x0a
    380e:	8b 87       	std	Y+11, r24	; 0x0b
    3810:	9c 87       	std	Y+12, r25	; 0x0c
    3812:	4d 87       	std	Y+13, r20	; 0x0d
TickType_t xTimeToWake;
const TickType_t xConstTickCount = xTickCount;
    3814:	80 91 af 2c 	lds	r24, 0x2CAF	; 0x802caf <xTickCount>
    3818:	90 91 b0 2c 	lds	r25, 0x2CB0	; 0x802cb0 <xTickCount+0x1>
    381c:	a0 91 b1 2c 	lds	r26, 0x2CB1	; 0x802cb1 <xTickCount+0x2>
    3820:	b0 91 b2 2c 	lds	r27, 0x2CB2	; 0x802cb2 <xTickCount+0x3>
    3824:	89 83       	std	Y+1, r24	; 0x01
    3826:	9a 83       	std	Y+2, r25	; 0x02
    3828:	ab 83       	std	Y+3, r26	; 0x03
    382a:	bc 83       	std	Y+4, r27	; 0x04
	}
	#endif

	/* Remove the task from the ready list before adding it to the blocked list
	as the same list item is used for both lists. */
	if( uxListRemove( &( pxCurrentTCB->xStateListItem ) ) == ( UBaseType_t ) 0 )
    382c:	80 91 50 2c 	lds	r24, 0x2C50	; 0x802c50 <pxCurrentTCB>
    3830:	90 91 51 2c 	lds	r25, 0x2C51	; 0x802c51 <pxCurrentTCB+0x1>
    3834:	02 96       	adiw	r24, 0x02	; 2
    3836:	0e 94 3e 0a 	call	0x147c	; 0x147c <uxListRemove>
		mtCOVERAGE_TEST_MARKER();
	}

	#if ( INCLUDE_vTaskSuspend == 1 )
	{
		if( ( xTicksToWait == portMAX_DELAY ) && ( xCanBlockIndefinitely != pdFALSE ) )
    383a:	89 85       	ldd	r24, Y+9	; 0x09
    383c:	9a 85       	ldd	r25, Y+10	; 0x0a
    383e:	ab 85       	ldd	r26, Y+11	; 0x0b
    3840:	bc 85       	ldd	r27, Y+12	; 0x0c
    3842:	8f 3f       	cpi	r24, 0xFF	; 255
    3844:	9f 4f       	sbci	r25, 0xFF	; 255
    3846:	af 4f       	sbci	r26, 0xFF	; 255
    3848:	bf 4f       	sbci	r27, 0xFF	; 255
    384a:	71 f4       	brne	.+28     	; 0x3868 <prvAddCurrentTaskToDelayedList+0x6c>
    384c:	8d 85       	ldd	r24, Y+13	; 0x0d
    384e:	88 23       	and	r24, r24
    3850:	59 f0       	breq	.+22     	; 0x3868 <prvAddCurrentTaskToDelayedList+0x6c>
		{
			/* Add the task to the suspended task list instead of a delayed task
			list to ensure it is not woken by a timing event.  It will block
			indefinitely. */
			vListInsertEnd( &xSuspendedTaskList, &( pxCurrentTCB->xStateListItem ) );
    3852:	80 91 50 2c 	lds	r24, 0x2C50	; 0x802c50 <pxCurrentTCB>
    3856:	90 91 51 2c 	lds	r25, 0x2C51	; 0x802c51 <pxCurrentTCB+0x1>
    385a:	02 96       	adiw	r24, 0x02	; 2
    385c:	bc 01       	movw	r22, r24
    385e:	83 ea       	ldi	r24, 0xA3	; 163
    3860:	9c e2       	ldi	r25, 0x2C	; 44
    3862:	0e 94 72 09 	call	0x12e4	; 0x12e4 <vListInsertEnd>

		/* Avoid compiler warning when INCLUDE_vTaskSuspend is not 1. */
		( void ) xCanBlockIndefinitely;
	}
	#endif /* INCLUDE_vTaskSuspend */
}
    3866:	64 c0       	rjmp	.+200    	; 0x3930 <prvAddCurrentTaskToDelayedList+0x134>
		else
		{
			/* Calculate the time at which the task should be woken if the event
			does not occur.  This may overflow but this doesn't matter, the
			kernel will manage it correctly. */
			xTimeToWake = xConstTickCount + xTicksToWait;
    3868:	29 81       	ldd	r18, Y+1	; 0x01
    386a:	3a 81       	ldd	r19, Y+2	; 0x02
    386c:	4b 81       	ldd	r20, Y+3	; 0x03
    386e:	5c 81       	ldd	r21, Y+4	; 0x04
    3870:	89 85       	ldd	r24, Y+9	; 0x09
    3872:	9a 85       	ldd	r25, Y+10	; 0x0a
    3874:	ab 85       	ldd	r26, Y+11	; 0x0b
    3876:	bc 85       	ldd	r27, Y+12	; 0x0c
    3878:	82 0f       	add	r24, r18
    387a:	93 1f       	adc	r25, r19
    387c:	a4 1f       	adc	r26, r20
    387e:	b5 1f       	adc	r27, r21
    3880:	8d 83       	std	Y+5, r24	; 0x05
    3882:	9e 83       	std	Y+6, r25	; 0x06
    3884:	af 83       	std	Y+7, r26	; 0x07
    3886:	b8 87       	std	Y+8, r27	; 0x08

			/* The list item will be inserted in wake time order. */
			listSET_LIST_ITEM_VALUE( &( pxCurrentTCB->xStateListItem ), xTimeToWake );
    3888:	20 91 50 2c 	lds	r18, 0x2C50	; 0x802c50 <pxCurrentTCB>
    388c:	30 91 51 2c 	lds	r19, 0x2C51	; 0x802c51 <pxCurrentTCB+0x1>
    3890:	8d 81       	ldd	r24, Y+5	; 0x05
    3892:	9e 81       	ldd	r25, Y+6	; 0x06
    3894:	af 81       	ldd	r26, Y+7	; 0x07
    3896:	b8 85       	ldd	r27, Y+8	; 0x08
    3898:	f9 01       	movw	r30, r18
    389a:	82 83       	std	Z+2, r24	; 0x02
    389c:	93 83       	std	Z+3, r25	; 0x03
    389e:	a4 83       	std	Z+4, r26	; 0x04
    38a0:	b5 83       	std	Z+5, r27	; 0x05

			if( xTimeToWake < xConstTickCount )
    38a2:	2d 81       	ldd	r18, Y+5	; 0x05
    38a4:	3e 81       	ldd	r19, Y+6	; 0x06
    38a6:	4f 81       	ldd	r20, Y+7	; 0x07
    38a8:	58 85       	ldd	r21, Y+8	; 0x08
    38aa:	89 81       	ldd	r24, Y+1	; 0x01
    38ac:	9a 81       	ldd	r25, Y+2	; 0x02
    38ae:	ab 81       	ldd	r26, Y+3	; 0x03
    38b0:	bc 81       	ldd	r27, Y+4	; 0x04
    38b2:	28 17       	cp	r18, r24
    38b4:	39 07       	cpc	r19, r25
    38b6:	4a 07       	cpc	r20, r26
    38b8:	5b 07       	cpc	r21, r27
    38ba:	78 f4       	brcc	.+30     	; 0x38da <prvAddCurrentTaskToDelayedList+0xde>
			{
				/* Wake time has overflowed.  Place this item in the overflow
				list. */
				vListInsert( pxOverflowDelayedTaskList, &( pxCurrentTCB->xStateListItem ) );
    38bc:	80 91 50 2c 	lds	r24, 0x2C50	; 0x802c50 <pxCurrentTCB>
    38c0:	90 91 51 2c 	lds	r25, 0x2C51	; 0x802c51 <pxCurrentTCB+0x1>
    38c4:	9c 01       	movw	r18, r24
    38c6:	2e 5f       	subi	r18, 0xFE	; 254
    38c8:	3f 4f       	sbci	r19, 0xFF	; 255
    38ca:	80 91 96 2c 	lds	r24, 0x2C96	; 0x802c96 <pxOverflowDelayedTaskList>
    38ce:	90 91 97 2c 	lds	r25, 0x2C97	; 0x802c97 <pxOverflowDelayedTaskList+0x1>
    38d2:	b9 01       	movw	r22, r18
    38d4:	0e 94 bd 09 	call	0x137a	; 0x137a <vListInsert>

		/* Avoid compiler warning when INCLUDE_vTaskSuspend is not 1. */
		( void ) xCanBlockIndefinitely;
	}
	#endif /* INCLUDE_vTaskSuspend */
}
    38d8:	2b c0       	rjmp	.+86     	; 0x3930 <prvAddCurrentTaskToDelayedList+0x134>
			}
			else
			{
				/* The wake time has not overflowed, so the current block list
				is used. */
				vListInsert( pxDelayedTaskList, &( pxCurrentTCB->xStateListItem ) );
    38da:	80 91 50 2c 	lds	r24, 0x2C50	; 0x802c50 <pxCurrentTCB>
    38de:	90 91 51 2c 	lds	r25, 0x2C51	; 0x802c51 <pxCurrentTCB+0x1>
    38e2:	9c 01       	movw	r18, r24
    38e4:	2e 5f       	subi	r18, 0xFE	; 254
    38e6:	3f 4f       	sbci	r19, 0xFF	; 255
    38e8:	80 91 94 2c 	lds	r24, 0x2C94	; 0x802c94 <pxDelayedTaskList>
    38ec:	90 91 95 2c 	lds	r25, 0x2C95	; 0x802c95 <pxDelayedTaskList+0x1>
    38f0:	b9 01       	movw	r22, r18
    38f2:	0e 94 bd 09 	call	0x137a	; 0x137a <vListInsert>

				/* If the task entering the blocked state was placed at the
				head of the list of blocked tasks then xNextTaskUnblockTime
				needs to be updated too. */
				if( xTimeToWake < xNextTaskUnblockTime )
    38f6:	80 91 b9 2c 	lds	r24, 0x2CB9	; 0x802cb9 <xNextTaskUnblockTime>
    38fa:	90 91 ba 2c 	lds	r25, 0x2CBA	; 0x802cba <xNextTaskUnblockTime+0x1>
    38fe:	a0 91 bb 2c 	lds	r26, 0x2CBB	; 0x802cbb <xNextTaskUnblockTime+0x2>
    3902:	b0 91 bc 2c 	lds	r27, 0x2CBC	; 0x802cbc <xNextTaskUnblockTime+0x3>
    3906:	2d 81       	ldd	r18, Y+5	; 0x05
    3908:	3e 81       	ldd	r19, Y+6	; 0x06
    390a:	4f 81       	ldd	r20, Y+7	; 0x07
    390c:	58 85       	ldd	r21, Y+8	; 0x08
    390e:	28 17       	cp	r18, r24
    3910:	39 07       	cpc	r19, r25
    3912:	4a 07       	cpc	r20, r26
    3914:	5b 07       	cpc	r21, r27
    3916:	60 f4       	brcc	.+24     	; 0x3930 <prvAddCurrentTaskToDelayedList+0x134>
				{
					xNextTaskUnblockTime = xTimeToWake;
    3918:	8d 81       	ldd	r24, Y+5	; 0x05
    391a:	9e 81       	ldd	r25, Y+6	; 0x06
    391c:	af 81       	ldd	r26, Y+7	; 0x07
    391e:	b8 85       	ldd	r27, Y+8	; 0x08
    3920:	80 93 b9 2c 	sts	0x2CB9, r24	; 0x802cb9 <xNextTaskUnblockTime>
    3924:	90 93 ba 2c 	sts	0x2CBA, r25	; 0x802cba <xNextTaskUnblockTime+0x1>
    3928:	a0 93 bb 2c 	sts	0x2CBB, r26	; 0x802cbb <xNextTaskUnblockTime+0x2>
    392c:	b0 93 bc 2c 	sts	0x2CBC, r27	; 0x802cbc <xNextTaskUnblockTime+0x3>

		/* Avoid compiler warning when INCLUDE_vTaskSuspend is not 1. */
		( void ) xCanBlockIndefinitely;
	}
	#endif /* INCLUDE_vTaskSuspend */
}
    3930:	00 00       	nop
    3932:	2d 96       	adiw	r28, 0x0d	; 13
    3934:	cd bf       	out	0x3d, r28	; 61
    3936:	de bf       	out	0x3e, r29	; 62
    3938:	df 91       	pop	r29
    393a:	cf 91       	pop	r28
    393c:	08 95       	ret

0000393e <xTimerCreateTimerTask>:
	taskENTER_CRITICAL();
	{
		pxTimer->pvTimerID = pvNewID;
	}
	taskEXIT_CRITICAL();
}
    393e:	ef 92       	push	r14
    3940:	ff 92       	push	r15
    3942:	0f 93       	push	r16
    3944:	cf 93       	push	r28
    3946:	df 93       	push	r29
    3948:	1f 92       	push	r1
    394a:	cd b7       	in	r28, 0x3d	; 61
    394c:	de b7       	in	r29, 0x3e	; 62
    394e:	19 82       	std	Y+1, r1	; 0x01
    3950:	0e 94 30 21 	call	0x4260	; 0x4260 <prvCheckForValidListAndQueue>
    3954:	80 91 da 2c 	lds	r24, 0x2CDA	; 0x802cda <xTimerQueue>
    3958:	90 91 db 2c 	lds	r25, 0x2CDB	; 0x802cdb <xTimerQueue+0x1>
    395c:	89 2b       	or	r24, r25
    395e:	91 f0       	breq	.+36     	; 0x3984 <xTimerCreateTimerTask+0x46>
    3960:	0f 2e       	mov	r0, r31
    3962:	fc ed       	ldi	r31, 0xDC	; 220
    3964:	ef 2e       	mov	r14, r31
    3966:	fc e2       	ldi	r31, 0x2C	; 44
    3968:	ff 2e       	mov	r15, r31
    396a:	f0 2d       	mov	r31, r0
    396c:	03 e0       	ldi	r16, 0x03	; 3
    396e:	20 e0       	ldi	r18, 0x00	; 0
    3970:	30 e0       	ldi	r19, 0x00	; 0
    3972:	48 ec       	ldi	r20, 0xC8	; 200
    3974:	50 e0       	ldi	r21, 0x00	; 0
    3976:	66 e0       	ldi	r22, 0x06	; 6
    3978:	70 e2       	ldi	r23, 0x20	; 32
    397a:	85 eb       	ldi	r24, 0xB5	; 181
    397c:	9d e1       	ldi	r25, 0x1D	; 29
    397e:	0e 94 da 13 	call	0x27b4	; 0x27b4 <xTaskCreate>
    3982:	89 83       	std	Y+1, r24	; 0x01
    3984:	89 81       	ldd	r24, Y+1	; 0x01
    3986:	0f 90       	pop	r0
    3988:	df 91       	pop	r29
    398a:	cf 91       	pop	r28
    398c:	0f 91       	pop	r16
    398e:	ff 90       	pop	r15
    3990:	ef 90       	pop	r14
    3992:	08 95       	ret

00003994 <xTimerGenericCommand>:
    3994:	cf 92       	push	r12
    3996:	df 92       	push	r13
    3998:	ef 92       	push	r14
    399a:	ff 92       	push	r15
    399c:	0f 93       	push	r16
    399e:	1f 93       	push	r17
    39a0:	cf 93       	push	r28
    39a2:	df 93       	push	r29
    39a4:	cd b7       	in	r28, 0x3d	; 61
    39a6:	de b7       	in	r29, 0x3e	; 62
    39a8:	67 97       	sbiw	r28, 0x17	; 23
    39aa:	cd bf       	out	0x3d, r28	; 61
    39ac:	de bf       	out	0x3e, r29	; 62
    39ae:	8b 87       	std	Y+11, r24	; 0x0b
    39b0:	9c 87       	std	Y+12, r25	; 0x0c
    39b2:	6d 87       	std	Y+13, r22	; 0x0d
    39b4:	2e 87       	std	Y+14, r18	; 0x0e
    39b6:	3f 87       	std	Y+15, r19	; 0x0f
    39b8:	48 8b       	std	Y+16, r20	; 0x10
    39ba:	59 8b       	std	Y+17, r21	; 0x11
    39bc:	0a 8b       	std	Y+18, r16	; 0x12
    39be:	1b 8b       	std	Y+19, r17	; 0x13
    39c0:	cc 8a       	std	Y+20, r12	; 0x14
    39c2:	dd 8a       	std	Y+21, r13	; 0x15
    39c4:	ee 8a       	std	Y+22, r14	; 0x16
    39c6:	ff 8a       	std	Y+23, r15	; 0x17
    39c8:	19 82       	std	Y+1, r1	; 0x01
    39ca:	80 91 da 2c 	lds	r24, 0x2CDA	; 0x802cda <xTimerQueue>
    39ce:	90 91 db 2c 	lds	r25, 0x2CDB	; 0x802cdb <xTimerQueue+0x1>
    39d2:	89 2b       	or	r24, r25
    39d4:	09 f4       	brne	.+2      	; 0x39d8 <xTimerGenericCommand+0x44>
    39d6:	44 c0       	rjmp	.+136    	; 0x3a60 <xTimerGenericCommand+0xcc>
    39d8:	8d 85       	ldd	r24, Y+13	; 0x0d
    39da:	8a 83       	std	Y+2, r24	; 0x02
    39dc:	8e 85       	ldd	r24, Y+14	; 0x0e
    39de:	9f 85       	ldd	r25, Y+15	; 0x0f
    39e0:	a8 89       	ldd	r26, Y+16	; 0x10
    39e2:	b9 89       	ldd	r27, Y+17	; 0x11
    39e4:	8b 83       	std	Y+3, r24	; 0x03
    39e6:	9c 83       	std	Y+4, r25	; 0x04
    39e8:	ad 83       	std	Y+5, r26	; 0x05
    39ea:	be 83       	std	Y+6, r27	; 0x06
    39ec:	8b 85       	ldd	r24, Y+11	; 0x0b
    39ee:	9c 85       	ldd	r25, Y+12	; 0x0c
    39f0:	8f 83       	std	Y+7, r24	; 0x07
    39f2:	98 87       	std	Y+8, r25	; 0x08
    39f4:	8d 85       	ldd	r24, Y+13	; 0x0d
    39f6:	86 30       	cpi	r24, 0x06	; 6
    39f8:	34 f5       	brge	.+76     	; 0x3a46 <xTimerGenericCommand+0xb2>
    39fa:	0e 94 9f 1b 	call	0x373e	; 0x373e <xTaskGetSchedulerState>
    39fe:	82 30       	cpi	r24, 0x02	; 2
    3a00:	99 f4       	brne	.+38     	; 0x3a28 <xTimerGenericCommand+0x94>
    3a02:	e0 91 da 2c 	lds	r30, 0x2CDA	; 0x802cda <xTimerQueue>
    3a06:	f0 91 db 2c 	lds	r31, 0x2CDB	; 0x802cdb <xTimerQueue+0x1>
    3a0a:	8c 89       	ldd	r24, Y+20	; 0x14
    3a0c:	9d 89       	ldd	r25, Y+21	; 0x15
    3a0e:	ae 89       	ldd	r26, Y+22	; 0x16
    3a10:	bf 89       	ldd	r27, Y+23	; 0x17
    3a12:	be 01       	movw	r22, r28
    3a14:	6e 5f       	subi	r22, 0xFE	; 254
    3a16:	7f 4f       	sbci	r23, 0xFF	; 255
    3a18:	00 e0       	ldi	r16, 0x00	; 0
    3a1a:	9c 01       	movw	r18, r24
    3a1c:	ad 01       	movw	r20, r26
    3a1e:	cf 01       	movw	r24, r30
    3a20:	0e 94 27 0f 	call	0x1e4e	; 0x1e4e <xQueueGenericSend>
    3a24:	89 83       	std	Y+1, r24	; 0x01
    3a26:	1c c0       	rjmp	.+56     	; 0x3a60 <xTimerGenericCommand+0xcc>
    3a28:	80 91 da 2c 	lds	r24, 0x2CDA	; 0x802cda <xTimerQueue>
    3a2c:	90 91 db 2c 	lds	r25, 0x2CDB	; 0x802cdb <xTimerQueue+0x1>
    3a30:	be 01       	movw	r22, r28
    3a32:	6e 5f       	subi	r22, 0xFE	; 254
    3a34:	7f 4f       	sbci	r23, 0xFF	; 255
    3a36:	00 e0       	ldi	r16, 0x00	; 0
    3a38:	20 e0       	ldi	r18, 0x00	; 0
    3a3a:	30 e0       	ldi	r19, 0x00	; 0
    3a3c:	a9 01       	movw	r20, r18
    3a3e:	0e 94 27 0f 	call	0x1e4e	; 0x1e4e <xQueueGenericSend>
    3a42:	89 83       	std	Y+1, r24	; 0x01
    3a44:	0d c0       	rjmp	.+26     	; 0x3a60 <xTimerGenericCommand+0xcc>
    3a46:	80 91 da 2c 	lds	r24, 0x2CDA	; 0x802cda <xTimerQueue>
    3a4a:	90 91 db 2c 	lds	r25, 0x2CDB	; 0x802cdb <xTimerQueue+0x1>
    3a4e:	4a 89       	ldd	r20, Y+18	; 0x12
    3a50:	5b 89       	ldd	r21, Y+19	; 0x13
    3a52:	be 01       	movw	r22, r28
    3a54:	6e 5f       	subi	r22, 0xFE	; 254
    3a56:	7f 4f       	sbci	r23, 0xFF	; 255
    3a58:	20 e0       	ldi	r18, 0x00	; 0
    3a5a:	0e 94 e9 0f 	call	0x1fd2	; 0x1fd2 <xQueueGenericSendFromISR>
    3a5e:	89 83       	std	Y+1, r24	; 0x01
    3a60:	89 81       	ldd	r24, Y+1	; 0x01
    3a62:	67 96       	adiw	r28, 0x17	; 23
    3a64:	cd bf       	out	0x3d, r28	; 61
    3a66:	de bf       	out	0x3e, r29	; 62
    3a68:	df 91       	pop	r29
    3a6a:	cf 91       	pop	r28
    3a6c:	1f 91       	pop	r17
    3a6e:	0f 91       	pop	r16
    3a70:	ff 90       	pop	r15
    3a72:	ef 90       	pop	r14
    3a74:	df 90       	pop	r13
    3a76:	cf 90       	pop	r12
    3a78:	08 95       	ret

00003a7a <prvProcessExpiredTimer>:
    3a7a:	cf 92       	push	r12
    3a7c:	df 92       	push	r13
    3a7e:	ef 92       	push	r14
    3a80:	ff 92       	push	r15
    3a82:	0f 93       	push	r16
    3a84:	1f 93       	push	r17
    3a86:	cf 93       	push	r28
    3a88:	df 93       	push	r29
    3a8a:	cd b7       	in	r28, 0x3d	; 61
    3a8c:	de b7       	in	r29, 0x3e	; 62
    3a8e:	2b 97       	sbiw	r28, 0x0b	; 11
    3a90:	cd bf       	out	0x3d, r28	; 61
    3a92:	de bf       	out	0x3e, r29	; 62
    3a94:	6c 83       	std	Y+4, r22	; 0x04
    3a96:	7d 83       	std	Y+5, r23	; 0x05
    3a98:	8e 83       	std	Y+6, r24	; 0x06
    3a9a:	9f 83       	std	Y+7, r25	; 0x07
    3a9c:	28 87       	std	Y+8, r18	; 0x08
    3a9e:	39 87       	std	Y+9, r19	; 0x09
    3aa0:	4a 87       	std	Y+10, r20	; 0x0a
    3aa2:	5b 87       	std	Y+11, r21	; 0x0b
    3aa4:	80 91 d6 2c 	lds	r24, 0x2CD6	; 0x802cd6 <pxCurrentTimerList>
    3aa8:	90 91 d7 2c 	lds	r25, 0x2CD7	; 0x802cd7 <pxCurrentTimerList+0x1>
    3aac:	fc 01       	movw	r30, r24
    3aae:	87 81       	ldd	r24, Z+7	; 0x07
    3ab0:	90 85       	ldd	r25, Z+8	; 0x08
    3ab2:	fc 01       	movw	r30, r24
    3ab4:	80 85       	ldd	r24, Z+8	; 0x08
    3ab6:	91 85       	ldd	r25, Z+9	; 0x09
    3ab8:	89 83       	std	Y+1, r24	; 0x01
    3aba:	9a 83       	std	Y+2, r25	; 0x02
    3abc:	89 81       	ldd	r24, Y+1	; 0x01
    3abe:	9a 81       	ldd	r25, Y+2	; 0x02
    3ac0:	02 96       	adiw	r24, 0x02	; 2
    3ac2:	0e 94 3e 0a 	call	0x147c	; 0x147c <uxListRemove>
    3ac6:	89 81       	ldd	r24, Y+1	; 0x01
    3ac8:	9a 81       	ldd	r25, Y+2	; 0x02
    3aca:	fc 01       	movw	r30, r24
    3acc:	82 89       	ldd	r24, Z+18	; 0x12
    3ace:	81 30       	cpi	r24, 0x01	; 1
    3ad0:	b1 f5       	brne	.+108    	; 0x3b3e <prvProcessExpiredTimer+0xc4>
    3ad2:	89 81       	ldd	r24, Y+1	; 0x01
    3ad4:	9a 81       	ldd	r25, Y+2	; 0x02
    3ad6:	fc 01       	movw	r30, r24
    3ad8:	26 85       	ldd	r18, Z+14	; 0x0e
    3ada:	37 85       	ldd	r19, Z+15	; 0x0f
    3adc:	40 89       	ldd	r20, Z+16	; 0x10
    3ade:	51 89       	ldd	r21, Z+17	; 0x11
    3ae0:	8c 81       	ldd	r24, Y+4	; 0x04
    3ae2:	9d 81       	ldd	r25, Y+5	; 0x05
    3ae4:	ae 81       	ldd	r26, Y+6	; 0x06
    3ae6:	bf 81       	ldd	r27, Y+7	; 0x07
    3ae8:	82 0f       	add	r24, r18
    3aea:	93 1f       	adc	r25, r19
    3aec:	a4 1f       	adc	r26, r20
    3aee:	b5 1f       	adc	r27, r21
    3af0:	ec 80       	ldd	r14, Y+4	; 0x04
    3af2:	fd 80       	ldd	r15, Y+5	; 0x05
    3af4:	0e 81       	ldd	r16, Y+6	; 0x06
    3af6:	1f 81       	ldd	r17, Y+7	; 0x07
    3af8:	28 85       	ldd	r18, Y+8	; 0x08
    3afa:	39 85       	ldd	r19, Y+9	; 0x09
    3afc:	4a 85       	ldd	r20, Y+10	; 0x0a
    3afe:	5b 85       	ldd	r21, Y+11	; 0x0b
    3b00:	e9 81       	ldd	r30, Y+1	; 0x01
    3b02:	fa 81       	ldd	r31, Y+2	; 0x02
    3b04:	67 01       	movw	r12, r14
    3b06:	78 01       	movw	r14, r16
    3b08:	89 01       	movw	r16, r18
    3b0a:	9a 01       	movw	r18, r20
    3b0c:	ac 01       	movw	r20, r24
    3b0e:	bd 01       	movw	r22, r26
    3b10:	cf 01       	movw	r24, r30
    3b12:	0e 94 d3 1e 	call	0x3da6	; 0x3da6 <prvInsertTimerInActiveList>
    3b16:	88 23       	and	r24, r24
    3b18:	91 f0       	breq	.+36     	; 0x3b3e <prvProcessExpiredTimer+0xc4>
    3b1a:	8c 81       	ldd	r24, Y+4	; 0x04
    3b1c:	9d 81       	ldd	r25, Y+5	; 0x05
    3b1e:	ae 81       	ldd	r26, Y+6	; 0x06
    3b20:	bf 81       	ldd	r27, Y+7	; 0x07
    3b22:	e9 81       	ldd	r30, Y+1	; 0x01
    3b24:	fa 81       	ldd	r31, Y+2	; 0x02
    3b26:	c1 2c       	mov	r12, r1
    3b28:	d1 2c       	mov	r13, r1
    3b2a:	76 01       	movw	r14, r12
    3b2c:	00 e0       	ldi	r16, 0x00	; 0
    3b2e:	10 e0       	ldi	r17, 0x00	; 0
    3b30:	9c 01       	movw	r18, r24
    3b32:	ad 01       	movw	r20, r26
    3b34:	60 e0       	ldi	r22, 0x00	; 0
    3b36:	cf 01       	movw	r24, r30
    3b38:	0e 94 ca 1c 	call	0x3994	; 0x3994 <xTimerGenericCommand>
    3b3c:	8b 83       	std	Y+3, r24	; 0x03
    3b3e:	89 81       	ldd	r24, Y+1	; 0x01
    3b40:	9a 81       	ldd	r25, Y+2	; 0x02
    3b42:	fc 01       	movw	r30, r24
    3b44:	25 89       	ldd	r18, Z+21	; 0x15
    3b46:	36 89       	ldd	r19, Z+22	; 0x16
    3b48:	89 81       	ldd	r24, Y+1	; 0x01
    3b4a:	9a 81       	ldd	r25, Y+2	; 0x02
    3b4c:	f9 01       	movw	r30, r18
    3b4e:	19 95       	eicall
    3b50:	00 00       	nop
    3b52:	2b 96       	adiw	r28, 0x0b	; 11
    3b54:	cd bf       	out	0x3d, r28	; 61
    3b56:	de bf       	out	0x3e, r29	; 62
    3b58:	df 91       	pop	r29
    3b5a:	cf 91       	pop	r28
    3b5c:	1f 91       	pop	r17
    3b5e:	0f 91       	pop	r16
    3b60:	ff 90       	pop	r15
    3b62:	ef 90       	pop	r14
    3b64:	df 90       	pop	r13
    3b66:	cf 90       	pop	r12
    3b68:	08 95       	ret

00003b6a <prvTimerTask>:
    3b6a:	cf 93       	push	r28
    3b6c:	df 93       	push	r29
    3b6e:	cd b7       	in	r28, 0x3d	; 61
    3b70:	de b7       	in	r29, 0x3e	; 62
    3b72:	27 97       	sbiw	r28, 0x07	; 7
    3b74:	cd bf       	out	0x3d, r28	; 61
    3b76:	de bf       	out	0x3e, r29	; 62
    3b78:	8e 83       	std	Y+6, r24	; 0x06
    3b7a:	9f 83       	std	Y+7, r25	; 0x07
    3b7c:	ce 01       	movw	r24, r28
    3b7e:	05 96       	adiw	r24, 0x05	; 5
    3b80:	0e 94 50 1e 	call	0x3ca0	; 0x3ca0 <prvGetNextExpireTime>
    3b84:	dc 01       	movw	r26, r24
    3b86:	cb 01       	movw	r24, r22
    3b88:	89 83       	std	Y+1, r24	; 0x01
    3b8a:	9a 83       	std	Y+2, r25	; 0x02
    3b8c:	ab 83       	std	Y+3, r26	; 0x03
    3b8e:	bc 83       	std	Y+4, r27	; 0x04
    3b90:	2d 81       	ldd	r18, Y+5	; 0x05
    3b92:	89 81       	ldd	r24, Y+1	; 0x01
    3b94:	9a 81       	ldd	r25, Y+2	; 0x02
    3b96:	ab 81       	ldd	r26, Y+3	; 0x03
    3b98:	bc 81       	ldd	r27, Y+4	; 0x04
    3b9a:	42 2f       	mov	r20, r18
    3b9c:	bc 01       	movw	r22, r24
    3b9e:	cd 01       	movw	r24, r26
    3ba0:	0e 94 d5 1d 	call	0x3baa	; 0x3baa <prvProcessTimerOrBlockTask>
    3ba4:	0e 94 6c 1f 	call	0x3ed8	; 0x3ed8 <prvProcessReceivedCommands>
    3ba8:	e9 cf       	rjmp	.-46     	; 0x3b7c <prvTimerTask+0x12>

00003baa <prvProcessTimerOrBlockTask>:
    3baa:	ef 92       	push	r14
    3bac:	ff 92       	push	r15
    3bae:	0f 93       	push	r16
    3bb0:	1f 93       	push	r17
    3bb2:	cf 93       	push	r28
    3bb4:	df 93       	push	r29
    3bb6:	cd b7       	in	r28, 0x3d	; 61
    3bb8:	de b7       	in	r29, 0x3e	; 62
    3bba:	2a 97       	sbiw	r28, 0x0a	; 10
    3bbc:	cd bf       	out	0x3d, r28	; 61
    3bbe:	de bf       	out	0x3e, r29	; 62
    3bc0:	6e 83       	std	Y+6, r22	; 0x06
    3bc2:	7f 83       	std	Y+7, r23	; 0x07
    3bc4:	88 87       	std	Y+8, r24	; 0x08
    3bc6:	99 87       	std	Y+9, r25	; 0x09
    3bc8:	4a 87       	std	Y+10, r20	; 0x0a
    3bca:	0e 94 27 16 	call	0x2c4e	; 0x2c4e <vTaskSuspendAll>
    3bce:	ce 01       	movw	r24, r28
    3bd0:	05 96       	adiw	r24, 0x05	; 5
    3bd2:	0e 94 8e 1e 	call	0x3d1c	; 0x3d1c <prvSampleTimeNow>
    3bd6:	dc 01       	movw	r26, r24
    3bd8:	cb 01       	movw	r24, r22
    3bda:	89 83       	std	Y+1, r24	; 0x01
    3bdc:	9a 83       	std	Y+2, r25	; 0x02
    3bde:	ab 83       	std	Y+3, r26	; 0x03
    3be0:	bc 83       	std	Y+4, r27	; 0x04
    3be2:	8d 81       	ldd	r24, Y+5	; 0x05
    3be4:	88 23       	and	r24, r24
    3be6:	09 f0       	breq	.+2      	; 0x3bea <prvProcessTimerOrBlockTask+0x40>
    3be8:	4e c0       	rjmp	.+156    	; 0x3c86 <prvProcessTimerOrBlockTask+0xdc>
    3bea:	8a 85       	ldd	r24, Y+10	; 0x0a
    3bec:	88 23       	and	r24, r24
    3bee:	e1 f4       	brne	.+56     	; 0x3c28 <prvProcessTimerOrBlockTask+0x7e>
    3bf0:	2e 81       	ldd	r18, Y+6	; 0x06
    3bf2:	3f 81       	ldd	r19, Y+7	; 0x07
    3bf4:	48 85       	ldd	r20, Y+8	; 0x08
    3bf6:	59 85       	ldd	r21, Y+9	; 0x09
    3bf8:	89 81       	ldd	r24, Y+1	; 0x01
    3bfa:	9a 81       	ldd	r25, Y+2	; 0x02
    3bfc:	ab 81       	ldd	r26, Y+3	; 0x03
    3bfe:	bc 81       	ldd	r27, Y+4	; 0x04
    3c00:	82 17       	cp	r24, r18
    3c02:	93 07       	cpc	r25, r19
    3c04:	a4 07       	cpc	r26, r20
    3c06:	b5 07       	cpc	r27, r21
    3c08:	78 f0       	brcs	.+30     	; 0x3c28 <prvProcessTimerOrBlockTask+0x7e>
    3c0a:	0e 94 34 16 	call	0x2c68	; 0x2c68 <xTaskResumeAll>
    3c0e:	29 81       	ldd	r18, Y+1	; 0x01
    3c10:	3a 81       	ldd	r19, Y+2	; 0x02
    3c12:	4b 81       	ldd	r20, Y+3	; 0x03
    3c14:	5c 81       	ldd	r21, Y+4	; 0x04
    3c16:	8e 81       	ldd	r24, Y+6	; 0x06
    3c18:	9f 81       	ldd	r25, Y+7	; 0x07
    3c1a:	a8 85       	ldd	r26, Y+8	; 0x08
    3c1c:	b9 85       	ldd	r27, Y+9	; 0x09
    3c1e:	bc 01       	movw	r22, r24
    3c20:	cd 01       	movw	r24, r26
    3c22:	0e 94 3d 1d 	call	0x3a7a	; 0x3a7a <prvProcessExpiredTimer>
    3c26:	31 c0       	rjmp	.+98     	; 0x3c8a <prvProcessTimerOrBlockTask+0xe0>
    3c28:	8a 85       	ldd	r24, Y+10	; 0x0a
    3c2a:	88 23       	and	r24, r24
    3c2c:	59 f0       	breq	.+22     	; 0x3c44 <prvProcessTimerOrBlockTask+0x9a>
    3c2e:	80 91 d8 2c 	lds	r24, 0x2CD8	; 0x802cd8 <pxOverflowTimerList>
    3c32:	90 91 d9 2c 	lds	r25, 0x2CD9	; 0x802cd9 <pxOverflowTimerList+0x1>
    3c36:	fc 01       	movw	r30, r24
    3c38:	90 81       	ld	r25, Z
    3c3a:	81 e0       	ldi	r24, 0x01	; 1
    3c3c:	99 23       	and	r25, r25
    3c3e:	09 f0       	breq	.+2      	; 0x3c42 <prvProcessTimerOrBlockTask+0x98>
    3c40:	80 e0       	ldi	r24, 0x00	; 0
    3c42:	8a 87       	std	Y+10, r24	; 0x0a
    3c44:	2e 81       	ldd	r18, Y+6	; 0x06
    3c46:	3f 81       	ldd	r19, Y+7	; 0x07
    3c48:	48 85       	ldd	r20, Y+8	; 0x08
    3c4a:	59 85       	ldd	r21, Y+9	; 0x09
    3c4c:	89 81       	ldd	r24, Y+1	; 0x01
    3c4e:	9a 81       	ldd	r25, Y+2	; 0x02
    3c50:	ab 81       	ldd	r26, Y+3	; 0x03
    3c52:	bc 81       	ldd	r27, Y+4	; 0x04
    3c54:	79 01       	movw	r14, r18
    3c56:	8a 01       	movw	r16, r20
    3c58:	e8 1a       	sub	r14, r24
    3c5a:	f9 0a       	sbc	r15, r25
    3c5c:	0a 0b       	sbc	r16, r26
    3c5e:	1b 0b       	sbc	r17, r27
    3c60:	d8 01       	movw	r26, r16
    3c62:	c7 01       	movw	r24, r14
    3c64:	e0 91 da 2c 	lds	r30, 0x2CDA	; 0x802cda <xTimerQueue>
    3c68:	f0 91 db 2c 	lds	r31, 0x2CDB	; 0x802cdb <xTimerQueue+0x1>
    3c6c:	2a 85       	ldd	r18, Y+10	; 0x0a
    3c6e:	ac 01       	movw	r20, r24
    3c70:	bd 01       	movw	r22, r26
    3c72:	cf 01       	movw	r24, r30
    3c74:	0e 94 8c 13 	call	0x2718	; 0x2718 <vQueueWaitForMessageRestricted>
    3c78:	0e 94 34 16 	call	0x2c68	; 0x2c68 <xTaskResumeAll>
    3c7c:	88 23       	and	r24, r24
    3c7e:	29 f4       	brne	.+10     	; 0x3c8a <prvProcessTimerOrBlockTask+0xe0>
    3c80:	0e 94 bc 0c 	call	0x1978	; 0x1978 <vPortYield>
    3c84:	02 c0       	rjmp	.+4      	; 0x3c8a <prvProcessTimerOrBlockTask+0xe0>
    3c86:	0e 94 34 16 	call	0x2c68	; 0x2c68 <xTaskResumeAll>
    3c8a:	00 00       	nop
    3c8c:	2a 96       	adiw	r28, 0x0a	; 10
    3c8e:	cd bf       	out	0x3d, r28	; 61
    3c90:	de bf       	out	0x3e, r29	; 62
    3c92:	df 91       	pop	r29
    3c94:	cf 91       	pop	r28
    3c96:	1f 91       	pop	r17
    3c98:	0f 91       	pop	r16
    3c9a:	ff 90       	pop	r15
    3c9c:	ef 90       	pop	r14
    3c9e:	08 95       	ret

00003ca0 <prvGetNextExpireTime>:
    3ca0:	cf 93       	push	r28
    3ca2:	df 93       	push	r29
    3ca4:	00 d0       	rcall	.+0      	; 0x3ca6 <prvGetNextExpireTime+0x6>
    3ca6:	00 d0       	rcall	.+0      	; 0x3ca8 <prvGetNextExpireTime+0x8>
    3ca8:	cd b7       	in	r28, 0x3d	; 61
    3caa:	de b7       	in	r29, 0x3e	; 62
    3cac:	8d 83       	std	Y+5, r24	; 0x05
    3cae:	9e 83       	std	Y+6, r25	; 0x06
    3cb0:	80 91 d6 2c 	lds	r24, 0x2CD6	; 0x802cd6 <pxCurrentTimerList>
    3cb4:	90 91 d7 2c 	lds	r25, 0x2CD7	; 0x802cd7 <pxCurrentTimerList+0x1>
    3cb8:	fc 01       	movw	r30, r24
    3cba:	90 81       	ld	r25, Z
    3cbc:	81 e0       	ldi	r24, 0x01	; 1
    3cbe:	99 23       	and	r25, r25
    3cc0:	09 f0       	breq	.+2      	; 0x3cc4 <prvGetNextExpireTime+0x24>
    3cc2:	80 e0       	ldi	r24, 0x00	; 0
    3cc4:	28 2f       	mov	r18, r24
    3cc6:	8d 81       	ldd	r24, Y+5	; 0x05
    3cc8:	9e 81       	ldd	r25, Y+6	; 0x06
    3cca:	fc 01       	movw	r30, r24
    3ccc:	20 83       	st	Z, r18
    3cce:	8d 81       	ldd	r24, Y+5	; 0x05
    3cd0:	9e 81       	ldd	r25, Y+6	; 0x06
    3cd2:	fc 01       	movw	r30, r24
    3cd4:	80 81       	ld	r24, Z
    3cd6:	88 23       	and	r24, r24
    3cd8:	89 f4       	brne	.+34     	; 0x3cfc <prvGetNextExpireTime+0x5c>
    3cda:	80 91 d6 2c 	lds	r24, 0x2CD6	; 0x802cd6 <pxCurrentTimerList>
    3cde:	90 91 d7 2c 	lds	r25, 0x2CD7	; 0x802cd7 <pxCurrentTimerList+0x1>
    3ce2:	fc 01       	movw	r30, r24
    3ce4:	87 81       	ldd	r24, Z+7	; 0x07
    3ce6:	90 85       	ldd	r25, Z+8	; 0x08
    3ce8:	fc 01       	movw	r30, r24
    3cea:	80 81       	ld	r24, Z
    3cec:	91 81       	ldd	r25, Z+1	; 0x01
    3cee:	a2 81       	ldd	r26, Z+2	; 0x02
    3cf0:	b3 81       	ldd	r27, Z+3	; 0x03
    3cf2:	89 83       	std	Y+1, r24	; 0x01
    3cf4:	9a 83       	std	Y+2, r25	; 0x02
    3cf6:	ab 83       	std	Y+3, r26	; 0x03
    3cf8:	bc 83       	std	Y+4, r27	; 0x04
    3cfa:	04 c0       	rjmp	.+8      	; 0x3d04 <prvGetNextExpireTime+0x64>
    3cfc:	19 82       	std	Y+1, r1	; 0x01
    3cfe:	1a 82       	std	Y+2, r1	; 0x02
    3d00:	1b 82       	std	Y+3, r1	; 0x03
    3d02:	1c 82       	std	Y+4, r1	; 0x04
    3d04:	89 81       	ldd	r24, Y+1	; 0x01
    3d06:	9a 81       	ldd	r25, Y+2	; 0x02
    3d08:	ab 81       	ldd	r26, Y+3	; 0x03
    3d0a:	bc 81       	ldd	r27, Y+4	; 0x04
    3d0c:	bc 01       	movw	r22, r24
    3d0e:	cd 01       	movw	r24, r26
    3d10:	26 96       	adiw	r28, 0x06	; 6
    3d12:	cd bf       	out	0x3d, r28	; 61
    3d14:	de bf       	out	0x3e, r29	; 62
    3d16:	df 91       	pop	r29
    3d18:	cf 91       	pop	r28
    3d1a:	08 95       	ret

00003d1c <prvSampleTimeNow>:
    3d1c:	cf 93       	push	r28
    3d1e:	df 93       	push	r29
    3d20:	00 d0       	rcall	.+0      	; 0x3d22 <prvSampleTimeNow+0x6>
    3d22:	00 d0       	rcall	.+0      	; 0x3d24 <prvSampleTimeNow+0x8>
    3d24:	cd b7       	in	r28, 0x3d	; 61
    3d26:	de b7       	in	r29, 0x3e	; 62
    3d28:	8d 83       	std	Y+5, r24	; 0x05
    3d2a:	9e 83       	std	Y+6, r25	; 0x06
    3d2c:	0e 94 cb 16 	call	0x2d96	; 0x2d96 <xTaskGetTickCount>
    3d30:	dc 01       	movw	r26, r24
    3d32:	cb 01       	movw	r24, r22
    3d34:	89 83       	std	Y+1, r24	; 0x01
    3d36:	9a 83       	std	Y+2, r25	; 0x02
    3d38:	ab 83       	std	Y+3, r26	; 0x03
    3d3a:	bc 83       	std	Y+4, r27	; 0x04
    3d3c:	80 91 de 2c 	lds	r24, 0x2CDE	; 0x802cde <xLastTime.4745>
    3d40:	90 91 df 2c 	lds	r25, 0x2CDF	; 0x802cdf <xLastTime.4745+0x1>
    3d44:	a0 91 e0 2c 	lds	r26, 0x2CE0	; 0x802ce0 <xLastTime.4745+0x2>
    3d48:	b0 91 e1 2c 	lds	r27, 0x2CE1	; 0x802ce1 <xLastTime.4745+0x3>
    3d4c:	29 81       	ldd	r18, Y+1	; 0x01
    3d4e:	3a 81       	ldd	r19, Y+2	; 0x02
    3d50:	4b 81       	ldd	r20, Y+3	; 0x03
    3d52:	5c 81       	ldd	r21, Y+4	; 0x04
    3d54:	28 17       	cp	r18, r24
    3d56:	39 07       	cpc	r19, r25
    3d58:	4a 07       	cpc	r20, r26
    3d5a:	5b 07       	cpc	r21, r27
    3d5c:	40 f4       	brcc	.+16     	; 0x3d6e <prvSampleTimeNow+0x52>
    3d5e:	0e 94 76 20 	call	0x40ec	; 0x40ec <prvSwitchTimerLists>
    3d62:	8d 81       	ldd	r24, Y+5	; 0x05
    3d64:	9e 81       	ldd	r25, Y+6	; 0x06
    3d66:	21 e0       	ldi	r18, 0x01	; 1
    3d68:	fc 01       	movw	r30, r24
    3d6a:	20 83       	st	Z, r18
    3d6c:	04 c0       	rjmp	.+8      	; 0x3d76 <prvSampleTimeNow+0x5a>
    3d6e:	8d 81       	ldd	r24, Y+5	; 0x05
    3d70:	9e 81       	ldd	r25, Y+6	; 0x06
    3d72:	fc 01       	movw	r30, r24
    3d74:	10 82       	st	Z, r1
    3d76:	89 81       	ldd	r24, Y+1	; 0x01
    3d78:	9a 81       	ldd	r25, Y+2	; 0x02
    3d7a:	ab 81       	ldd	r26, Y+3	; 0x03
    3d7c:	bc 81       	ldd	r27, Y+4	; 0x04
    3d7e:	80 93 de 2c 	sts	0x2CDE, r24	; 0x802cde <xLastTime.4745>
    3d82:	90 93 df 2c 	sts	0x2CDF, r25	; 0x802cdf <xLastTime.4745+0x1>
    3d86:	a0 93 e0 2c 	sts	0x2CE0, r26	; 0x802ce0 <xLastTime.4745+0x2>
    3d8a:	b0 93 e1 2c 	sts	0x2CE1, r27	; 0x802ce1 <xLastTime.4745+0x3>
    3d8e:	89 81       	ldd	r24, Y+1	; 0x01
    3d90:	9a 81       	ldd	r25, Y+2	; 0x02
    3d92:	ab 81       	ldd	r26, Y+3	; 0x03
    3d94:	bc 81       	ldd	r27, Y+4	; 0x04
    3d96:	bc 01       	movw	r22, r24
    3d98:	cd 01       	movw	r24, r26
    3d9a:	26 96       	adiw	r28, 0x06	; 6
    3d9c:	cd bf       	out	0x3d, r28	; 61
    3d9e:	de bf       	out	0x3e, r29	; 62
    3da0:	df 91       	pop	r29
    3da2:	cf 91       	pop	r28
    3da4:	08 95       	ret

00003da6 <prvInsertTimerInActiveList>:
    3da6:	cf 92       	push	r12
    3da8:	df 92       	push	r13
    3daa:	ef 92       	push	r14
    3dac:	ff 92       	push	r15
    3dae:	0f 93       	push	r16
    3db0:	1f 93       	push	r17
    3db2:	cf 93       	push	r28
    3db4:	df 93       	push	r29
    3db6:	cd b7       	in	r28, 0x3d	; 61
    3db8:	de b7       	in	r29, 0x3e	; 62
    3dba:	2f 97       	sbiw	r28, 0x0f	; 15
    3dbc:	cd bf       	out	0x3d, r28	; 61
    3dbe:	de bf       	out	0x3e, r29	; 62
    3dc0:	8a 83       	std	Y+2, r24	; 0x02
    3dc2:	9b 83       	std	Y+3, r25	; 0x03
    3dc4:	4c 83       	std	Y+4, r20	; 0x04
    3dc6:	5d 83       	std	Y+5, r21	; 0x05
    3dc8:	6e 83       	std	Y+6, r22	; 0x06
    3dca:	7f 83       	std	Y+7, r23	; 0x07
    3dcc:	08 87       	std	Y+8, r16	; 0x08
    3dce:	19 87       	std	Y+9, r17	; 0x09
    3dd0:	2a 87       	std	Y+10, r18	; 0x0a
    3dd2:	3b 87       	std	Y+11, r19	; 0x0b
    3dd4:	cc 86       	std	Y+12, r12	; 0x0c
    3dd6:	dd 86       	std	Y+13, r13	; 0x0d
    3dd8:	ee 86       	std	Y+14, r14	; 0x0e
    3dda:	ff 86       	std	Y+15, r15	; 0x0f
    3ddc:	19 82       	std	Y+1, r1	; 0x01
    3dde:	2a 81       	ldd	r18, Y+2	; 0x02
    3de0:	3b 81       	ldd	r19, Y+3	; 0x03
    3de2:	8c 81       	ldd	r24, Y+4	; 0x04
    3de4:	9d 81       	ldd	r25, Y+5	; 0x05
    3de6:	ae 81       	ldd	r26, Y+6	; 0x06
    3de8:	bf 81       	ldd	r27, Y+7	; 0x07
    3dea:	f9 01       	movw	r30, r18
    3dec:	82 83       	std	Z+2, r24	; 0x02
    3dee:	93 83       	std	Z+3, r25	; 0x03
    3df0:	a4 83       	std	Z+4, r26	; 0x04
    3df2:	b5 83       	std	Z+5, r27	; 0x05
    3df4:	8a 81       	ldd	r24, Y+2	; 0x02
    3df6:	9b 81       	ldd	r25, Y+3	; 0x03
    3df8:	2a 81       	ldd	r18, Y+2	; 0x02
    3dfa:	3b 81       	ldd	r19, Y+3	; 0x03
    3dfc:	fc 01       	movw	r30, r24
    3dfe:	22 87       	std	Z+10, r18	; 0x0a
    3e00:	33 87       	std	Z+11, r19	; 0x0b
    3e02:	2c 81       	ldd	r18, Y+4	; 0x04
    3e04:	3d 81       	ldd	r19, Y+5	; 0x05
    3e06:	4e 81       	ldd	r20, Y+6	; 0x06
    3e08:	5f 81       	ldd	r21, Y+7	; 0x07
    3e0a:	88 85       	ldd	r24, Y+8	; 0x08
    3e0c:	99 85       	ldd	r25, Y+9	; 0x09
    3e0e:	aa 85       	ldd	r26, Y+10	; 0x0a
    3e10:	bb 85       	ldd	r27, Y+11	; 0x0b
    3e12:	82 17       	cp	r24, r18
    3e14:	93 07       	cpc	r25, r19
    3e16:	a4 07       	cpc	r26, r20
    3e18:	b5 07       	cpc	r27, r21
    3e1a:	40 f1       	brcs	.+80     	; 0x3e6c <prvInsertTimerInActiveList+0xc6>
    3e1c:	28 85       	ldd	r18, Y+8	; 0x08
    3e1e:	39 85       	ldd	r19, Y+9	; 0x09
    3e20:	4a 85       	ldd	r20, Y+10	; 0x0a
    3e22:	5b 85       	ldd	r21, Y+11	; 0x0b
    3e24:	8c 85       	ldd	r24, Y+12	; 0x0c
    3e26:	9d 85       	ldd	r25, Y+13	; 0x0d
    3e28:	ae 85       	ldd	r26, Y+14	; 0x0e
    3e2a:	bf 85       	ldd	r27, Y+15	; 0x0f
    3e2c:	28 1b       	sub	r18, r24
    3e2e:	39 0b       	sbc	r19, r25
    3e30:	4a 0b       	sbc	r20, r26
    3e32:	5b 0b       	sbc	r21, r27
    3e34:	8a 81       	ldd	r24, Y+2	; 0x02
    3e36:	9b 81       	ldd	r25, Y+3	; 0x03
    3e38:	fc 01       	movw	r30, r24
    3e3a:	86 85       	ldd	r24, Z+14	; 0x0e
    3e3c:	97 85       	ldd	r25, Z+15	; 0x0f
    3e3e:	a0 89       	ldd	r26, Z+16	; 0x10
    3e40:	b1 89       	ldd	r27, Z+17	; 0x11
    3e42:	28 17       	cp	r18, r24
    3e44:	39 07       	cpc	r19, r25
    3e46:	4a 07       	cpc	r20, r26
    3e48:	5b 07       	cpc	r21, r27
    3e4a:	18 f0       	brcs	.+6      	; 0x3e52 <prvInsertTimerInActiveList+0xac>
    3e4c:	81 e0       	ldi	r24, 0x01	; 1
    3e4e:	89 83       	std	Y+1, r24	; 0x01
    3e50:	36 c0       	rjmp	.+108    	; 0x3ebe <prvInsertTimerInActiveList+0x118>
    3e52:	8a 81       	ldd	r24, Y+2	; 0x02
    3e54:	9b 81       	ldd	r25, Y+3	; 0x03
    3e56:	9c 01       	movw	r18, r24
    3e58:	2e 5f       	subi	r18, 0xFE	; 254
    3e5a:	3f 4f       	sbci	r19, 0xFF	; 255
    3e5c:	80 91 d8 2c 	lds	r24, 0x2CD8	; 0x802cd8 <pxOverflowTimerList>
    3e60:	90 91 d9 2c 	lds	r25, 0x2CD9	; 0x802cd9 <pxOverflowTimerList+0x1>
    3e64:	b9 01       	movw	r22, r18
    3e66:	0e 94 bd 09 	call	0x137a	; 0x137a <vListInsert>
    3e6a:	29 c0       	rjmp	.+82     	; 0x3ebe <prvInsertTimerInActiveList+0x118>
    3e6c:	28 85       	ldd	r18, Y+8	; 0x08
    3e6e:	39 85       	ldd	r19, Y+9	; 0x09
    3e70:	4a 85       	ldd	r20, Y+10	; 0x0a
    3e72:	5b 85       	ldd	r21, Y+11	; 0x0b
    3e74:	8c 85       	ldd	r24, Y+12	; 0x0c
    3e76:	9d 85       	ldd	r25, Y+13	; 0x0d
    3e78:	ae 85       	ldd	r26, Y+14	; 0x0e
    3e7a:	bf 85       	ldd	r27, Y+15	; 0x0f
    3e7c:	28 17       	cp	r18, r24
    3e7e:	39 07       	cpc	r19, r25
    3e80:	4a 07       	cpc	r20, r26
    3e82:	5b 07       	cpc	r21, r27
    3e84:	80 f4       	brcc	.+32     	; 0x3ea6 <prvInsertTimerInActiveList+0x100>
    3e86:	2c 81       	ldd	r18, Y+4	; 0x04
    3e88:	3d 81       	ldd	r19, Y+5	; 0x05
    3e8a:	4e 81       	ldd	r20, Y+6	; 0x06
    3e8c:	5f 81       	ldd	r21, Y+7	; 0x07
    3e8e:	8c 85       	ldd	r24, Y+12	; 0x0c
    3e90:	9d 85       	ldd	r25, Y+13	; 0x0d
    3e92:	ae 85       	ldd	r26, Y+14	; 0x0e
    3e94:	bf 85       	ldd	r27, Y+15	; 0x0f
    3e96:	28 17       	cp	r18, r24
    3e98:	39 07       	cpc	r19, r25
    3e9a:	4a 07       	cpc	r20, r26
    3e9c:	5b 07       	cpc	r21, r27
    3e9e:	18 f0       	brcs	.+6      	; 0x3ea6 <prvInsertTimerInActiveList+0x100>
    3ea0:	81 e0       	ldi	r24, 0x01	; 1
    3ea2:	89 83       	std	Y+1, r24	; 0x01
    3ea4:	0c c0       	rjmp	.+24     	; 0x3ebe <prvInsertTimerInActiveList+0x118>
    3ea6:	8a 81       	ldd	r24, Y+2	; 0x02
    3ea8:	9b 81       	ldd	r25, Y+3	; 0x03
    3eaa:	9c 01       	movw	r18, r24
    3eac:	2e 5f       	subi	r18, 0xFE	; 254
    3eae:	3f 4f       	sbci	r19, 0xFF	; 255
    3eb0:	80 91 d6 2c 	lds	r24, 0x2CD6	; 0x802cd6 <pxCurrentTimerList>
    3eb4:	90 91 d7 2c 	lds	r25, 0x2CD7	; 0x802cd7 <pxCurrentTimerList+0x1>
    3eb8:	b9 01       	movw	r22, r18
    3eba:	0e 94 bd 09 	call	0x137a	; 0x137a <vListInsert>
    3ebe:	89 81       	ldd	r24, Y+1	; 0x01
    3ec0:	2f 96       	adiw	r28, 0x0f	; 15
    3ec2:	cd bf       	out	0x3d, r28	; 61
    3ec4:	de bf       	out	0x3e, r29	; 62
    3ec6:	df 91       	pop	r29
    3ec8:	cf 91       	pop	r28
    3eca:	1f 91       	pop	r17
    3ecc:	0f 91       	pop	r16
    3ece:	ff 90       	pop	r15
    3ed0:	ef 90       	pop	r14
    3ed2:	df 90       	pop	r13
    3ed4:	cf 90       	pop	r12
    3ed6:	08 95       	ret

00003ed8 <prvProcessReceivedCommands>:
    3ed8:	cf 92       	push	r12
    3eda:	df 92       	push	r13
    3edc:	ef 92       	push	r14
    3ede:	ff 92       	push	r15
    3ee0:	0f 93       	push	r16
    3ee2:	1f 93       	push	r17
    3ee4:	cf 93       	push	r28
    3ee6:	df 93       	push	r29
    3ee8:	cd b7       	in	r28, 0x3d	; 61
    3eea:	de b7       	in	r29, 0x3e	; 62
    3eec:	65 97       	sbiw	r28, 0x15	; 21
    3eee:	cd bf       	out	0x3d, r28	; 61
    3ef0:	de bf       	out	0x3e, r29	; 62
    3ef2:	e0 c0       	rjmp	.+448    	; 0x40b4 <__stack+0xb5>
    3ef4:	8a 85       	ldd	r24, Y+10	; 0x0a
    3ef6:	88 23       	and	r24, r24
    3ef8:	fc f4       	brge	.+62     	; 0x3f38 <prvProcessReceivedCommands+0x60>
    3efa:	ce 01       	movw	r24, r28
    3efc:	0a 96       	adiw	r24, 0x0a	; 10
    3efe:	01 96       	adiw	r24, 0x01	; 1
    3f00:	89 83       	std	Y+1, r24	; 0x01
    3f02:	9a 83       	std	Y+2, r25	; 0x02
    3f04:	89 81       	ldd	r24, Y+1	; 0x01
    3f06:	9a 81       	ldd	r25, Y+2	; 0x02
    3f08:	fc 01       	movw	r30, r24
    3f0a:	20 81       	ld	r18, Z
    3f0c:	31 81       	ldd	r19, Z+1	; 0x01
    3f0e:	89 81       	ldd	r24, Y+1	; 0x01
    3f10:	9a 81       	ldd	r25, Y+2	; 0x02
    3f12:	fc 01       	movw	r30, r24
    3f14:	84 81       	ldd	r24, Z+4	; 0x04
    3f16:	95 81       	ldd	r25, Z+5	; 0x05
    3f18:	a6 81       	ldd	r26, Z+6	; 0x06
    3f1a:	b7 81       	ldd	r27, Z+7	; 0x07
    3f1c:	49 81       	ldd	r20, Y+1	; 0x01
    3f1e:	5a 81       	ldd	r21, Y+2	; 0x02
    3f20:	fa 01       	movw	r30, r20
    3f22:	02 80       	ldd	r0, Z+2	; 0x02
    3f24:	f3 81       	ldd	r31, Z+3	; 0x03
    3f26:	e0 2d       	mov	r30, r0
    3f28:	ec 8b       	std	Y+20, r30	; 0x14
    3f2a:	fd 8b       	std	Y+21, r31	; 0x15
    3f2c:	ac 01       	movw	r20, r24
    3f2e:	bd 01       	movw	r22, r26
    3f30:	8c 89       	ldd	r24, Y+20	; 0x14
    3f32:	9d 89       	ldd	r25, Y+21	; 0x15
    3f34:	f9 01       	movw	r30, r18
    3f36:	19 95       	eicall
    3f38:	8a 85       	ldd	r24, Y+10	; 0x0a
    3f3a:	88 23       	and	r24, r24
    3f3c:	0c f4       	brge	.+2      	; 0x3f40 <prvProcessReceivedCommands+0x68>
    3f3e:	ba c0       	rjmp	.+372    	; 0x40b4 <__stack+0xb5>
    3f40:	8f 85       	ldd	r24, Y+15	; 0x0f
    3f42:	98 89       	ldd	r25, Y+16	; 0x10
    3f44:	8b 83       	std	Y+3, r24	; 0x03
    3f46:	9c 83       	std	Y+4, r25	; 0x04
    3f48:	8b 81       	ldd	r24, Y+3	; 0x03
    3f4a:	9c 81       	ldd	r25, Y+4	; 0x04
    3f4c:	fc 01       	movw	r30, r24
    3f4e:	84 85       	ldd	r24, Z+12	; 0x0c
    3f50:	95 85       	ldd	r25, Z+13	; 0x0d
    3f52:	89 2b       	or	r24, r25
    3f54:	29 f0       	breq	.+10     	; 0x3f60 <prvProcessReceivedCommands+0x88>
    3f56:	8b 81       	ldd	r24, Y+3	; 0x03
    3f58:	9c 81       	ldd	r25, Y+4	; 0x04
    3f5a:	02 96       	adiw	r24, 0x02	; 2
    3f5c:	0e 94 3e 0a 	call	0x147c	; 0x147c <uxListRemove>
    3f60:	ce 01       	movw	r24, r28
    3f62:	43 96       	adiw	r24, 0x13	; 19
    3f64:	0e 94 8e 1e 	call	0x3d1c	; 0x3d1c <prvSampleTimeNow>
    3f68:	dc 01       	movw	r26, r24
    3f6a:	cb 01       	movw	r24, r22
    3f6c:	8d 83       	std	Y+5, r24	; 0x05
    3f6e:	9e 83       	std	Y+6, r25	; 0x06
    3f70:	af 83       	std	Y+7, r26	; 0x07
    3f72:	b8 87       	std	Y+8, r27	; 0x08
    3f74:	8a 85       	ldd	r24, Y+10	; 0x0a
    3f76:	08 2e       	mov	r0, r24
    3f78:	00 0c       	add	r0, r0
    3f7a:	99 0b       	sbc	r25, r25
    3f7c:	09 2e       	mov	r0, r25
    3f7e:	00 0c       	add	r0, r0
    3f80:	aa 0b       	sbc	r26, r26
    3f82:	bb 0b       	sbc	r27, r27
    3f84:	40 e0       	ldi	r20, 0x00	; 0
    3f86:	50 e0       	ldi	r21, 0x00	; 0
    3f88:	29 e0       	ldi	r18, 0x09	; 9
    3f8a:	30 e0       	ldi	r19, 0x00	; 0
    3f8c:	84 1b       	sub	r24, r20
    3f8e:	95 0b       	sbc	r25, r21
    3f90:	28 17       	cp	r18, r24
    3f92:	39 07       	cpc	r19, r25
    3f94:	08 f4       	brcc	.+2      	; 0x3f98 <prvProcessReceivedCommands+0xc0>
    3f96:	8d c0       	rjmp	.+282    	; 0x40b2 <__stack+0xb3>
    3f98:	fc 01       	movw	r30, r24
    3f9a:	88 27       	eor	r24, r24
    3f9c:	e2 50       	subi	r30, 0x02	; 2
    3f9e:	ff 4f       	sbci	r31, 0xFF	; 255
    3fa0:	8f 4f       	sbci	r24, 0xFF	; 255
    3fa2:	0c 94 a7 34 	jmp	0x694e	; 0x694e <__tablejump2__>
    3fa6:	eb 84       	ldd	r14, Y+11	; 0x0b
    3fa8:	fc 84       	ldd	r15, Y+12	; 0x0c
    3faa:	0d 85       	ldd	r16, Y+13	; 0x0d
    3fac:	1e 85       	ldd	r17, Y+14	; 0x0e
    3fae:	2b 85       	ldd	r18, Y+11	; 0x0b
    3fb0:	3c 85       	ldd	r19, Y+12	; 0x0c
    3fb2:	4d 85       	ldd	r20, Y+13	; 0x0d
    3fb4:	5e 85       	ldd	r21, Y+14	; 0x0e
    3fb6:	8b 81       	ldd	r24, Y+3	; 0x03
    3fb8:	9c 81       	ldd	r25, Y+4	; 0x04
    3fba:	fc 01       	movw	r30, r24
    3fbc:	86 85       	ldd	r24, Z+14	; 0x0e
    3fbe:	97 85       	ldd	r25, Z+15	; 0x0f
    3fc0:	a0 89       	ldd	r26, Z+16	; 0x10
    3fc2:	b1 89       	ldd	r27, Z+17	; 0x11
    3fc4:	82 0f       	add	r24, r18
    3fc6:	93 1f       	adc	r25, r19
    3fc8:	a4 1f       	adc	r26, r20
    3fca:	b5 1f       	adc	r27, r21
    3fcc:	2d 81       	ldd	r18, Y+5	; 0x05
    3fce:	3e 81       	ldd	r19, Y+6	; 0x06
    3fd0:	4f 81       	ldd	r20, Y+7	; 0x07
    3fd2:	58 85       	ldd	r21, Y+8	; 0x08
    3fd4:	eb 81       	ldd	r30, Y+3	; 0x03
    3fd6:	fc 81       	ldd	r31, Y+4	; 0x04
    3fd8:	67 01       	movw	r12, r14
    3fda:	78 01       	movw	r14, r16
    3fdc:	89 01       	movw	r16, r18
    3fde:	9a 01       	movw	r18, r20
    3fe0:	ac 01       	movw	r20, r24
    3fe2:	bd 01       	movw	r22, r26
    3fe4:	cf 01       	movw	r24, r30
    3fe6:	0e 94 d3 1e 	call	0x3da6	; 0x3da6 <prvInsertTimerInActiveList>
    3fea:	88 23       	and	r24, r24
    3fec:	09 f4       	brne	.+2      	; 0x3ff0 <prvProcessReceivedCommands+0x118>
    3fee:	62 c0       	rjmp	.+196    	; 0x40b4 <__stack+0xb5>
    3ff0:	8b 81       	ldd	r24, Y+3	; 0x03
    3ff2:	9c 81       	ldd	r25, Y+4	; 0x04
    3ff4:	fc 01       	movw	r30, r24
    3ff6:	25 89       	ldd	r18, Z+21	; 0x15
    3ff8:	36 89       	ldd	r19, Z+22	; 0x16
    3ffa:	8b 81       	ldd	r24, Y+3	; 0x03
    3ffc:	9c 81       	ldd	r25, Y+4	; 0x04
    3ffe:	f9 01       	movw	r30, r18
    4000:	19 95       	eicall
    4002:	8b 81       	ldd	r24, Y+3	; 0x03
    4004:	9c 81       	ldd	r25, Y+4	; 0x04
    4006:	fc 01       	movw	r30, r24
    4008:	82 89       	ldd	r24, Z+18	; 0x12
    400a:	81 30       	cpi	r24, 0x01	; 1
    400c:	09 f0       	breq	.+2      	; 0x4010 <__stack+0x11>
    400e:	52 c0       	rjmp	.+164    	; 0x40b4 <__stack+0xb5>
    4010:	2b 85       	ldd	r18, Y+11	; 0x0b
    4012:	3c 85       	ldd	r19, Y+12	; 0x0c
    4014:	4d 85       	ldd	r20, Y+13	; 0x0d
    4016:	5e 85       	ldd	r21, Y+14	; 0x0e
    4018:	8b 81       	ldd	r24, Y+3	; 0x03
    401a:	9c 81       	ldd	r25, Y+4	; 0x04
    401c:	fc 01       	movw	r30, r24
    401e:	86 85       	ldd	r24, Z+14	; 0x0e
    4020:	97 85       	ldd	r25, Z+15	; 0x0f
    4022:	a0 89       	ldd	r26, Z+16	; 0x10
    4024:	b1 89       	ldd	r27, Z+17	; 0x11
    4026:	82 0f       	add	r24, r18
    4028:	93 1f       	adc	r25, r19
    402a:	a4 1f       	adc	r26, r20
    402c:	b5 1f       	adc	r27, r21
    402e:	eb 81       	ldd	r30, Y+3	; 0x03
    4030:	fc 81       	ldd	r31, Y+4	; 0x04
    4032:	c1 2c       	mov	r12, r1
    4034:	d1 2c       	mov	r13, r1
    4036:	76 01       	movw	r14, r12
    4038:	00 e0       	ldi	r16, 0x00	; 0
    403a:	10 e0       	ldi	r17, 0x00	; 0
    403c:	9c 01       	movw	r18, r24
    403e:	ad 01       	movw	r20, r26
    4040:	60 e0       	ldi	r22, 0x00	; 0
    4042:	cf 01       	movw	r24, r30
    4044:	0e 94 ca 1c 	call	0x3994	; 0x3994 <xTimerGenericCommand>
    4048:	89 87       	std	Y+9, r24	; 0x09
    404a:	34 c0       	rjmp	.+104    	; 0x40b4 <__stack+0xb5>
    404c:	8b 85       	ldd	r24, Y+11	; 0x0b
    404e:	9c 85       	ldd	r25, Y+12	; 0x0c
    4050:	ad 85       	ldd	r26, Y+13	; 0x0d
    4052:	be 85       	ldd	r27, Y+14	; 0x0e
    4054:	2b 81       	ldd	r18, Y+3	; 0x03
    4056:	3c 81       	ldd	r19, Y+4	; 0x04
    4058:	f9 01       	movw	r30, r18
    405a:	86 87       	std	Z+14, r24	; 0x0e
    405c:	97 87       	std	Z+15, r25	; 0x0f
    405e:	a0 8b       	std	Z+16, r26	; 0x10
    4060:	b1 8b       	std	Z+17, r27	; 0x11
    4062:	8b 81       	ldd	r24, Y+3	; 0x03
    4064:	9c 81       	ldd	r25, Y+4	; 0x04
    4066:	fc 01       	movw	r30, r24
    4068:	26 85       	ldd	r18, Z+14	; 0x0e
    406a:	37 85       	ldd	r19, Z+15	; 0x0f
    406c:	40 89       	ldd	r20, Z+16	; 0x10
    406e:	51 89       	ldd	r21, Z+17	; 0x11
    4070:	8d 81       	ldd	r24, Y+5	; 0x05
    4072:	9e 81       	ldd	r25, Y+6	; 0x06
    4074:	af 81       	ldd	r26, Y+7	; 0x07
    4076:	b8 85       	ldd	r27, Y+8	; 0x08
    4078:	82 0f       	add	r24, r18
    407a:	93 1f       	adc	r25, r19
    407c:	a4 1f       	adc	r26, r20
    407e:	b5 1f       	adc	r27, r21
    4080:	ed 80       	ldd	r14, Y+5	; 0x05
    4082:	fe 80       	ldd	r15, Y+6	; 0x06
    4084:	0f 81       	ldd	r16, Y+7	; 0x07
    4086:	18 85       	ldd	r17, Y+8	; 0x08
    4088:	2d 81       	ldd	r18, Y+5	; 0x05
    408a:	3e 81       	ldd	r19, Y+6	; 0x06
    408c:	4f 81       	ldd	r20, Y+7	; 0x07
    408e:	58 85       	ldd	r21, Y+8	; 0x08
    4090:	eb 81       	ldd	r30, Y+3	; 0x03
    4092:	fc 81       	ldd	r31, Y+4	; 0x04
    4094:	67 01       	movw	r12, r14
    4096:	78 01       	movw	r14, r16
    4098:	89 01       	movw	r16, r18
    409a:	9a 01       	movw	r18, r20
    409c:	ac 01       	movw	r20, r24
    409e:	bd 01       	movw	r22, r26
    40a0:	cf 01       	movw	r24, r30
    40a2:	0e 94 d3 1e 	call	0x3da6	; 0x3da6 <prvInsertTimerInActiveList>
    40a6:	06 c0       	rjmp	.+12     	; 0x40b4 <__stack+0xb5>
    40a8:	8b 81       	ldd	r24, Y+3	; 0x03
    40aa:	9c 81       	ldd	r25, Y+4	; 0x04
    40ac:	0e 94 17 09 	call	0x122e	; 0x122e <vPortFree>
    40b0:	01 c0       	rjmp	.+2      	; 0x40b4 <__stack+0xb5>
    40b2:	00 00       	nop
    40b4:	80 91 da 2c 	lds	r24, 0x2CDA	; 0x802cda <xTimerQueue>
    40b8:	90 91 db 2c 	lds	r25, 0x2CDB	; 0x802cdb <xTimerQueue+0x1>
    40bc:	be 01       	movw	r22, r28
    40be:	66 5f       	subi	r22, 0xF6	; 246
    40c0:	7f 4f       	sbci	r23, 0xFF	; 255
    40c2:	20 e0       	ldi	r18, 0x00	; 0
    40c4:	30 e0       	ldi	r19, 0x00	; 0
    40c6:	a9 01       	movw	r20, r18
    40c8:	0e 94 49 10 	call	0x2092	; 0x2092 <xQueueReceive>
    40cc:	88 23       	and	r24, r24
    40ce:	09 f0       	breq	.+2      	; 0x40d2 <__stack+0xd3>
    40d0:	11 cf       	rjmp	.-478    	; 0x3ef4 <prvProcessReceivedCommands+0x1c>
    40d2:	00 00       	nop
    40d4:	65 96       	adiw	r28, 0x15	; 21
    40d6:	cd bf       	out	0x3d, r28	; 61
    40d8:	de bf       	out	0x3e, r29	; 62
    40da:	df 91       	pop	r29
    40dc:	cf 91       	pop	r28
    40de:	1f 91       	pop	r17
    40e0:	0f 91       	pop	r16
    40e2:	ff 90       	pop	r15
    40e4:	ef 90       	pop	r14
    40e6:	df 90       	pop	r13
    40e8:	cf 90       	pop	r12
    40ea:	08 95       	ret

000040ec <prvSwitchTimerLists>:
    40ec:	cf 92       	push	r12
    40ee:	df 92       	push	r13
    40f0:	ef 92       	push	r14
    40f2:	ff 92       	push	r15
    40f4:	0f 93       	push	r16
    40f6:	1f 93       	push	r17
    40f8:	cf 93       	push	r28
    40fa:	df 93       	push	r29
    40fc:	cd b7       	in	r28, 0x3d	; 61
    40fe:	de b7       	in	r29, 0x3e	; 62
    4100:	2d 97       	sbiw	r28, 0x0d	; 13
    4102:	cd bf       	out	0x3d, r28	; 61
    4104:	de bf       	out	0x3e, r29	; 62
    4106:	82 c0       	rjmp	.+260    	; 0x420c <prvSwitchTimerLists+0x120>
    4108:	80 91 d6 2c 	lds	r24, 0x2CD6	; 0x802cd6 <pxCurrentTimerList>
    410c:	90 91 d7 2c 	lds	r25, 0x2CD7	; 0x802cd7 <pxCurrentTimerList+0x1>
    4110:	fc 01       	movw	r30, r24
    4112:	87 81       	ldd	r24, Z+7	; 0x07
    4114:	90 85       	ldd	r25, Z+8	; 0x08
    4116:	fc 01       	movw	r30, r24
    4118:	80 81       	ld	r24, Z
    411a:	91 81       	ldd	r25, Z+1	; 0x01
    411c:	a2 81       	ldd	r26, Z+2	; 0x02
    411e:	b3 81       	ldd	r27, Z+3	; 0x03
    4120:	89 83       	std	Y+1, r24	; 0x01
    4122:	9a 83       	std	Y+2, r25	; 0x02
    4124:	ab 83       	std	Y+3, r26	; 0x03
    4126:	bc 83       	std	Y+4, r27	; 0x04
    4128:	80 91 d6 2c 	lds	r24, 0x2CD6	; 0x802cd6 <pxCurrentTimerList>
    412c:	90 91 d7 2c 	lds	r25, 0x2CD7	; 0x802cd7 <pxCurrentTimerList+0x1>
    4130:	fc 01       	movw	r30, r24
    4132:	87 81       	ldd	r24, Z+7	; 0x07
    4134:	90 85       	ldd	r25, Z+8	; 0x08
    4136:	fc 01       	movw	r30, r24
    4138:	80 85       	ldd	r24, Z+8	; 0x08
    413a:	91 85       	ldd	r25, Z+9	; 0x09
    413c:	8d 83       	std	Y+5, r24	; 0x05
    413e:	9e 83       	std	Y+6, r25	; 0x06
    4140:	8d 81       	ldd	r24, Y+5	; 0x05
    4142:	9e 81       	ldd	r25, Y+6	; 0x06
    4144:	02 96       	adiw	r24, 0x02	; 2
    4146:	0e 94 3e 0a 	call	0x147c	; 0x147c <uxListRemove>
    414a:	8d 81       	ldd	r24, Y+5	; 0x05
    414c:	9e 81       	ldd	r25, Y+6	; 0x06
    414e:	fc 01       	movw	r30, r24
    4150:	25 89       	ldd	r18, Z+21	; 0x15
    4152:	36 89       	ldd	r19, Z+22	; 0x16
    4154:	8d 81       	ldd	r24, Y+5	; 0x05
    4156:	9e 81       	ldd	r25, Y+6	; 0x06
    4158:	f9 01       	movw	r30, r18
    415a:	19 95       	eicall
    415c:	8d 81       	ldd	r24, Y+5	; 0x05
    415e:	9e 81       	ldd	r25, Y+6	; 0x06
    4160:	fc 01       	movw	r30, r24
    4162:	82 89       	ldd	r24, Z+18	; 0x12
    4164:	81 30       	cpi	r24, 0x01	; 1
    4166:	09 f0       	breq	.+2      	; 0x416a <prvSwitchTimerLists+0x7e>
    4168:	51 c0       	rjmp	.+162    	; 0x420c <prvSwitchTimerLists+0x120>
    416a:	8d 81       	ldd	r24, Y+5	; 0x05
    416c:	9e 81       	ldd	r25, Y+6	; 0x06
    416e:	fc 01       	movw	r30, r24
    4170:	26 85       	ldd	r18, Z+14	; 0x0e
    4172:	37 85       	ldd	r19, Z+15	; 0x0f
    4174:	40 89       	ldd	r20, Z+16	; 0x10
    4176:	51 89       	ldd	r21, Z+17	; 0x11
    4178:	89 81       	ldd	r24, Y+1	; 0x01
    417a:	9a 81       	ldd	r25, Y+2	; 0x02
    417c:	ab 81       	ldd	r26, Y+3	; 0x03
    417e:	bc 81       	ldd	r27, Y+4	; 0x04
    4180:	82 0f       	add	r24, r18
    4182:	93 1f       	adc	r25, r19
    4184:	a4 1f       	adc	r26, r20
    4186:	b5 1f       	adc	r27, r21
    4188:	8f 83       	std	Y+7, r24	; 0x07
    418a:	98 87       	std	Y+8, r25	; 0x08
    418c:	a9 87       	std	Y+9, r26	; 0x09
    418e:	ba 87       	std	Y+10, r27	; 0x0a
    4190:	2f 81       	ldd	r18, Y+7	; 0x07
    4192:	38 85       	ldd	r19, Y+8	; 0x08
    4194:	49 85       	ldd	r20, Y+9	; 0x09
    4196:	5a 85       	ldd	r21, Y+10	; 0x0a
    4198:	89 81       	ldd	r24, Y+1	; 0x01
    419a:	9a 81       	ldd	r25, Y+2	; 0x02
    419c:	ab 81       	ldd	r26, Y+3	; 0x03
    419e:	bc 81       	ldd	r27, Y+4	; 0x04
    41a0:	82 17       	cp	r24, r18
    41a2:	93 07       	cpc	r25, r19
    41a4:	a4 07       	cpc	r26, r20
    41a6:	b5 07       	cpc	r27, r21
    41a8:	f8 f4       	brcc	.+62     	; 0x41e8 <prvSwitchTimerLists+0xfc>
    41aa:	2d 81       	ldd	r18, Y+5	; 0x05
    41ac:	3e 81       	ldd	r19, Y+6	; 0x06
    41ae:	8f 81       	ldd	r24, Y+7	; 0x07
    41b0:	98 85       	ldd	r25, Y+8	; 0x08
    41b2:	a9 85       	ldd	r26, Y+9	; 0x09
    41b4:	ba 85       	ldd	r27, Y+10	; 0x0a
    41b6:	f9 01       	movw	r30, r18
    41b8:	82 83       	std	Z+2, r24	; 0x02
    41ba:	93 83       	std	Z+3, r25	; 0x03
    41bc:	a4 83       	std	Z+4, r26	; 0x04
    41be:	b5 83       	std	Z+5, r27	; 0x05
    41c0:	8d 81       	ldd	r24, Y+5	; 0x05
    41c2:	9e 81       	ldd	r25, Y+6	; 0x06
    41c4:	2d 81       	ldd	r18, Y+5	; 0x05
    41c6:	3e 81       	ldd	r19, Y+6	; 0x06
    41c8:	fc 01       	movw	r30, r24
    41ca:	22 87       	std	Z+10, r18	; 0x0a
    41cc:	33 87       	std	Z+11, r19	; 0x0b
    41ce:	8d 81       	ldd	r24, Y+5	; 0x05
    41d0:	9e 81       	ldd	r25, Y+6	; 0x06
    41d2:	9c 01       	movw	r18, r24
    41d4:	2e 5f       	subi	r18, 0xFE	; 254
    41d6:	3f 4f       	sbci	r19, 0xFF	; 255
    41d8:	80 91 d6 2c 	lds	r24, 0x2CD6	; 0x802cd6 <pxCurrentTimerList>
    41dc:	90 91 d7 2c 	lds	r25, 0x2CD7	; 0x802cd7 <pxCurrentTimerList+0x1>
    41e0:	b9 01       	movw	r22, r18
    41e2:	0e 94 bd 09 	call	0x137a	; 0x137a <vListInsert>
    41e6:	12 c0       	rjmp	.+36     	; 0x420c <prvSwitchTimerLists+0x120>
    41e8:	89 81       	ldd	r24, Y+1	; 0x01
    41ea:	9a 81       	ldd	r25, Y+2	; 0x02
    41ec:	ab 81       	ldd	r26, Y+3	; 0x03
    41ee:	bc 81       	ldd	r27, Y+4	; 0x04
    41f0:	ed 81       	ldd	r30, Y+5	; 0x05
    41f2:	fe 81       	ldd	r31, Y+6	; 0x06
    41f4:	c1 2c       	mov	r12, r1
    41f6:	d1 2c       	mov	r13, r1
    41f8:	76 01       	movw	r14, r12
    41fa:	00 e0       	ldi	r16, 0x00	; 0
    41fc:	10 e0       	ldi	r17, 0x00	; 0
    41fe:	9c 01       	movw	r18, r24
    4200:	ad 01       	movw	r20, r26
    4202:	60 e0       	ldi	r22, 0x00	; 0
    4204:	cf 01       	movw	r24, r30
    4206:	0e 94 ca 1c 	call	0x3994	; 0x3994 <xTimerGenericCommand>
    420a:	8b 87       	std	Y+11, r24	; 0x0b
    420c:	80 91 d6 2c 	lds	r24, 0x2CD6	; 0x802cd6 <pxCurrentTimerList>
    4210:	90 91 d7 2c 	lds	r25, 0x2CD7	; 0x802cd7 <pxCurrentTimerList+0x1>
    4214:	fc 01       	movw	r30, r24
    4216:	80 81       	ld	r24, Z
    4218:	88 23       	and	r24, r24
    421a:	09 f0       	breq	.+2      	; 0x421e <prvSwitchTimerLists+0x132>
    421c:	75 cf       	rjmp	.-278    	; 0x4108 <prvSwitchTimerLists+0x1c>
    421e:	80 91 d6 2c 	lds	r24, 0x2CD6	; 0x802cd6 <pxCurrentTimerList>
    4222:	90 91 d7 2c 	lds	r25, 0x2CD7	; 0x802cd7 <pxCurrentTimerList+0x1>
    4226:	8c 87       	std	Y+12, r24	; 0x0c
    4228:	9d 87       	std	Y+13, r25	; 0x0d
    422a:	80 91 d8 2c 	lds	r24, 0x2CD8	; 0x802cd8 <pxOverflowTimerList>
    422e:	90 91 d9 2c 	lds	r25, 0x2CD9	; 0x802cd9 <pxOverflowTimerList+0x1>
    4232:	80 93 d6 2c 	sts	0x2CD6, r24	; 0x802cd6 <pxCurrentTimerList>
    4236:	90 93 d7 2c 	sts	0x2CD7, r25	; 0x802cd7 <pxCurrentTimerList+0x1>
    423a:	8c 85       	ldd	r24, Y+12	; 0x0c
    423c:	9d 85       	ldd	r25, Y+13	; 0x0d
    423e:	80 93 d8 2c 	sts	0x2CD8, r24	; 0x802cd8 <pxOverflowTimerList>
    4242:	90 93 d9 2c 	sts	0x2CD9, r25	; 0x802cd9 <pxOverflowTimerList+0x1>
    4246:	00 00       	nop
    4248:	2d 96       	adiw	r28, 0x0d	; 13
    424a:	cd bf       	out	0x3d, r28	; 61
    424c:	de bf       	out	0x3e, r29	; 62
    424e:	df 91       	pop	r29
    4250:	cf 91       	pop	r28
    4252:	1f 91       	pop	r17
    4254:	0f 91       	pop	r16
    4256:	ff 90       	pop	r15
    4258:	ef 90       	pop	r14
    425a:	df 90       	pop	r13
    425c:	cf 90       	pop	r12
    425e:	08 95       	ret

00004260 <prvCheckForValidListAndQueue>:
    4260:	cf 93       	push	r28
    4262:	df 93       	push	r29
    4264:	cd b7       	in	r28, 0x3d	; 61
    4266:	de b7       	in	r29, 0x3e	; 62
    4268:	f0 91 a2 00 	lds	r31, 0x00A2	; 0x8000a2 <__TEXT_REGION_LENGTH__+0x7000a2>
    426c:	ff 93       	push	r31
    426e:	f8 7f       	andi	r31, 0xF8	; 248
    4270:	f0 93 a2 00 	sts	0x00A2, r31	; 0x8000a2 <__TEXT_REGION_LENGTH__+0x7000a2>
    4274:	80 91 da 2c 	lds	r24, 0x2CDA	; 0x802cda <xTimerQueue>
    4278:	90 91 db 2c 	lds	r25, 0x2CDB	; 0x802cdb <xTimerQueue+0x1>
    427c:	89 2b       	or	r24, r25
    427e:	e9 f4       	brne	.+58     	; 0x42ba <prvCheckForValidListAndQueue+0x5a>
    4280:	80 ec       	ldi	r24, 0xC0	; 192
    4282:	9c e2       	ldi	r25, 0x2C	; 44
    4284:	0e 94 25 09 	call	0x124a	; 0x124a <vListInitialise>
    4288:	8b ec       	ldi	r24, 0xCB	; 203
    428a:	9c e2       	ldi	r25, 0x2C	; 44
    428c:	0e 94 25 09 	call	0x124a	; 0x124a <vListInitialise>
    4290:	80 ec       	ldi	r24, 0xC0	; 192
    4292:	9c e2       	ldi	r25, 0x2C	; 44
    4294:	80 93 d6 2c 	sts	0x2CD6, r24	; 0x802cd6 <pxCurrentTimerList>
    4298:	90 93 d7 2c 	sts	0x2CD7, r25	; 0x802cd7 <pxCurrentTimerList+0x1>
    429c:	8b ec       	ldi	r24, 0xCB	; 203
    429e:	9c e2       	ldi	r25, 0x2C	; 44
    42a0:	80 93 d8 2c 	sts	0x2CD8, r24	; 0x802cd8 <pxOverflowTimerList>
    42a4:	90 93 d9 2c 	sts	0x2CD9, r25	; 0x802cd9 <pxOverflowTimerList+0x1>
    42a8:	40 e0       	ldi	r20, 0x00	; 0
    42aa:	69 e0       	ldi	r22, 0x09	; 9
    42ac:	85 e0       	ldi	r24, 0x05	; 5
    42ae:	0e 94 a2 0e 	call	0x1d44	; 0x1d44 <xQueueGenericCreate>
    42b2:	80 93 da 2c 	sts	0x2CDA, r24	; 0x802cda <xTimerQueue>
    42b6:	90 93 db 2c 	sts	0x2CDB, r25	; 0x802cdb <xTimerQueue+0x1>
    42ba:	ff 91       	pop	r31
    42bc:	f0 93 a2 00 	sts	0x00A2, r31	; 0x8000a2 <__TEXT_REGION_LENGTH__+0x7000a2>
    42c0:	00 00       	nop
    42c2:	df 91       	pop	r29
    42c4:	cf 91       	pop	r28
    42c6:	08 95       	ret

000042c8 <xTimerPendFunctionCallFromISR>:
/*-----------------------------------------------------------*/

#if( INCLUDE_xTimerPendFunctionCall == 1 )

	BaseType_t xTimerPendFunctionCallFromISR( PendedFunction_t xFunctionToPend, void *pvParameter1, uint32_t ulParameter2, BaseType_t *pxHigherPriorityTaskWoken )
	{
    42c8:	0f 93       	push	r16
    42ca:	1f 93       	push	r17
    42cc:	cf 93       	push	r28
    42ce:	df 93       	push	r29
    42d0:	cd b7       	in	r28, 0x3d	; 61
    42d2:	de b7       	in	r29, 0x3e	; 62
    42d4:	64 97       	sbiw	r28, 0x14	; 20
    42d6:	cd bf       	out	0x3d, r28	; 61
    42d8:	de bf       	out	0x3e, r29	; 62
    42da:	8b 87       	std	Y+11, r24	; 0x0b
    42dc:	9c 87       	std	Y+12, r25	; 0x0c
    42de:	6d 87       	std	Y+13, r22	; 0x0d
    42e0:	7e 87       	std	Y+14, r23	; 0x0e
    42e2:	2f 87       	std	Y+15, r18	; 0x0f
    42e4:	38 8b       	std	Y+16, r19	; 0x10
    42e6:	49 8b       	std	Y+17, r20	; 0x11
    42e8:	5a 8b       	std	Y+18, r21	; 0x12
    42ea:	0b 8b       	std	Y+19, r16	; 0x13
    42ec:	1c 8b       	std	Y+20, r17	; 0x14
	DaemonTaskMessage_t xMessage;
	BaseType_t xReturn;

		/* Complete the message with the function parameters and post it to the
		daemon task. */
		xMessage.xMessageID = tmrCOMMAND_EXECUTE_CALLBACK_FROM_ISR;
    42ee:	8e ef       	ldi	r24, 0xFE	; 254
    42f0:	8a 83       	std	Y+2, r24	; 0x02
		xMessage.u.xCallbackParameters.pxCallbackFunction = xFunctionToPend;
    42f2:	8b 85       	ldd	r24, Y+11	; 0x0b
    42f4:	9c 85       	ldd	r25, Y+12	; 0x0c
    42f6:	8b 83       	std	Y+3, r24	; 0x03
    42f8:	9c 83       	std	Y+4, r25	; 0x04
		xMessage.u.xCallbackParameters.pvParameter1 = pvParameter1;
    42fa:	8d 85       	ldd	r24, Y+13	; 0x0d
    42fc:	9e 85       	ldd	r25, Y+14	; 0x0e
    42fe:	8d 83       	std	Y+5, r24	; 0x05
    4300:	9e 83       	std	Y+6, r25	; 0x06
		xMessage.u.xCallbackParameters.ulParameter2 = ulParameter2;
    4302:	8f 85       	ldd	r24, Y+15	; 0x0f
    4304:	98 89       	ldd	r25, Y+16	; 0x10
    4306:	a9 89       	ldd	r26, Y+17	; 0x11
    4308:	ba 89       	ldd	r27, Y+18	; 0x12
    430a:	8f 83       	std	Y+7, r24	; 0x07
    430c:	98 87       	std	Y+8, r25	; 0x08
    430e:	a9 87       	std	Y+9, r26	; 0x09
    4310:	ba 87       	std	Y+10, r27	; 0x0a

		xReturn = xQueueSendFromISR( xTimerQueue, &xMessage, pxHigherPriorityTaskWoken );
    4312:	80 91 da 2c 	lds	r24, 0x2CDA	; 0x802cda <xTimerQueue>
    4316:	90 91 db 2c 	lds	r25, 0x2CDB	; 0x802cdb <xTimerQueue+0x1>
    431a:	4b 89       	ldd	r20, Y+19	; 0x13
    431c:	5c 89       	ldd	r21, Y+20	; 0x14
    431e:	be 01       	movw	r22, r28
    4320:	6e 5f       	subi	r22, 0xFE	; 254
    4322:	7f 4f       	sbci	r23, 0xFF	; 255
    4324:	20 e0       	ldi	r18, 0x00	; 0
    4326:	0e 94 e9 0f 	call	0x1fd2	; 0x1fd2 <xQueueGenericSendFromISR>
    432a:	89 83       	std	Y+1, r24	; 0x01

		tracePEND_FUNC_CALL_FROM_ISR( xFunctionToPend, pvParameter1, ulParameter2, xReturn );

		return xReturn;
    432c:	89 81       	ldd	r24, Y+1	; 0x01
	}
    432e:	64 96       	adiw	r28, 0x14	; 20
    4330:	cd bf       	out	0x3d, r28	; 61
    4332:	de bf       	out	0x3e, r29	; 62
    4334:	df 91       	pop	r29
    4336:	cf 91       	pop	r28
    4338:	1f 91       	pop	r17
    433a:	0f 91       	pop	r16
    433c:	08 95       	ret

0000433e <vInitClock>:
#include "init.h"
#include "clksys_driver.h"


void vInitClock(void)
{
    433e:	cf 93       	push	r28
    4340:	df 93       	push	r29
    4342:	cd b7       	in	r28, 0x3d	; 61
    4344:	de b7       	in	r29, 0x3e	; 62
	CLKSYS_Enable( OSC_RC2MEN_bm );
    4346:	80 e5       	ldi	r24, 0x50	; 80
    4348:	90 e0       	ldi	r25, 0x00	; 0
    434a:	20 e5       	ldi	r18, 0x50	; 80
    434c:	30 e0       	ldi	r19, 0x00	; 0
    434e:	f9 01       	movw	r30, r18
    4350:	20 81       	ld	r18, Z
    4352:	21 60       	ori	r18, 0x01	; 1
    4354:	fc 01       	movw	r30, r24
    4356:	20 83       	st	Z, r18
	do {} while ( CLKSYS_IsReady( OSC_RC2MRDY_bm ) == 0 );
    4358:	80 e5       	ldi	r24, 0x50	; 80
    435a:	90 e0       	ldi	r25, 0x00	; 0
    435c:	fc 01       	movw	r30, r24
    435e:	81 81       	ldd	r24, Z+1	; 0x01
    4360:	88 2f       	mov	r24, r24
    4362:	90 e0       	ldi	r25, 0x00	; 0
    4364:	81 70       	andi	r24, 0x01	; 1
    4366:	99 27       	eor	r25, r25
    4368:	89 2b       	or	r24, r25
    436a:	b1 f3       	breq	.-20     	; 0x4358 <vInitClock+0x1a>
	CLKSYS_Main_ClockSource_Select( CLK_SCLKSEL_RC2M_gc );
    436c:	80 e0       	ldi	r24, 0x00	; 0
    436e:	0e 94 d6 04 	call	0x9ac	; 0x9ac <CLKSYS_Main_ClockSource_Select>
	CLKSYS_Disable( OSC_RC32MEN_bm | OSC_RC32KEN_bm | OSC_XOSCEN_bm | OSC_PLLEN_bm);
    4372:	8e e1       	ldi	r24, 0x1E	; 30
    4374:	0e 94 9f 04 	call	0x93e	; 0x93e <CLKSYS_Disable>
	CLKSYS_Prescalers_Config( CLK_PSADIV_1_gc, CLK_PSBCDIV_1_1_gc );
    4378:	60 e0       	ldi	r22, 0x00	; 0
    437a:	80 e0       	ldi	r24, 0x00	; 0
    437c:	0e 94 bf 04 	call	0x97e	; 0x97e <CLKSYS_Prescalers_Config>
	CLKSYS_XOSC_Config( OSC_FRQRANGE_2TO9_gc,false,OSC_XOSCSEL_XTAL_256CLK_gc );
    4380:	43 e0       	ldi	r20, 0x03	; 3
    4382:	60 e0       	ldi	r22, 0x00	; 0
    4384:	80 e4       	ldi	r24, 0x40	; 64
    4386:	0e 94 6a 04 	call	0x8d4	; 0x8d4 <CLKSYS_XOSC_Config>
	CLKSYS_Enable( OSC_XOSCEN_bm );
    438a:	80 e5       	ldi	r24, 0x50	; 80
    438c:	90 e0       	ldi	r25, 0x00	; 0
    438e:	20 e5       	ldi	r18, 0x50	; 80
    4390:	30 e0       	ldi	r19, 0x00	; 0
    4392:	f9 01       	movw	r30, r18
    4394:	20 81       	ld	r18, Z
    4396:	28 60       	ori	r18, 0x08	; 8
    4398:	fc 01       	movw	r30, r24
    439a:	20 83       	st	Z, r18
	do {} while ( CLKSYS_IsReady( OSC_XOSCRDY_bm ) == 0 );
    439c:	80 e5       	ldi	r24, 0x50	; 80
    439e:	90 e0       	ldi	r25, 0x00	; 0
    43a0:	fc 01       	movw	r30, r24
    43a2:	81 81       	ldd	r24, Z+1	; 0x01
    43a4:	88 2f       	mov	r24, r24
    43a6:	90 e0       	ldi	r25, 0x00	; 0
    43a8:	88 70       	andi	r24, 0x08	; 8
    43aa:	99 27       	eor	r25, r25
    43ac:	89 2b       	or	r24, r25
    43ae:	b1 f3       	breq	.-20     	; 0x439c <vInitClock+0x5e>
	CLKSYS_PLL_Config( OSC_PLLSRC_XOSC_gc, 4 );
    43b0:	64 e0       	ldi	r22, 0x04	; 4
    43b2:	80 ec       	ldi	r24, 0xC0	; 192
    43b4:	0e 94 87 04 	call	0x90e	; 0x90e <CLKSYS_PLL_Config>
	CLKSYS_Enable( OSC_PLLEN_bm );
    43b8:	80 e5       	ldi	r24, 0x50	; 80
    43ba:	90 e0       	ldi	r25, 0x00	; 0
    43bc:	20 e5       	ldi	r18, 0x50	; 80
    43be:	30 e0       	ldi	r19, 0x00	; 0
    43c0:	f9 01       	movw	r30, r18
    43c2:	20 81       	ld	r18, Z
    43c4:	20 61       	ori	r18, 0x10	; 16
    43c6:	fc 01       	movw	r30, r24
    43c8:	20 83       	st	Z, r18
	CLKSYS_Prescalers_Config( CLK_PSADIV_1_gc, CLK_PSBCDIV_1_1_gc );
    43ca:	60 e0       	ldi	r22, 0x00	; 0
    43cc:	80 e0       	ldi	r24, 0x00	; 0
    43ce:	0e 94 bf 04 	call	0x97e	; 0x97e <CLKSYS_Prescalers_Config>
	do {} while ( CLKSYS_IsReady( OSC_PLLRDY_bm ) == 0 );
    43d2:	80 e5       	ldi	r24, 0x50	; 80
    43d4:	90 e0       	ldi	r25, 0x00	; 0
    43d6:	fc 01       	movw	r30, r24
    43d8:	81 81       	ldd	r24, Z+1	; 0x01
    43da:	88 2f       	mov	r24, r24
    43dc:	90 e0       	ldi	r25, 0x00	; 0
    43de:	80 71       	andi	r24, 0x10	; 16
    43e0:	99 27       	eor	r25, r25
    43e2:	89 2b       	or	r24, r25
    43e4:	b1 f3       	breq	.-20     	; 0x43d2 <vInitClock+0x94>
	CLKSYS_Main_ClockSource_Select( CLK_SCLKSEL_PLL_gc );
    43e6:	84 e0       	ldi	r24, 0x04	; 4
    43e8:	0e 94 d6 04 	call	0x9ac	; 0x9ac <CLKSYS_Main_ClockSource_Select>
	CLKSYS_Disable( OSC_RC32MEN_bm | OSC_RC2MEN_bm | OSC_RC32KEN_bm);
    43ec:	87 e0       	ldi	r24, 0x07	; 7
    43ee:	0e 94 9f 04 	call	0x93e	; 0x93e <CLKSYS_Disable>
    43f2:	00 00       	nop
    43f4:	df 91       	pop	r29
    43f6:	cf 91       	pop	r28
    43f8:	08 95       	ret

000043fa <vApplicationIdleHook>:
TaskHandle_t my_Display;
TaskHandle_t TaskDMAHandler;


void vApplicationIdleHook( void )
{	
    43fa:	cf 93       	push	r28
    43fc:	df 93       	push	r29
    43fe:	cd b7       	in	r28, 0x3d	; 61
    4400:	de b7       	in	r29, 0x3e	; 62
	
}
    4402:	00 00       	nop
    4404:	df 91       	pop	r29
    4406:	cf 91       	pop	r28
    4408:	08 95       	ret

0000440a <main>:

int main(void)
{
    440a:	ef 92       	push	r14
    440c:	ff 92       	push	r15
    440e:	0f 93       	push	r16
    4410:	cf 93       	push	r28
    4412:	df 93       	push	r29
    4414:	1f 92       	push	r1
    4416:	cd b7       	in	r28, 0x3d	; 61
    4418:	de b7       	in	r29, 0x3e	; 62
    resetReason_t reason = getResetReason();
    441a:	0e 94 02 32 	call	0x6404	; 0x6404 <getResetReason>
    441e:	89 83       	std	Y+1, r24	; 0x01

	vInitClock();
    4420:	0e 94 9f 21 	call	0x433e	; 0x433e <vInitClock>
	vInitDisplay();
    4424:	0e 94 d7 24 	call	0x49ae	; 0x49ae <vInitDisplay>
	
	PORTF.DIRSET = PIN0_bm; /*LED1*/
    4428:	80 ea       	ldi	r24, 0xA0	; 160
    442a:	96 e0       	ldi	r25, 0x06	; 6
    442c:	21 e0       	ldi	r18, 0x01	; 1
    442e:	fc 01       	movw	r30, r24
    4430:	21 83       	std	Z+1, r18	; 0x01
	PORTE.DIRSET = PIN3_bm; /*LED1*/
    4432:	80 e8       	ldi	r24, 0x80	; 128
    4434:	96 e0       	ldi	r25, 0x06	; 6
    4436:	28 e0       	ldi	r18, 0x08	; 8
    4438:	fc 01       	movw	r30, r24
    443a:	21 83       	std	Z+1, r18	; 0x01
	
	xTaskCreate( vLedBlink, (const char *) "ledBlink", configMINIMAL_STACK_SIZE+10, NULL, 1, &ledTask);
    443c:	0f 2e       	mov	r0, r31
    443e:	f5 ec       	ldi	r31, 0xC5	; 197
    4440:	ef 2e       	mov	r14, r31
    4442:	f1 e3       	ldi	r31, 0x31	; 49
    4444:	ff 2e       	mov	r15, r31
    4446:	f0 2d       	mov	r31, r0
    4448:	01 e0       	ldi	r16, 0x01	; 1
    444a:	20 e0       	ldi	r18, 0x00	; 0
    444c:	30 e0       	ldi	r19, 0x00	; 0
    444e:	42 ed       	ldi	r20, 0xD2	; 210
    4450:	50 e0       	ldi	r21, 0x00	; 0
    4452:	6e e0       	ldi	r22, 0x0E	; 14
    4454:	70 e2       	ldi	r23, 0x20	; 32
    4456:	82 ee       	ldi	r24, 0xE2	; 226
    4458:	92 e2       	ldi	r25, 0x22	; 34
    445a:	0e 94 da 13 	call	0x27b4	; 0x27b4 <xTaskCreate>
	xTaskCreate( vRead_Peaks, (const char *) "read_Peaks", configMINIMAL_STACK_SIZE+100, NULL, 1, &my_read_Peaks);
    445e:	0f 2e       	mov	r0, r31
    4460:	f9 ec       	ldi	r31, 0xC9	; 201
    4462:	ef 2e       	mov	r14, r31
    4464:	f1 e3       	ldi	r31, 0x31	; 49
    4466:	ff 2e       	mov	r15, r31
    4468:	f0 2d       	mov	r31, r0
    446a:	01 e0       	ldi	r16, 0x01	; 1
    446c:	20 e0       	ldi	r18, 0x00	; 0
    446e:	30 e0       	ldi	r19, 0x00	; 0
    4470:	4c e2       	ldi	r20, 0x2C	; 44
    4472:	51 e0       	ldi	r21, 0x01	; 1
    4474:	67 e1       	ldi	r22, 0x17	; 23
    4476:	70 e2       	ldi	r23, 0x20	; 32
    4478:	8b e1       	ldi	r24, 0x1B	; 27
    447a:	9f e2       	ldi	r25, 0x2F	; 47
    447c:	0e 94 da 13 	call	0x27b4	; 0x27b4 <xTaskCreate>
	xTaskCreate( vPhase_Detection, (const char *) "phase_detect", configMINIMAL_STACK_SIZE+10, NULL, 1, &my_phase_detection);
    4480:	0f 2e       	mov	r0, r31
    4482:	f7 ec       	ldi	r31, 0xC7	; 199
    4484:	ef 2e       	mov	r14, r31
    4486:	f1 e3       	ldi	r31, 0x31	; 49
    4488:	ff 2e       	mov	r15, r31
    448a:	f0 2d       	mov	r31, r0
    448c:	01 e0       	ldi	r16, 0x01	; 1
    448e:	20 e0       	ldi	r18, 0x00	; 0
    4490:	30 e0       	ldi	r19, 0x00	; 0
    4492:	42 ed       	ldi	r20, 0xD2	; 210
    4494:	50 e0       	ldi	r21, 0x00	; 0
    4496:	62 e2       	ldi	r22, 0x22	; 34
    4498:	70 e2       	ldi	r23, 0x20	; 32
    449a:	8d e8       	ldi	r24, 0x8D	; 141
    449c:	9c e2       	ldi	r25, 0x2C	; 44
    449e:	0e 94 da 13 	call	0x27b4	; 0x27b4 <xTaskCreate>
	xTaskCreate( vWrite_Display, (const char *) "display", configMINIMAL_STACK_SIZE+10, NULL, 1, &my_Display);
    44a2:	0f 2e       	mov	r0, r31
    44a4:	fd e4       	ldi	r31, 0x4D	; 77
    44a6:	ef 2e       	mov	r14, r31
    44a8:	f2 e3       	ldi	r31, 0x32	; 50
    44aa:	ff 2e       	mov	r15, r31
    44ac:	f0 2d       	mov	r31, r0
    44ae:	01 e0       	ldi	r16, 0x01	; 1
    44b0:	20 e0       	ldi	r18, 0x00	; 0
    44b2:	30 e0       	ldi	r19, 0x00	; 0
    44b4:	42 ed       	ldi	r20, 0xD2	; 210
    44b6:	50 e0       	ldi	r21, 0x00	; 0
    44b8:	6f e2       	ldi	r22, 0x2F	; 47
    44ba:	70 e2       	ldi	r23, 0x20	; 32
    44bc:	8b ef       	ldi	r24, 0xFB	; 251
    44be:	92 e2       	ldi	r25, 0x22	; 34
    44c0:	0e 94 da 13 	call	0x27b4	; 0x27b4 <xTaskCreate>
	xTaskCreate( vTask_DMAHandler, (const char *) "dmaHandler", configMINIMAL_STACK_SIZE + 100, NULL, 1, &TaskDMAHandler);		
    44c4:	0f 2e       	mov	r0, r31
    44c6:	ff e4       	ldi	r31, 0x4F	; 79
    44c8:	ef 2e       	mov	r14, r31
    44ca:	f2 e3       	ldi	r31, 0x32	; 50
    44cc:	ff 2e       	mov	r15, r31
    44ce:	f0 2d       	mov	r31, r0
    44d0:	01 e0       	ldi	r16, 0x01	; 1
    44d2:	20 e0       	ldi	r18, 0x00	; 0
    44d4:	30 e0       	ldi	r19, 0x00	; 0
    44d6:	4c e2       	ldi	r20, 0x2C	; 44
    44d8:	51 e0       	ldi	r21, 0x01	; 1
    44da:	67 e3       	ldi	r22, 0x37	; 55
    44dc:	70 e2       	ldi	r23, 0x20	; 32
    44de:	83 e2       	ldi	r24, 0x23	; 35
    44e0:	93 e0       	ldi	r25, 0x03	; 3
    44e2:	0e 94 da 13 	call	0x27b4	; 0x27b4 <xTaskCreate>
	xSignalProcessEventGroup = xEventGroupCreate();
    44e6:	0e 94 96 05 	call	0xb2c	; 0xb2c <xEventGroupCreate>
    44ea:	80 93 46 2e 	sts	0x2E46, r24	; 0x802e46 <xSignalProcessEventGroup>
    44ee:	90 93 47 2e 	sts	0x2E47, r25	; 0x802e47 <xSignalProcessEventGroup+0x1>
	xPhaseDetectionEventGroup = xEventGroupCreate();
    44f2:	0e 94 96 05 	call	0xb2c	; 0xb2c <xEventGroupCreate>
    44f6:	80 93 cb 31 	sts	0x31CB, r24	; 0x8031cb <xPhaseDetectionEventGroup>
    44fa:	90 93 cc 31 	sts	0x31CC, r25	; 0x8031cc <xPhaseDetectionEventGroup+0x1>
	vInitDMA();			
    44fe:	0e 94 89 01 	call	0x312	; 0x312 <vInitDMA>

	vDisplayClear();
    4502:	0e 94 22 27 	call	0x4e44	; 0x4e44 <vDisplayClear>
	vDisplayWriteStringAtPos(0,0,"FreeRTOS 10.0.1");
    4506:	82 e4       	ldi	r24, 0x42	; 66
    4508:	90 e2       	ldi	r25, 0x20	; 32
    450a:	89 2f       	mov	r24, r25
    450c:	8f 93       	push	r24
    450e:	82 e4       	ldi	r24, 0x42	; 66
    4510:	90 e2       	ldi	r25, 0x20	; 32
    4512:	8f 93       	push	r24
    4514:	1f 92       	push	r1
    4516:	1f 92       	push	r1
    4518:	1f 92       	push	r1
    451a:	1f 92       	push	r1
    451c:	0e 94 34 27 	call	0x4e68	; 0x4e68 <vDisplayWriteStringAtPos>
    4520:	0f 90       	pop	r0
    4522:	0f 90       	pop	r0
    4524:	0f 90       	pop	r0
    4526:	0f 90       	pop	r0
    4528:	0f 90       	pop	r0
    452a:	0f 90       	pop	r0
	vDisplayWriteStringAtPos(1,0,"EDUBoard 1.0");
    452c:	82 e5       	ldi	r24, 0x52	; 82
    452e:	90 e2       	ldi	r25, 0x20	; 32
    4530:	89 2f       	mov	r24, r25
    4532:	8f 93       	push	r24
    4534:	82 e5       	ldi	r24, 0x52	; 82
    4536:	90 e2       	ldi	r25, 0x20	; 32
    4538:	8f 93       	push	r24
    453a:	1f 92       	push	r1
    453c:	1f 92       	push	r1
    453e:	1f 92       	push	r1
    4540:	81 e0       	ldi	r24, 0x01	; 1
    4542:	8f 93       	push	r24
    4544:	0e 94 34 27 	call	0x4e68	; 0x4e68 <vDisplayWriteStringAtPos>
    4548:	0f 90       	pop	r0
    454a:	0f 90       	pop	r0
    454c:	0f 90       	pop	r0
    454e:	0f 90       	pop	r0
    4550:	0f 90       	pop	r0
    4552:	0f 90       	pop	r0
	vDisplayWriteStringAtPos(2,0,"Template");
    4554:	8f e5       	ldi	r24, 0x5F	; 95
    4556:	90 e2       	ldi	r25, 0x20	; 32
    4558:	89 2f       	mov	r24, r25
    455a:	8f 93       	push	r24
    455c:	8f e5       	ldi	r24, 0x5F	; 95
    455e:	90 e2       	ldi	r25, 0x20	; 32
    4560:	8f 93       	push	r24
    4562:	1f 92       	push	r1
    4564:	1f 92       	push	r1
    4566:	1f 92       	push	r1
    4568:	82 e0       	ldi	r24, 0x02	; 2
    456a:	8f 93       	push	r24
    456c:	0e 94 34 27 	call	0x4e68	; 0x4e68 <vDisplayWriteStringAtPos>
    4570:	0f 90       	pop	r0
    4572:	0f 90       	pop	r0
    4574:	0f 90       	pop	r0
    4576:	0f 90       	pop	r0
    4578:	0f 90       	pop	r0
    457a:	0f 90       	pop	r0
	vDisplayWriteStringAtPos(3,0,"ResetReason: %d", reason);
    457c:	89 81       	ldd	r24, Y+1	; 0x01
    457e:	88 2f       	mov	r24, r24
    4580:	90 e0       	ldi	r25, 0x00	; 0
    4582:	29 2f       	mov	r18, r25
    4584:	2f 93       	push	r18
    4586:	8f 93       	push	r24
    4588:	88 e6       	ldi	r24, 0x68	; 104
    458a:	90 e2       	ldi	r25, 0x20	; 32
    458c:	89 2f       	mov	r24, r25
    458e:	8f 93       	push	r24
    4590:	88 e6       	ldi	r24, 0x68	; 104
    4592:	90 e2       	ldi	r25, 0x20	; 32
    4594:	8f 93       	push	r24
    4596:	1f 92       	push	r1
    4598:	1f 92       	push	r1
    459a:	1f 92       	push	r1
    459c:	83 e0       	ldi	r24, 0x03	; 3
    459e:	8f 93       	push	r24
    45a0:	0e 94 34 27 	call	0x4e68	; 0x4e68 <vDisplayWriteStringAtPos>
    45a4:	8d b7       	in	r24, 0x3d	; 61
    45a6:	9e b7       	in	r25, 0x3e	; 62
    45a8:	08 96       	adiw	r24, 0x08	; 8
    45aa:	cd bf       	out	0x3d, r28	; 61
    45ac:	de bf       	out	0x3e, r29	; 62
	vTaskStartScheduler();
    45ae:	0e 94 db 15 	call	0x2bb6	; 0x2bb6 <vTaskStartScheduler>
	return 0;
    45b2:	80 e0       	ldi	r24, 0x00	; 0
    45b4:	90 e0       	ldi	r25, 0x00	; 0
}
    45b6:	0f 90       	pop	r0
    45b8:	df 91       	pop	r29
    45ba:	cf 91       	pop	r28
    45bc:	0f 91       	pop	r16
    45be:	ff 90       	pop	r15
    45c0:	ef 90       	pop	r14
    45c2:	08 95       	ret

000045c4 <vLedBlink>:

void vLedBlink(void *pvParameters) {
    45c4:	cf 93       	push	r28
    45c6:	df 93       	push	r29
    45c8:	1f 92       	push	r1
    45ca:	1f 92       	push	r1
    45cc:	cd b7       	in	r28, 0x3d	; 61
    45ce:	de b7       	in	r29, 0x3e	; 62
    45d0:	89 83       	std	Y+1, r24	; 0x01
    45d2:	9a 83       	std	Y+2, r25	; 0x02
	(void) pvParameters;
	
	PORTE.OUT = 0x08;
    45d4:	80 e8       	ldi	r24, 0x80	; 128
    45d6:	96 e0       	ldi	r25, 0x06	; 6
    45d8:	28 e0       	ldi	r18, 0x08	; 8
    45da:	fc 01       	movw	r30, r24
    45dc:	24 83       	std	Z+4, r18	; 0x04
	for(;;) {
		PORTE.OUTTGL = 0x08;				
    45de:	80 e8       	ldi	r24, 0x80	; 128
    45e0:	96 e0       	ldi	r25, 0x06	; 6
    45e2:	28 e0       	ldi	r18, 0x08	; 8
    45e4:	fc 01       	movw	r30, r24
    45e6:	27 83       	std	Z+7, r18	; 0x07
		vTaskDelay(100 / portTICK_RATE_MS);
    45e8:	64 e6       	ldi	r22, 0x64	; 100
    45ea:	70 e0       	ldi	r23, 0x00	; 0
    45ec:	80 e0       	ldi	r24, 0x00	; 0
    45ee:	90 e0       	ldi	r25, 0x00	; 0
    45f0:	0e 94 ad 15 	call	0x2b5a	; 0x2b5a <vTaskDelay>
	}
    45f4:	f4 cf       	rjmp	.-24     	; 0x45de <vLedBlink+0x1a>

000045f6 <vWrite_Display>:
}


void vWrite_Display(void *pvParameters){
    45f6:	cf 93       	push	r28
    45f8:	df 93       	push	r29
    45fa:	1f 92       	push	r1
    45fc:	1f 92       	push	r1
    45fe:	cd b7       	in	r28, 0x3d	; 61
    4600:	de b7       	in	r29, 0x3e	; 62
    4602:	89 83       	std	Y+1, r24	; 0x01
    4604:	9a 83       	std	Y+2, r25	; 0x02

	for (;;)
	{
		
			vDisplayClear();
    4606:	0e 94 22 27 	call	0x4e44	; 0x4e44 <vDisplayClear>
			vDisplayWriteStringAtPos(0,0,"FreeRTOS 10.0.1");
    460a:	82 e4       	ldi	r24, 0x42	; 66
    460c:	90 e2       	ldi	r25, 0x20	; 32
    460e:	89 2f       	mov	r24, r25
    4610:	8f 93       	push	r24
    4612:	82 e4       	ldi	r24, 0x42	; 66
    4614:	90 e2       	ldi	r25, 0x20	; 32
    4616:	8f 93       	push	r24
    4618:	1f 92       	push	r1
    461a:	1f 92       	push	r1
    461c:	1f 92       	push	r1
    461e:	1f 92       	push	r1
    4620:	0e 94 34 27 	call	0x4e68	; 0x4e68 <vDisplayWriteStringAtPos>
    4624:	0f 90       	pop	r0
    4626:	0f 90       	pop	r0
    4628:	0f 90       	pop	r0
    462a:	0f 90       	pop	r0
    462c:	0f 90       	pop	r0
    462e:	0f 90       	pop	r0
			vDisplayWriteStringAtPos(1,0,"a: %d b: %d",buffer_a[1],buffer_b[1]);
    4630:	80 91 c5 30 	lds	r24, 0x30C5	; 0x8030c5 <buffer_b+0x1>
    4634:	28 2f       	mov	r18, r24
    4636:	30 e0       	ldi	r19, 0x00	; 0
    4638:	80 91 05 31 	lds	r24, 0x3105	; 0x803105 <buffer_a+0x1>
    463c:	88 2f       	mov	r24, r24
    463e:	90 e0       	ldi	r25, 0x00	; 0
    4640:	43 2f       	mov	r20, r19
    4642:	4f 93       	push	r20
    4644:	2f 93       	push	r18
    4646:	29 2f       	mov	r18, r25
    4648:	2f 93       	push	r18
    464a:	8f 93       	push	r24
    464c:	88 e7       	ldi	r24, 0x78	; 120
    464e:	90 e2       	ldi	r25, 0x20	; 32
    4650:	89 2f       	mov	r24, r25
    4652:	8f 93       	push	r24
    4654:	88 e7       	ldi	r24, 0x78	; 120
    4656:	90 e2       	ldi	r25, 0x20	; 32
    4658:	8f 93       	push	r24
    465a:	1f 92       	push	r1
    465c:	1f 92       	push	r1
    465e:	1f 92       	push	r1
    4660:	81 e0       	ldi	r24, 0x01	; 1
    4662:	8f 93       	push	r24
    4664:	0e 94 34 27 	call	0x4e68	; 0x4e68 <vDisplayWriteStringAtPos>
    4668:	8d b7       	in	r24, 0x3d	; 61
    466a:	9e b7       	in	r25, 0x3e	; 62
    466c:	0a 96       	adiw	r24, 0x0a	; 10
    466e:	cd bf       	out	0x3d, r28	; 61
    4670:	de bf       	out	0x3e, r29	; 62
			//vDisplayWriteStringAtPos(2,0,"H: %d L: %d ",high_peak, low_peak);
			//vDisplayWriteStringAtPos(3,0,"Control: %lu ",control_result );
			//vDisplayWriteStringAtPos(3,0,"Hoi");
			vTaskStartScheduler();
    4672:	0e 94 db 15 	call	0x2bb6	; 0x2bb6 <vTaskStartScheduler>
			vTaskDelay(100 / portTICK_RATE_MS);
    4676:	64 e6       	ldi	r22, 0x64	; 100
    4678:	70 e0       	ldi	r23, 0x00	; 0
    467a:	80 e0       	ldi	r24, 0x00	; 0
    467c:	90 e0       	ldi	r25, 0x00	; 0
    467e:	0e 94 ad 15 	call	0x2b5a	; 0x2b5a <vTaskDelay>
			
	}
    4682:	c1 cf       	rjmp	.-126    	; 0x4606 <vWrite_Display+0x10>

00004684 <__vector_108>:
	 command(0x02);
 }
 void _displayClear() {
	 command(0x01);
	 delayUS(2000);
 }
    4684:	1f 92       	push	r1
    4686:	0f 92       	push	r0
    4688:	00 90 3f 00 	lds	r0, 0x003F	; 0x80003f <__TEXT_REGION_LENGTH__+0x70003f>
    468c:	0f 92       	push	r0
    468e:	11 24       	eor	r1, r1
    4690:	00 90 3b 00 	lds	r0, 0x003B	; 0x80003b <__TEXT_REGION_LENGTH__+0x70003b>
    4694:	0f 92       	push	r0
    4696:	2f 93       	push	r18
    4698:	3f 93       	push	r19
    469a:	4f 93       	push	r20
    469c:	5f 93       	push	r21
    469e:	6f 93       	push	r22
    46a0:	7f 93       	push	r23
    46a2:	8f 93       	push	r24
    46a4:	9f 93       	push	r25
    46a6:	af 93       	push	r26
    46a8:	bf 93       	push	r27
    46aa:	ef 93       	push	r30
    46ac:	ff 93       	push	r31
    46ae:	cf 93       	push	r28
    46b0:	df 93       	push	r29
    46b2:	1f 92       	push	r1
    46b4:	cd b7       	in	r28, 0x3d	; 61
    46b6:	de b7       	in	r29, 0x3e	; 62
    46b8:	19 82       	std	Y+1, r1	; 0x01
    46ba:	80 91 53 32 	lds	r24, 0x3253	; 0x803253 <egDisplayTiming>
    46be:	90 91 54 32 	lds	r25, 0x3254	; 0x803254 <egDisplayTiming+0x1>
    46c2:	9e 01       	movw	r18, r28
    46c4:	2f 5f       	subi	r18, 0xFF	; 255
    46c6:	3f 4f       	sbci	r19, 0xFF	; 255
    46c8:	41 e0       	ldi	r20, 0x01	; 1
    46ca:	50 e0       	ldi	r21, 0x00	; 0
    46cc:	60 e0       	ldi	r22, 0x00	; 0
    46ce:	70 e0       	ldi	r23, 0x00	; 0
    46d0:	0e 94 a9 08 	call	0x1152	; 0x1152 <xEventGroupSetBitsFromISR>
    46d4:	60 e0       	ldi	r22, 0x00	; 0
    46d6:	80 e0       	ldi	r24, 0x00	; 0
    46d8:	9b e0       	ldi	r25, 0x0B	; 11
    46da:	0e 94 f8 04 	call	0x9f0	; 0x9f0 <TC0_ConfigClockSource>
    46de:	80 e0       	ldi	r24, 0x00	; 0
    46e0:	9b e0       	ldi	r25, 0x0B	; 11
    46e2:	fc 01       	movw	r30, r24
    46e4:	16 82       	std	Z+6, r1	; 0x06
    46e6:	00 00       	nop
    46e8:	0f 90       	pop	r0
    46ea:	df 91       	pop	r29
    46ec:	cf 91       	pop	r28
    46ee:	ff 91       	pop	r31
    46f0:	ef 91       	pop	r30
    46f2:	bf 91       	pop	r27
    46f4:	af 91       	pop	r26
    46f6:	9f 91       	pop	r25
    46f8:	8f 91       	pop	r24
    46fa:	7f 91       	pop	r23
    46fc:	6f 91       	pop	r22
    46fe:	5f 91       	pop	r21
    4700:	4f 91       	pop	r20
    4702:	3f 91       	pop	r19
    4704:	2f 91       	pop	r18
    4706:	0f 90       	pop	r0
    4708:	00 92 3b 00 	sts	0x003B, r0	; 0x80003b <__TEXT_REGION_LENGTH__+0x70003b>
    470c:	0f 90       	pop	r0
    470e:	00 92 3f 00 	sts	0x003F, r0	; 0x80003f <__TEXT_REGION_LENGTH__+0x70003f>
    4712:	0f 90       	pop	r0
    4714:	1f 90       	pop	r1
    4716:	18 95       	reti

00004718 <delayUS>:
    4718:	cf 92       	push	r12
    471a:	df 92       	push	r13
    471c:	ef 92       	push	r14
    471e:	ff 92       	push	r15
    4720:	0f 93       	push	r16
    4722:	cf 93       	push	r28
    4724:	df 93       	push	r29
    4726:	00 d0       	rcall	.+0      	; 0x4728 <delayUS+0x10>
    4728:	1f 92       	push	r1
    472a:	cd b7       	in	r28, 0x3d	; 61
    472c:	de b7       	in	r29, 0x3e	; 62
    472e:	69 83       	std	Y+1, r22	; 0x01
    4730:	7a 83       	std	Y+2, r23	; 0x02
    4732:	8b 83       	std	Y+3, r24	; 0x03
    4734:	9c 83       	std	Y+4, r25	; 0x04
    4736:	89 81       	ldd	r24, Y+1	; 0x01
    4738:	9a 81       	ldd	r25, Y+2	; 0x02
    473a:	ab 81       	ldd	r26, Y+3	; 0x03
    473c:	bc 81       	ldd	r27, Y+4	; 0x04
    473e:	02 97       	sbiw	r24, 0x02	; 2
    4740:	a1 05       	cpc	r26, r1
    4742:	b1 05       	cpc	r27, r1
    4744:	40 f4       	brcc	.+16     	; 0x4756 <delayUS+0x3e>
    4746:	82 e0       	ldi	r24, 0x02	; 2
    4748:	90 e0       	ldi	r25, 0x00	; 0
    474a:	a0 e0       	ldi	r26, 0x00	; 0
    474c:	b0 e0       	ldi	r27, 0x00	; 0
    474e:	89 83       	std	Y+1, r24	; 0x01
    4750:	9a 83       	std	Y+2, r25	; 0x02
    4752:	ab 83       	std	Y+3, r26	; 0x03
    4754:	bc 83       	std	Y+4, r27	; 0x04
    4756:	80 e0       	ldi	r24, 0x00	; 0
    4758:	9b e0       	ldi	r25, 0x0B	; 11
    475a:	21 e0       	ldi	r18, 0x01	; 1
    475c:	fc 01       	movw	r30, r24
    475e:	26 83       	std	Z+6, r18	; 0x06
    4760:	80 e0       	ldi	r24, 0x00	; 0
    4762:	9b e0       	ldi	r25, 0x0B	; 11
    4764:	fc 01       	movw	r30, r24
    4766:	10 a2       	std	Z+32, r1	; 0x20
    4768:	11 a2       	std	Z+33, r1	; 0x21
    476a:	60 e0       	ldi	r22, 0x00	; 0
    476c:	80 e0       	ldi	r24, 0x00	; 0
    476e:	9b e0       	ldi	r25, 0x0B	; 11
    4770:	0e 94 14 05 	call	0xa28	; 0xa28 <TC0_ConfigWGM>
    4774:	89 81       	ldd	r24, Y+1	; 0x01
    4776:	9a 81       	ldd	r25, Y+2	; 0x02
    4778:	ab 81       	ldd	r26, Y+3	; 0x03
    477a:	bc 81       	ldd	r27, Y+4	; 0x04
    477c:	8e 3f       	cpi	r24, 0xFE	; 254
    477e:	9f 4f       	sbci	r25, 0xFF	; 255
    4780:	a1 05       	cpc	r26, r1
    4782:	b1 05       	cpc	r27, r1
    4784:	98 f4       	brcc	.+38     	; 0x47ac <delayUS+0x94>
    4786:	20 e0       	ldi	r18, 0x00	; 0
    4788:	3b e0       	ldi	r19, 0x0B	; 11
    478a:	89 81       	ldd	r24, Y+1	; 0x01
    478c:	9a 81       	ldd	r25, Y+2	; 0x02
    478e:	ab 81       	ldd	r26, Y+3	; 0x03
    4790:	bc 81       	ldd	r27, Y+4	; 0x04
    4792:	b6 95       	lsr	r27
    4794:	a7 95       	ror	r26
    4796:	97 95       	ror	r25
    4798:	87 95       	ror	r24
    479a:	f9 01       	movw	r30, r18
    479c:	86 a3       	std	Z+38, r24	; 0x26
    479e:	97 a3       	std	Z+39, r25	; 0x27
    47a0:	65 e0       	ldi	r22, 0x05	; 5
    47a2:	80 e0       	ldi	r24, 0x00	; 0
    47a4:	9b e0       	ldi	r25, 0x0B	; 11
    47a6:	0e 94 f8 04 	call	0x9f0	; 0x9f0 <TC0_ConfigClockSource>
    47aa:	1f c0       	rjmp	.+62     	; 0x47ea <delayUS+0xd2>
    47ac:	89 81       	ldd	r24, Y+1	; 0x01
    47ae:	9a 81       	ldd	r25, Y+2	; 0x02
    47b0:	ab 81       	ldd	r26, Y+3	; 0x03
    47b2:	bc 81       	ldd	r27, Y+4	; 0x04
    47b4:	80 34       	cpi	r24, 0x40	; 64
    47b6:	92 44       	sbci	r25, 0x42	; 66
    47b8:	af 40       	sbci	r26, 0x0F	; 15
    47ba:	b1 05       	cpc	r27, r1
    47bc:	b0 f4       	brcc	.+44     	; 0x47ea <delayUS+0xd2>
    47be:	20 e0       	ldi	r18, 0x00	; 0
    47c0:	3b e0       	ldi	r19, 0x0B	; 11
    47c2:	89 81       	ldd	r24, Y+1	; 0x01
    47c4:	9a 81       	ldd	r25, Y+2	; 0x02
    47c6:	ab 81       	ldd	r26, Y+3	; 0x03
    47c8:	bc 81       	ldd	r27, Y+4	; 0x04
    47ca:	68 94       	set
    47cc:	14 f8       	bld	r1, 4
    47ce:	b6 95       	lsr	r27
    47d0:	a7 95       	ror	r26
    47d2:	97 95       	ror	r25
    47d4:	87 95       	ror	r24
    47d6:	16 94       	lsr	r1
    47d8:	d1 f7       	brne	.-12     	; 0x47ce <delayUS+0xb6>
    47da:	f9 01       	movw	r30, r18
    47dc:	86 a3       	std	Z+38, r24	; 0x26
    47de:	97 a3       	std	Z+39, r25	; 0x27
    47e0:	67 e0       	ldi	r22, 0x07	; 7
    47e2:	80 e0       	ldi	r24, 0x00	; 0
    47e4:	9b e0       	ldi	r25, 0x0B	; 11
    47e6:	0e 94 f8 04 	call	0x9f0	; 0x9f0 <TC0_ConfigClockSource>
    47ea:	80 91 53 32 	lds	r24, 0x3253	; 0x803253 <egDisplayTiming>
    47ee:	90 91 54 32 	lds	r25, 0x3254	; 0x803254 <egDisplayTiming+0x1>
    47f2:	0f 2e       	mov	r0, r31
    47f4:	f4 ef       	ldi	r31, 0xF4	; 244
    47f6:	cf 2e       	mov	r12, r31
    47f8:	dd 24       	eor	r13, r13
    47fa:	d3 94       	inc	r13
    47fc:	e1 2c       	mov	r14, r1
    47fe:	f1 2c       	mov	r15, r1
    4800:	f0 2d       	mov	r31, r0
    4802:	00 e0       	ldi	r16, 0x00	; 0
    4804:	21 e0       	ldi	r18, 0x01	; 1
    4806:	41 e0       	ldi	r20, 0x01	; 1
    4808:	50 e0       	ldi	r21, 0x00	; 0
    480a:	60 e0       	ldi	r22, 0x00	; 0
    480c:	70 e0       	ldi	r23, 0x00	; 0
    480e:	0e 94 b9 05 	call	0xb72	; 0xb72 <xEventGroupWaitBits>
    4812:	00 00       	nop
    4814:	24 96       	adiw	r28, 0x04	; 4
    4816:	cd bf       	out	0x3d, r28	; 61
    4818:	de bf       	out	0x3e, r29	; 62
    481a:	df 91       	pop	r29
    481c:	cf 91       	pop	r28
    481e:	0f 91       	pop	r16
    4820:	ff 90       	pop	r15
    4822:	ef 90       	pop	r14
    4824:	df 90       	pop	r13
    4826:	cf 90       	pop	r12
    4828:	08 95       	ret

0000482a <setPort>:
    482a:	cf 93       	push	r28
    482c:	df 93       	push	r29
    482e:	1f 92       	push	r1
    4830:	cd b7       	in	r28, 0x3d	; 61
    4832:	de b7       	in	r29, 0x3e	; 62
    4834:	89 83       	std	Y+1, r24	; 0x01
    4836:	89 81       	ldd	r24, Y+1	; 0x01
    4838:	8f 70       	andi	r24, 0x0F	; 15
    483a:	89 83       	std	Y+1, r24	; 0x01
    483c:	89 81       	ldd	r24, Y+1	; 0x01
    483e:	82 95       	swap	r24
    4840:	80 7f       	andi	r24, 0xF0	; 240
    4842:	89 83       	std	Y+1, r24	; 0x01
    4844:	80 e0       	ldi	r24, 0x00	; 0
    4846:	96 e0       	ldi	r25, 0x06	; 6
    4848:	20 e0       	ldi	r18, 0x00	; 0
    484a:	36 e0       	ldi	r19, 0x06	; 6
    484c:	f9 01       	movw	r30, r18
    484e:	34 81       	ldd	r19, Z+4	; 0x04
    4850:	29 81       	ldd	r18, Y+1	; 0x01
    4852:	2f 60       	ori	r18, 0x0F	; 15
    4854:	23 23       	and	r18, r19
    4856:	fc 01       	movw	r30, r24
    4858:	24 83       	std	Z+4, r18	; 0x04
    485a:	80 e0       	ldi	r24, 0x00	; 0
    485c:	96 e0       	ldi	r25, 0x06	; 6
    485e:	20 e0       	ldi	r18, 0x00	; 0
    4860:	36 e0       	ldi	r19, 0x06	; 6
    4862:	f9 01       	movw	r30, r18
    4864:	34 81       	ldd	r19, Z+4	; 0x04
    4866:	29 81       	ldd	r18, Y+1	; 0x01
    4868:	23 2b       	or	r18, r19
    486a:	fc 01       	movw	r30, r24
    486c:	24 83       	std	Z+4, r18	; 0x04
    486e:	00 00       	nop
    4870:	0f 90       	pop	r0
    4872:	df 91       	pop	r29
    4874:	cf 91       	pop	r28
    4876:	08 95       	ret

00004878 <setRS>:
    4878:	cf 93       	push	r28
    487a:	df 93       	push	r29
    487c:	1f 92       	push	r1
    487e:	cd b7       	in	r28, 0x3d	; 61
    4880:	de b7       	in	r29, 0x3e	; 62
    4882:	89 83       	std	Y+1, r24	; 0x01
    4884:	89 81       	ldd	r24, Y+1	; 0x01
    4886:	88 23       	and	r24, r24
    4888:	31 f0       	breq	.+12     	; 0x4896 <setRS+0x1e>
    488a:	80 e6       	ldi	r24, 0x60	; 96
    488c:	96 e0       	ldi	r25, 0x06	; 6
    488e:	21 e0       	ldi	r18, 0x01	; 1
    4890:	fc 01       	movw	r30, r24
    4892:	25 83       	std	Z+5, r18	; 0x05
    4894:	05 c0       	rjmp	.+10     	; 0x48a0 <setRS+0x28>
    4896:	80 e6       	ldi	r24, 0x60	; 96
    4898:	96 e0       	ldi	r25, 0x06	; 6
    489a:	21 e0       	ldi	r18, 0x01	; 1
    489c:	fc 01       	movw	r30, r24
    489e:	26 83       	std	Z+6, r18	; 0x06
    48a0:	00 00       	nop
    48a2:	0f 90       	pop	r0
    48a4:	df 91       	pop	r29
    48a6:	cf 91       	pop	r28
    48a8:	08 95       	ret

000048aa <setRW>:
    48aa:	cf 93       	push	r28
    48ac:	df 93       	push	r29
    48ae:	1f 92       	push	r1
    48b0:	cd b7       	in	r28, 0x3d	; 61
    48b2:	de b7       	in	r29, 0x3e	; 62
    48b4:	89 83       	std	Y+1, r24	; 0x01
    48b6:	89 81       	ldd	r24, Y+1	; 0x01
    48b8:	88 23       	and	r24, r24
    48ba:	31 f0       	breq	.+12     	; 0x48c8 <setRW+0x1e>
    48bc:	80 e6       	ldi	r24, 0x60	; 96
    48be:	96 e0       	ldi	r25, 0x06	; 6
    48c0:	22 e0       	ldi	r18, 0x02	; 2
    48c2:	fc 01       	movw	r30, r24
    48c4:	25 83       	std	Z+5, r18	; 0x05
    48c6:	05 c0       	rjmp	.+10     	; 0x48d2 <setRW+0x28>
    48c8:	80 e6       	ldi	r24, 0x60	; 96
    48ca:	96 e0       	ldi	r25, 0x06	; 6
    48cc:	22 e0       	ldi	r18, 0x02	; 2
    48ce:	fc 01       	movw	r30, r24
    48d0:	26 83       	std	Z+6, r18	; 0x06
    48d2:	00 00       	nop
    48d4:	0f 90       	pop	r0
    48d6:	df 91       	pop	r29
    48d8:	cf 91       	pop	r28
    48da:	08 95       	ret

000048dc <setE>:
    48dc:	cf 93       	push	r28
    48de:	df 93       	push	r29
    48e0:	1f 92       	push	r1
    48e2:	cd b7       	in	r28, 0x3d	; 61
    48e4:	de b7       	in	r29, 0x3e	; 62
    48e6:	89 83       	std	Y+1, r24	; 0x01
    48e8:	89 81       	ldd	r24, Y+1	; 0x01
    48ea:	88 23       	and	r24, r24
    48ec:	31 f0       	breq	.+12     	; 0x48fa <setE+0x1e>
    48ee:	80 e6       	ldi	r24, 0x60	; 96
    48f0:	96 e0       	ldi	r25, 0x06	; 6
    48f2:	24 e0       	ldi	r18, 0x04	; 4
    48f4:	fc 01       	movw	r30, r24
    48f6:	25 83       	std	Z+5, r18	; 0x05
    48f8:	05 c0       	rjmp	.+10     	; 0x4904 <setE+0x28>
    48fa:	80 e6       	ldi	r24, 0x60	; 96
    48fc:	96 e0       	ldi	r25, 0x06	; 6
    48fe:	24 e0       	ldi	r18, 0x04	; 4
    4900:	fc 01       	movw	r30, r24
    4902:	26 83       	std	Z+6, r18	; 0x06
    4904:	00 00       	nop
    4906:	0f 90       	pop	r0
    4908:	df 91       	pop	r29
    490a:	cf 91       	pop	r28
    490c:	08 95       	ret

0000490e <Nybble>:
    490e:	cf 93       	push	r28
    4910:	df 93       	push	r29
    4912:	cd b7       	in	r28, 0x3d	; 61
    4914:	de b7       	in	r29, 0x3e	; 62
    4916:	81 e0       	ldi	r24, 0x01	; 1
    4918:	0e 94 6e 24 	call	0x48dc	; 0x48dc <setE>
    491c:	61 e0       	ldi	r22, 0x01	; 1
    491e:	70 e0       	ldi	r23, 0x00	; 0
    4920:	80 e0       	ldi	r24, 0x00	; 0
    4922:	90 e0       	ldi	r25, 0x00	; 0
    4924:	0e 94 8c 23 	call	0x4718	; 0x4718 <delayUS>
    4928:	80 e0       	ldi	r24, 0x00	; 0
    492a:	0e 94 6e 24 	call	0x48dc	; 0x48dc <setE>
    492e:	00 00       	nop
    4930:	df 91       	pop	r29
    4932:	cf 91       	pop	r28
    4934:	08 95       	ret

00004936 <command>:
    4936:	cf 93       	push	r28
    4938:	df 93       	push	r29
    493a:	1f 92       	push	r1
    493c:	cd b7       	in	r28, 0x3d	; 61
    493e:	de b7       	in	r29, 0x3e	; 62
    4940:	89 83       	std	Y+1, r24	; 0x01
    4942:	89 81       	ldd	r24, Y+1	; 0x01
    4944:	82 95       	swap	r24
    4946:	8f 70       	andi	r24, 0x0F	; 15
    4948:	0e 94 15 24 	call	0x482a	; 0x482a <setPort>
    494c:	80 e0       	ldi	r24, 0x00	; 0
    494e:	0e 94 3c 24 	call	0x4878	; 0x4878 <setRS>
    4952:	80 e0       	ldi	r24, 0x00	; 0
    4954:	0e 94 55 24 	call	0x48aa	; 0x48aa <setRW>
    4958:	0e 94 87 24 	call	0x490e	; 0x490e <Nybble>
    495c:	89 81       	ldd	r24, Y+1	; 0x01
    495e:	8f 70       	andi	r24, 0x0F	; 15
    4960:	0e 94 15 24 	call	0x482a	; 0x482a <setPort>
    4964:	0e 94 87 24 	call	0x490e	; 0x490e <Nybble>
    4968:	00 00       	nop
    496a:	0f 90       	pop	r0
    496c:	df 91       	pop	r29
    496e:	cf 91       	pop	r28
    4970:	08 95       	ret

00004972 <write>:
    4972:	cf 93       	push	r28
    4974:	df 93       	push	r29
    4976:	1f 92       	push	r1
    4978:	cd b7       	in	r28, 0x3d	; 61
    497a:	de b7       	in	r29, 0x3e	; 62
    497c:	89 83       	std	Y+1, r24	; 0x01
    497e:	89 81       	ldd	r24, Y+1	; 0x01
    4980:	82 95       	swap	r24
    4982:	8f 70       	andi	r24, 0x0F	; 15
    4984:	0e 94 15 24 	call	0x482a	; 0x482a <setPort>
    4988:	81 e0       	ldi	r24, 0x01	; 1
    498a:	0e 94 3c 24 	call	0x4878	; 0x4878 <setRS>
    498e:	80 e0       	ldi	r24, 0x00	; 0
    4990:	0e 94 55 24 	call	0x48aa	; 0x48aa <setRW>
    4994:	0e 94 87 24 	call	0x490e	; 0x490e <Nybble>
    4998:	89 81       	ldd	r24, Y+1	; 0x01
    499a:	8f 70       	andi	r24, 0x0F	; 15
    499c:	0e 94 15 24 	call	0x482a	; 0x482a <setPort>
    49a0:	0e 94 87 24 	call	0x490e	; 0x490e <Nybble>
    49a4:	00 00       	nop
    49a6:	0f 90       	pop	r0
    49a8:	df 91       	pop	r29
    49aa:	cf 91       	pop	r28
    49ac:	08 95       	ret

000049ae <vInitDisplay>:
 
 void vInitDisplay() {
    49ae:	ef 92       	push	r14
    49b0:	ff 92       	push	r15
    49b2:	0f 93       	push	r16
    49b4:	cf 93       	push	r28
    49b6:	df 93       	push	r29
    49b8:	cd b7       	in	r28, 0x3d	; 61
    49ba:	de b7       	in	r29, 0x3e	; 62
	PORTA.DIRSET = PIN4_bm;
    49bc:	80 e0       	ldi	r24, 0x00	; 0
    49be:	96 e0       	ldi	r25, 0x06	; 6
    49c0:	20 e1       	ldi	r18, 0x10	; 16
    49c2:	fc 01       	movw	r30, r24
    49c4:	21 83       	std	Z+1, r18	; 0x01
	PORTA.DIRSET = PIN5_bm;
    49c6:	80 e0       	ldi	r24, 0x00	; 0
    49c8:	96 e0       	ldi	r25, 0x06	; 6
    49ca:	20 e2       	ldi	r18, 0x20	; 32
    49cc:	fc 01       	movw	r30, r24
    49ce:	21 83       	std	Z+1, r18	; 0x01
	PORTA.DIRSET = PIN6_bm;
    49d0:	80 e0       	ldi	r24, 0x00	; 0
    49d2:	96 e0       	ldi	r25, 0x06	; 6
    49d4:	20 e4       	ldi	r18, 0x40	; 64
    49d6:	fc 01       	movw	r30, r24
    49d8:	21 83       	std	Z+1, r18	; 0x01
	PORTA.DIRSET = PIN7_bm;
    49da:	80 e0       	ldi	r24, 0x00	; 0
    49dc:	96 e0       	ldi	r25, 0x06	; 6
    49de:	20 e8       	ldi	r18, 0x80	; 128
    49e0:	fc 01       	movw	r30, r24
    49e2:	21 83       	std	Z+1, r18	; 0x01
	PORTD.DIRSET = PIN0_bm;
    49e4:	80 e6       	ldi	r24, 0x60	; 96
    49e6:	96 e0       	ldi	r25, 0x06	; 6
    49e8:	21 e0       	ldi	r18, 0x01	; 1
    49ea:	fc 01       	movw	r30, r24
    49ec:	21 83       	std	Z+1, r18	; 0x01
	PORTD.DIRSET = PIN1_bm;
    49ee:	80 e6       	ldi	r24, 0x60	; 96
    49f0:	96 e0       	ldi	r25, 0x06	; 6
    49f2:	22 e0       	ldi	r18, 0x02	; 2
    49f4:	fc 01       	movw	r30, r24
    49f6:	21 83       	std	Z+1, r18	; 0x01
	PORTD.DIRSET = PIN2_bm;
    49f8:	80 e6       	ldi	r24, 0x60	; 96
    49fa:	96 e0       	ldi	r25, 0x06	; 6
    49fc:	24 e0       	ldi	r18, 0x04	; 4
    49fe:	fc 01       	movw	r30, r24
    4a00:	21 83       	std	Z+1, r18	; 0x01
	PORTA.OUT &= 0x0F;
    4a02:	80 e0       	ldi	r24, 0x00	; 0
    4a04:	96 e0       	ldi	r25, 0x06	; 6
    4a06:	20 e0       	ldi	r18, 0x00	; 0
    4a08:	36 e0       	ldi	r19, 0x06	; 6
    4a0a:	f9 01       	movw	r30, r18
    4a0c:	24 81       	ldd	r18, Z+4	; 0x04
    4a0e:	2f 70       	andi	r18, 0x0F	; 15
    4a10:	fc 01       	movw	r30, r24
    4a12:	24 83       	std	Z+4, r18	; 0x04
	PORTD.OUT &= 0xF8;
    4a14:	80 e6       	ldi	r24, 0x60	; 96
    4a16:	96 e0       	ldi	r25, 0x06	; 6
    4a18:	20 e6       	ldi	r18, 0x60	; 96
    4a1a:	36 e0       	ldi	r19, 0x06	; 6
    4a1c:	f9 01       	movw	r30, r18
    4a1e:	24 81       	ldd	r18, Z+4	; 0x04
    4a20:	28 7f       	andi	r18, 0xF8	; 248
    4a22:	fc 01       	movw	r30, r24
    4a24:	24 83       	std	Z+4, r18	; 0x04

	if((displayLineQueue = xQueueCreate(DISPLAY_QUEUE_DEPTH, sizeof(displayLine_t))) == NULL)
    4a26:	40 e0       	ldi	r20, 0x00	; 0
    4a28:	66 e1       	ldi	r22, 0x16	; 22
    4a2a:	88 e0       	ldi	r24, 0x08	; 8
    4a2c:	0e 94 a2 0e 	call	0x1d44	; 0x1d44 <xQueueGenericCreate>
    4a30:	80 93 51 32 	sts	0x3251, r24	; 0x803251 <displayLineQueue>
    4a34:	90 93 52 32 	sts	0x3252, r25	; 0x803252 <displayLineQueue+0x1>
	{
		//error(ERR_QUEUE_CREATE_HANDLE_NULL);
	}
	
	egDisplayTiming = xEventGroupCreate();
    4a38:	0e 94 96 05 	call	0xb2c	; 0xb2c <xEventGroupCreate>
    4a3c:	80 93 53 32 	sts	0x3253, r24	; 0x803253 <egDisplayTiming>
    4a40:	90 93 54 32 	sts	0x3254, r25	; 0x803254 <egDisplayTiming+0x1>
	

	xTaskCreate(vDisplayUpdateTask, (const char*) "dispUpdate", configMINIMAL_STACK_SIZE+150, NULL, 1, NULL);	
    4a44:	e1 2c       	mov	r14, r1
    4a46:	f1 2c       	mov	r15, r1
    4a48:	01 e0       	ldi	r16, 0x01	; 1
    4a4a:	20 e0       	ldi	r18, 0x00	; 0
    4a4c:	30 e0       	ldi	r19, 0x00	; 0
    4a4e:	4e e5       	ldi	r20, 0x5E	; 94
    4a50:	51 e0       	ldi	r21, 0x01	; 1
    4a52:	64 e8       	ldi	r22, 0x84	; 132
    4a54:	70 e2       	ldi	r23, 0x20	; 32
    4a56:	85 ed       	ldi	r24, 0xD5	; 213
    4a58:	95 e2       	ldi	r25, 0x25	; 37
    4a5a:	0e 94 da 13 	call	0x27b4	; 0x27b4 <xTaskCreate>
 }
    4a5e:	00 00       	nop
    4a60:	df 91       	pop	r29
    4a62:	cf 91       	pop	r28
    4a64:	0f 91       	pop	r16
    4a66:	ff 90       	pop	r15
    4a68:	ef 90       	pop	r14
    4a6a:	08 95       	ret

00004a6c <_displaySetPos>:
 
 void _displaySetPos(int line, int pos) {
    4a6c:	cf 93       	push	r28
    4a6e:	df 93       	push	r29
    4a70:	00 d0       	rcall	.+0      	; 0x4a72 <_displaySetPos+0x6>
    4a72:	1f 92       	push	r1
    4a74:	cd b7       	in	r28, 0x3d	; 61
    4a76:	de b7       	in	r29, 0x3e	; 62
    4a78:	89 83       	std	Y+1, r24	; 0x01
    4a7a:	9a 83       	std	Y+2, r25	; 0x02
    4a7c:	6b 83       	std	Y+3, r22	; 0x03
    4a7e:	7c 83       	std	Y+4, r23	; 0x04
	 switch(line) {
    4a80:	89 81       	ldd	r24, Y+1	; 0x01
    4a82:	9a 81       	ldd	r25, Y+2	; 0x02
    4a84:	81 30       	cpi	r24, 0x01	; 1
    4a86:	91 05       	cpc	r25, r1
    4a88:	89 f0       	breq	.+34     	; 0x4aac <_displaySetPos+0x40>
    4a8a:	82 30       	cpi	r24, 0x02	; 2
    4a8c:	91 05       	cpc	r25, r1
    4a8e:	1c f4       	brge	.+6      	; 0x4a96 <_displaySetPos+0x2a>
    4a90:	89 2b       	or	r24, r25
    4a92:	39 f0       	breq	.+14     	; 0x4aa2 <_displaySetPos+0x36>
    4a94:	1a c0       	rjmp	.+52     	; 0x4aca <_displaySetPos+0x5e>
    4a96:	82 30       	cpi	r24, 0x02	; 2
    4a98:	91 05       	cpc	r25, r1
    4a9a:	69 f0       	breq	.+26     	; 0x4ab6 <_displaySetPos+0x4a>
    4a9c:	03 97       	sbiw	r24, 0x03	; 3
    4a9e:	81 f0       	breq	.+32     	; 0x4ac0 <_displaySetPos+0x54>
    4aa0:	14 c0       	rjmp	.+40     	; 0x4aca <_displaySetPos+0x5e>
		 case 0:
		 command(0x80 + 0x00 + pos);
    4aa2:	8b 81       	ldd	r24, Y+3	; 0x03
    4aa4:	80 58       	subi	r24, 0x80	; 128
    4aa6:	0e 94 9b 24 	call	0x4936	; 0x4936 <command>
		 break;
    4aaa:	0f c0       	rjmp	.+30     	; 0x4aca <_displaySetPos+0x5e>
		 case 1:
		 command(0x80 + 0x40 + pos);
    4aac:	8b 81       	ldd	r24, Y+3	; 0x03
    4aae:	80 54       	subi	r24, 0x40	; 64
    4ab0:	0e 94 9b 24 	call	0x4936	; 0x4936 <command>
		 break;
    4ab4:	0a c0       	rjmp	.+20     	; 0x4aca <_displaySetPos+0x5e>
		 case 2:
		 command(0x80 + 0x14 + pos);
    4ab6:	8b 81       	ldd	r24, Y+3	; 0x03
    4ab8:	8c 56       	subi	r24, 0x6C	; 108
    4aba:	0e 94 9b 24 	call	0x4936	; 0x4936 <command>
		 break;
    4abe:	05 c0       	rjmp	.+10     	; 0x4aca <_displaySetPos+0x5e>
		 case 3:
		 command(0x80 + 0x54 + pos);
    4ac0:	8b 81       	ldd	r24, Y+3	; 0x03
    4ac2:	8c 52       	subi	r24, 0x2C	; 44
    4ac4:	0e 94 9b 24 	call	0x4936	; 0x4936 <command>
		 break;
    4ac8:	00 00       	nop
	 }
	 delayUS(39);
    4aca:	67 e2       	ldi	r22, 0x27	; 39
    4acc:	70 e0       	ldi	r23, 0x00	; 0
    4ace:	80 e0       	ldi	r24, 0x00	; 0
    4ad0:	90 e0       	ldi	r25, 0x00	; 0
    4ad2:	0e 94 8c 23 	call	0x4718	; 0x4718 <delayUS>
 }
    4ad6:	00 00       	nop
    4ad8:	24 96       	adiw	r28, 0x04	; 4
    4ada:	cd bf       	out	0x3d, r28	; 61
    4adc:	de bf       	out	0x3e, r29	; 62
    4ade:	df 91       	pop	r29
    4ae0:	cf 91       	pop	r28
    4ae2:	08 95       	ret

00004ae4 <_displayWriteChar>:

 void _displayWriteChar(char c) {
    4ae4:	cf 93       	push	r28
    4ae6:	df 93       	push	r29
    4ae8:	1f 92       	push	r1
    4aea:	cd b7       	in	r28, 0x3d	; 61
    4aec:	de b7       	in	r29, 0x3e	; 62
    4aee:	89 83       	std	Y+1, r24	; 0x01
	 write(c);
    4af0:	89 81       	ldd	r24, Y+1	; 0x01
    4af2:	0e 94 b9 24 	call	0x4972	; 0x4972 <write>
	 delayUS(43);
    4af6:	6b e2       	ldi	r22, 0x2B	; 43
    4af8:	70 e0       	ldi	r23, 0x00	; 0
    4afa:	80 e0       	ldi	r24, 0x00	; 0
    4afc:	90 e0       	ldi	r25, 0x00	; 0
    4afe:	0e 94 8c 23 	call	0x4718	; 0x4718 <delayUS>
 }
    4b02:	00 00       	nop
    4b04:	0f 90       	pop	r0
    4b06:	df 91       	pop	r29
    4b08:	cf 91       	pop	r28
    4b0a:	08 95       	ret

00004b0c <_displayWriteString>:
 
 void _displayWriteString(char* s) {
    4b0c:	cf 93       	push	r28
    4b0e:	df 93       	push	r29
    4b10:	00 d0       	rcall	.+0      	; 0x4b12 <_displayWriteString+0x6>
    4b12:	1f 92       	push	r1
    4b14:	cd b7       	in	r28, 0x3d	; 61
    4b16:	de b7       	in	r29, 0x3e	; 62
    4b18:	8b 83       	std	Y+3, r24	; 0x03
    4b1a:	9c 83       	std	Y+4, r25	; 0x04
	 for(int i = 0; i < 20; i++) {
    4b1c:	19 82       	std	Y+1, r1	; 0x01
    4b1e:	1a 82       	std	Y+2, r1	; 0x02
    4b20:	19 c0       	rjmp	.+50     	; 0x4b54 <_displayWriteString+0x48>
		 if(s[i] == '\0') {
    4b22:	89 81       	ldd	r24, Y+1	; 0x01
    4b24:	9a 81       	ldd	r25, Y+2	; 0x02
    4b26:	2b 81       	ldd	r18, Y+3	; 0x03
    4b28:	3c 81       	ldd	r19, Y+4	; 0x04
    4b2a:	82 0f       	add	r24, r18
    4b2c:	93 1f       	adc	r25, r19
    4b2e:	fc 01       	movw	r30, r24
    4b30:	80 81       	ld	r24, Z
    4b32:	88 23       	and	r24, r24
    4b34:	a1 f0       	breq	.+40     	; 0x4b5e <_displayWriteString+0x52>
			 break;
		 }
		 _displayWriteChar(s[i]);
    4b36:	89 81       	ldd	r24, Y+1	; 0x01
    4b38:	9a 81       	ldd	r25, Y+2	; 0x02
    4b3a:	2b 81       	ldd	r18, Y+3	; 0x03
    4b3c:	3c 81       	ldd	r19, Y+4	; 0x04
    4b3e:	82 0f       	add	r24, r18
    4b40:	93 1f       	adc	r25, r19
    4b42:	fc 01       	movw	r30, r24
    4b44:	80 81       	ld	r24, Z
    4b46:	0e 94 72 25 	call	0x4ae4	; 0x4ae4 <_displayWriteChar>
	 write(c);
	 delayUS(43);
 }
 
 void _displayWriteString(char* s) {
	 for(int i = 0; i < 20; i++) {
    4b4a:	89 81       	ldd	r24, Y+1	; 0x01
    4b4c:	9a 81       	ldd	r25, Y+2	; 0x02
    4b4e:	01 96       	adiw	r24, 0x01	; 1
    4b50:	89 83       	std	Y+1, r24	; 0x01
    4b52:	9a 83       	std	Y+2, r25	; 0x02
    4b54:	89 81       	ldd	r24, Y+1	; 0x01
    4b56:	9a 81       	ldd	r25, Y+2	; 0x02
    4b58:	44 97       	sbiw	r24, 0x14	; 20
    4b5a:	1c f3       	brlt	.-58     	; 0x4b22 <_displayWriteString+0x16>
		 if(s[i] == '\0') {
			 break;
		 }
		 _displayWriteChar(s[i]);
	 }
 }
    4b5c:	01 c0       	rjmp	.+2      	; 0x4b60 <_displayWriteString+0x54>
 }
 
 void _displayWriteString(char* s) {
	 for(int i = 0; i < 20; i++) {
		 if(s[i] == '\0') {
			 break;
    4b5e:	00 00       	nop
		 }
		 _displayWriteChar(s[i]);
	 }
 }
    4b60:	00 00       	nop
    4b62:	24 96       	adiw	r28, 0x04	; 4
    4b64:	cd bf       	out	0x3d, r28	; 61
    4b66:	de bf       	out	0x3e, r29	; 62
    4b68:	df 91       	pop	r29
    4b6a:	cf 91       	pop	r28
    4b6c:	08 95       	ret

00004b6e <_displayWriteStringAtPos>:

 void _displayWriteStringAtPos(int line, int pos, char* s) {
    4b6e:	cf 93       	push	r28
    4b70:	df 93       	push	r29
    4b72:	00 d0       	rcall	.+0      	; 0x4b74 <_displayWriteStringAtPos+0x6>
    4b74:	00 d0       	rcall	.+0      	; 0x4b76 <_displayWriteStringAtPos+0x8>
    4b76:	cd b7       	in	r28, 0x3d	; 61
    4b78:	de b7       	in	r29, 0x3e	; 62
    4b7a:	89 83       	std	Y+1, r24	; 0x01
    4b7c:	9a 83       	std	Y+2, r25	; 0x02
    4b7e:	6b 83       	std	Y+3, r22	; 0x03
    4b80:	7c 83       	std	Y+4, r23	; 0x04
    4b82:	4d 83       	std	Y+5, r20	; 0x05
    4b84:	5e 83       	std	Y+6, r21	; 0x06
	 _displaySetPos(line, pos);
    4b86:	2b 81       	ldd	r18, Y+3	; 0x03
    4b88:	3c 81       	ldd	r19, Y+4	; 0x04
    4b8a:	89 81       	ldd	r24, Y+1	; 0x01
    4b8c:	9a 81       	ldd	r25, Y+2	; 0x02
    4b8e:	b9 01       	movw	r22, r18
    4b90:	0e 94 36 25 	call	0x4a6c	; 0x4a6c <_displaySetPos>
	 _displayWriteString(s);
    4b94:	8d 81       	ldd	r24, Y+5	; 0x05
    4b96:	9e 81       	ldd	r25, Y+6	; 0x06
    4b98:	0e 94 86 25 	call	0x4b0c	; 0x4b0c <_displayWriteString>
 }
    4b9c:	00 00       	nop
    4b9e:	26 96       	adiw	r28, 0x06	; 6
    4ba0:	cd bf       	out	0x3d, r28	; 61
    4ba2:	de bf       	out	0x3e, r29	; 62
    4ba4:	df 91       	pop	r29
    4ba6:	cf 91       	pop	r28
    4ba8:	08 95       	ret

00004baa <vDisplayUpdateTask>:

 void vDisplayUpdateTask(void *pvParameters) {
    4baa:	cf 93       	push	r28
    4bac:	df 93       	push	r29
    4bae:	cd b7       	in	r28, 0x3d	; 61
    4bb0:	de b7       	in	r29, 0x3e	; 62
    4bb2:	c0 57       	subi	r28, 0x70	; 112
    4bb4:	d1 09       	sbc	r29, r1
    4bb6:	cd bf       	out	0x3d, r28	; 61
    4bb8:	de bf       	out	0x3e, r29	; 62
    4bba:	9e 01       	movw	r18, r28
    4bbc:	21 59       	subi	r18, 0x91	; 145
    4bbe:	3f 4f       	sbci	r19, 0xFF	; 255
    4bc0:	f9 01       	movw	r30, r18
    4bc2:	80 83       	st	Z, r24
    4bc4:	91 83       	std	Z+1, r25	; 0x01
	 int i = 0;
    4bc6:	19 82       	std	Y+1, r1	; 0x01
    4bc8:	1a 82       	std	Y+2, r1	; 0x02
	 int j = 0;
    4bca:	1b 82       	std	Y+3, r1	; 0x03
    4bcc:	1c 82       	std	Y+4, r1	; 0x04
	 char displayLines[4][20];
	 for(int i = 0; i < 4;i++) {
    4bce:	1d 82       	std	Y+5, r1	; 0x05
    4bd0:	1e 82       	std	Y+6, r1	; 0x06
    4bd2:	26 c0       	rjmp	.+76     	; 0x4c20 <vDisplayUpdateTask+0x76>
		for(int j = 0; j < 20; j ++) {
    4bd4:	1f 82       	std	Y+7, r1	; 0x07
    4bd6:	18 86       	std	Y+8, r1	; 0x08
    4bd8:	1a c0       	rjmp	.+52     	; 0x4c0e <vDisplayUpdateTask+0x64>
			displayLines[i][j] = 0x20;
    4bda:	2d 81       	ldd	r18, Y+5	; 0x05
    4bdc:	3e 81       	ldd	r19, Y+6	; 0x06
    4bde:	44 e1       	ldi	r20, 0x14	; 20
    4be0:	42 9f       	mul	r20, r18
    4be2:	c0 01       	movw	r24, r0
    4be4:	43 9f       	mul	r20, r19
    4be6:	90 0d       	add	r25, r0
    4be8:	11 24       	eor	r1, r1
    4bea:	9e 01       	movw	r18, r28
    4bec:	2f 5f       	subi	r18, 0xFF	; 255
    4bee:	3f 4f       	sbci	r19, 0xFF	; 255
    4bf0:	28 0f       	add	r18, r24
    4bf2:	39 1f       	adc	r19, r25
    4bf4:	8f 81       	ldd	r24, Y+7	; 0x07
    4bf6:	98 85       	ldd	r25, Y+8	; 0x08
    4bf8:	82 0f       	add	r24, r18
    4bfa:	93 1f       	adc	r25, r19
    4bfc:	08 96       	adiw	r24, 0x08	; 8
    4bfe:	20 e2       	ldi	r18, 0x20	; 32
    4c00:	fc 01       	movw	r30, r24
    4c02:	20 83       	st	Z, r18
 void vDisplayUpdateTask(void *pvParameters) {
	 int i = 0;
	 int j = 0;
	 char displayLines[4][20];
	 for(int i = 0; i < 4;i++) {
		for(int j = 0; j < 20; j ++) {
    4c04:	8f 81       	ldd	r24, Y+7	; 0x07
    4c06:	98 85       	ldd	r25, Y+8	; 0x08
    4c08:	01 96       	adiw	r24, 0x01	; 1
    4c0a:	8f 83       	std	Y+7, r24	; 0x07
    4c0c:	98 87       	std	Y+8, r25	; 0x08
    4c0e:	8f 81       	ldd	r24, Y+7	; 0x07
    4c10:	98 85       	ldd	r25, Y+8	; 0x08
    4c12:	44 97       	sbiw	r24, 0x14	; 20
    4c14:	14 f3       	brlt	.-60     	; 0x4bda <vDisplayUpdateTask+0x30>

 void vDisplayUpdateTask(void *pvParameters) {
	 int i = 0;
	 int j = 0;
	 char displayLines[4][20];
	 for(int i = 0; i < 4;i++) {
    4c16:	8d 81       	ldd	r24, Y+5	; 0x05
    4c18:	9e 81       	ldd	r25, Y+6	; 0x06
    4c1a:	01 96       	adiw	r24, 0x01	; 1
    4c1c:	8d 83       	std	Y+5, r24	; 0x05
    4c1e:	9e 83       	std	Y+6, r25	; 0x06
    4c20:	8d 81       	ldd	r24, Y+5	; 0x05
    4c22:	9e 81       	ldd	r25, Y+6	; 0x06
    4c24:	04 97       	sbiw	r24, 0x04	; 4
    4c26:	b4 f2       	brlt	.-84     	; 0x4bd4 <vDisplayUpdateTask+0x2a>
			displayLines[i][j] = 0x20;
		}
	 }
	 displayLine_t newLine;

	 delayUS(40000);
    4c28:	60 e4       	ldi	r22, 0x40	; 64
    4c2a:	7c e9       	ldi	r23, 0x9C	; 156
    4c2c:	80 e0       	ldi	r24, 0x00	; 0
    4c2e:	90 e0       	ldi	r25, 0x00	; 0
    4c30:	0e 94 8c 23 	call	0x4718	; 0x4718 <delayUS>
	 setPort(0x03);
    4c34:	83 e0       	ldi	r24, 0x03	; 3
    4c36:	0e 94 15 24 	call	0x482a	; 0x482a <setPort>
	 delayUS(5000);
    4c3a:	68 e8       	ldi	r22, 0x88	; 136
    4c3c:	73 e1       	ldi	r23, 0x13	; 19
    4c3e:	80 e0       	ldi	r24, 0x00	; 0
    4c40:	90 e0       	ldi	r25, 0x00	; 0
    4c42:	0e 94 8c 23 	call	0x4718	; 0x4718 <delayUS>
	 Nybble();
    4c46:	0e 94 87 24 	call	0x490e	; 0x490e <Nybble>
	 delayUS(160);
    4c4a:	60 ea       	ldi	r22, 0xA0	; 160
    4c4c:	70 e0       	ldi	r23, 0x00	; 0
    4c4e:	80 e0       	ldi	r24, 0x00	; 0
    4c50:	90 e0       	ldi	r25, 0x00	; 0
    4c52:	0e 94 8c 23 	call	0x4718	; 0x4718 <delayUS>
	 Nybble();
    4c56:	0e 94 87 24 	call	0x490e	; 0x490e <Nybble>
	 delayUS(160);
    4c5a:	60 ea       	ldi	r22, 0xA0	; 160
    4c5c:	70 e0       	ldi	r23, 0x00	; 0
    4c5e:	80 e0       	ldi	r24, 0x00	; 0
    4c60:	90 e0       	ldi	r25, 0x00	; 0
    4c62:	0e 94 8c 23 	call	0x4718	; 0x4718 <delayUS>
	 Nybble();
    4c66:	0e 94 87 24 	call	0x490e	; 0x490e <Nybble>
	 delayUS(160);
    4c6a:	60 ea       	ldi	r22, 0xA0	; 160
    4c6c:	70 e0       	ldi	r23, 0x00	; 0
    4c6e:	80 e0       	ldi	r24, 0x00	; 0
    4c70:	90 e0       	ldi	r25, 0x00	; 0
    4c72:	0e 94 8c 23 	call	0x4718	; 0x4718 <delayUS>
	 setPort(0x02);
    4c76:	82 e0       	ldi	r24, 0x02	; 2
    4c78:	0e 94 15 24 	call	0x482a	; 0x482a <setPort>
	 Nybble();
    4c7c:	0e 94 87 24 	call	0x490e	; 0x490e <Nybble>
	 command(0x28);
    4c80:	88 e2       	ldi	r24, 0x28	; 40
    4c82:	0e 94 9b 24 	call	0x4936	; 0x4936 <command>
	 command(0x10);
    4c86:	80 e1       	ldi	r24, 0x10	; 16
    4c88:	0e 94 9b 24 	call	0x4936	; 0x4936 <command>
	 command(0x0C); //Cursor and Blinking off
    4c8c:	8c e0       	ldi	r24, 0x0C	; 12
    4c8e:	0e 94 9b 24 	call	0x4936	; 0x4936 <command>
	 command(0x06);
    4c92:	86 e0       	ldi	r24, 0x06	; 6
    4c94:	0e 94 9b 24 	call	0x4936	; 0x4936 <command>
	 
	 for(;;) {		 
		 vTaskDelay(DISPLAY_UPDATE_TIME_MS/portTICK_RATE_MS);
    4c98:	68 ec       	ldi	r22, 0xC8	; 200
    4c9a:	70 e0       	ldi	r23, 0x00	; 0
    4c9c:	80 e0       	ldi	r24, 0x00	; 0
    4c9e:	90 e0       	ldi	r25, 0x00	; 0
    4ca0:	0e 94 ad 15 	call	0x2b5a	; 0x2b5a <vTaskDelay>
		 if(xEventGroupGetBits(egDisplayTiming) && EG_DISPLAY_CLEAR != 0x00) {
    4ca4:	80 91 53 32 	lds	r24, 0x3253	; 0x803253 <egDisplayTiming>
    4ca8:	90 91 54 32 	lds	r25, 0x3254	; 0x803254 <egDisplayTiming+0x1>
    4cac:	40 e0       	ldi	r20, 0x00	; 0
    4cae:	50 e0       	ldi	r21, 0x00	; 0
    4cb0:	ba 01       	movw	r22, r20
    4cb2:	0e 94 f1 06 	call	0xde2	; 0xde2 <xEventGroupClearBits>
    4cb6:	dc 01       	movw	r26, r24
    4cb8:	cb 01       	movw	r24, r22
    4cba:	89 2b       	or	r24, r25
    4cbc:	8a 2b       	or	r24, r26
    4cbe:	8b 2b       	or	r24, r27
    4cc0:	09 f4       	brne	.+2      	; 0x4cc4 <vDisplayUpdateTask+0x11a>
    4cc2:	96 c0       	rjmp	.+300    	; 0x4df0 <vDisplayUpdateTask+0x246>
			xEventGroupClearBits(egDisplayTiming, EG_DISPLAY_CLEAR);
    4cc4:	80 91 53 32 	lds	r24, 0x3253	; 0x803253 <egDisplayTiming>
    4cc8:	90 91 54 32 	lds	r25, 0x3254	; 0x803254 <egDisplayTiming+0x1>
    4ccc:	42 e0       	ldi	r20, 0x02	; 2
    4cce:	50 e0       	ldi	r21, 0x00	; 0
    4cd0:	60 e0       	ldi	r22, 0x00	; 0
    4cd2:	70 e0       	ldi	r23, 0x00	; 0
    4cd4:	0e 94 f1 06 	call	0xde2	; 0xde2 <xEventGroupClearBits>
			for(i = 0; i < 4;i++) {
    4cd8:	19 82       	std	Y+1, r1	; 0x01
    4cda:	1a 82       	std	Y+2, r1	; 0x02
    4cdc:	26 c0       	rjmp	.+76     	; 0x4d2a <vDisplayUpdateTask+0x180>
				for(j = 0; j < 20; j ++) {
    4cde:	1b 82       	std	Y+3, r1	; 0x03
    4ce0:	1c 82       	std	Y+4, r1	; 0x04
    4ce2:	1a c0       	rjmp	.+52     	; 0x4d18 <vDisplayUpdateTask+0x16e>
					displayLines[i][j] = 0x20;
    4ce4:	29 81       	ldd	r18, Y+1	; 0x01
    4ce6:	3a 81       	ldd	r19, Y+2	; 0x02
    4ce8:	44 e1       	ldi	r20, 0x14	; 20
    4cea:	42 9f       	mul	r20, r18
    4cec:	c0 01       	movw	r24, r0
    4cee:	43 9f       	mul	r20, r19
    4cf0:	90 0d       	add	r25, r0
    4cf2:	11 24       	eor	r1, r1
    4cf4:	9e 01       	movw	r18, r28
    4cf6:	2f 5f       	subi	r18, 0xFF	; 255
    4cf8:	3f 4f       	sbci	r19, 0xFF	; 255
    4cfa:	28 0f       	add	r18, r24
    4cfc:	39 1f       	adc	r19, r25
    4cfe:	8b 81       	ldd	r24, Y+3	; 0x03
    4d00:	9c 81       	ldd	r25, Y+4	; 0x04
    4d02:	82 0f       	add	r24, r18
    4d04:	93 1f       	adc	r25, r19
    4d06:	08 96       	adiw	r24, 0x08	; 8
    4d08:	20 e2       	ldi	r18, 0x20	; 32
    4d0a:	fc 01       	movw	r30, r24
    4d0c:	20 83       	st	Z, r18
	 for(;;) {		 
		 vTaskDelay(DISPLAY_UPDATE_TIME_MS/portTICK_RATE_MS);
		 if(xEventGroupGetBits(egDisplayTiming) && EG_DISPLAY_CLEAR != 0x00) {
			xEventGroupClearBits(egDisplayTiming, EG_DISPLAY_CLEAR);
			for(i = 0; i < 4;i++) {
				for(j = 0; j < 20; j ++) {
    4d0e:	8b 81       	ldd	r24, Y+3	; 0x03
    4d10:	9c 81       	ldd	r25, Y+4	; 0x04
    4d12:	01 96       	adiw	r24, 0x01	; 1
    4d14:	8b 83       	std	Y+3, r24	; 0x03
    4d16:	9c 83       	std	Y+4, r25	; 0x04
    4d18:	8b 81       	ldd	r24, Y+3	; 0x03
    4d1a:	9c 81       	ldd	r25, Y+4	; 0x04
    4d1c:	44 97       	sbiw	r24, 0x14	; 20
    4d1e:	14 f3       	brlt	.-60     	; 0x4ce4 <vDisplayUpdateTask+0x13a>
	 
	 for(;;) {		 
		 vTaskDelay(DISPLAY_UPDATE_TIME_MS/portTICK_RATE_MS);
		 if(xEventGroupGetBits(egDisplayTiming) && EG_DISPLAY_CLEAR != 0x00) {
			xEventGroupClearBits(egDisplayTiming, EG_DISPLAY_CLEAR);
			for(i = 0; i < 4;i++) {
    4d20:	89 81       	ldd	r24, Y+1	; 0x01
    4d22:	9a 81       	ldd	r25, Y+2	; 0x02
    4d24:	01 96       	adiw	r24, 0x01	; 1
    4d26:	89 83       	std	Y+1, r24	; 0x01
    4d28:	9a 83       	std	Y+2, r25	; 0x02
    4d2a:	89 81       	ldd	r24, Y+1	; 0x01
    4d2c:	9a 81       	ldd	r25, Y+2	; 0x02
    4d2e:	04 97       	sbiw	r24, 0x04	; 4
    4d30:	b4 f2       	brlt	.-84     	; 0x4cde <vDisplayUpdateTask+0x134>
				for(j = 0; j < 20; j ++) {
					displayLines[i][j] = 0x20;
				}
			}
		 }
		 while(uxQueueMessagesWaiting(displayLineQueue) > 0) {
    4d32:	5e c0       	rjmp	.+188    	; 0x4df0 <vDisplayUpdateTask+0x246>
			 if(xQueueReceive(displayLineQueue, &newLine, portMAX_DELAY)) {	
    4d34:	80 91 51 32 	lds	r24, 0x3251	; 0x803251 <displayLineQueue>
    4d38:	90 91 52 32 	lds	r25, 0x3252	; 0x803252 <displayLineQueue+0x1>
    4d3c:	be 01       	movw	r22, r28
    4d3e:	67 5a       	subi	r22, 0xA7	; 167
    4d40:	7f 4f       	sbci	r23, 0xFF	; 255
    4d42:	2f ef       	ldi	r18, 0xFF	; 255
    4d44:	3f ef       	ldi	r19, 0xFF	; 255
    4d46:	a9 01       	movw	r20, r18
    4d48:	0e 94 49 10 	call	0x2092	; 0x2092 <xQueueReceive>
    4d4c:	88 23       	and	r24, r24
    4d4e:	09 f4       	brne	.+2      	; 0x4d52 <vDisplayUpdateTask+0x1a8>
    4d50:	4f c0       	rjmp	.+158    	; 0x4df0 <vDisplayUpdateTask+0x246>
				i=0;			
    4d52:	19 82       	std	Y+1, r1	; 0x01
    4d54:	1a 82       	std	Y+2, r1	; 0x02
				while((i+newLine.displayPos < 20) && (newLine.displayBuffer[i] != 0x00)) {				
    4d56:	32 c0       	rjmp	.+100    	; 0x4dbc <vDisplayUpdateTask+0x212>
					displayLines[newLine.displayLine][i+newLine.displayPos] = newLine.displayBuffer[i];
    4d58:	ce 01       	movw	r24, r28
    4d5a:	87 5a       	subi	r24, 0xA7	; 167
    4d5c:	9f 4f       	sbci	r25, 0xFF	; 255
    4d5e:	fc 01       	movw	r30, r24
    4d60:	80 81       	ld	r24, Z
    4d62:	48 2f       	mov	r20, r24
    4d64:	50 e0       	ldi	r21, 0x00	; 0
    4d66:	ce 01       	movw	r24, r28
    4d68:	87 5a       	subi	r24, 0xA7	; 167
    4d6a:	9f 4f       	sbci	r25, 0xFF	; 255
    4d6c:	fc 01       	movw	r30, r24
    4d6e:	81 81       	ldd	r24, Z+1	; 0x01
    4d70:	28 2f       	mov	r18, r24
    4d72:	30 e0       	ldi	r19, 0x00	; 0
    4d74:	89 81       	ldd	r24, Y+1	; 0x01
    4d76:	9a 81       	ldd	r25, Y+2	; 0x02
    4d78:	82 0f       	add	r24, r18
    4d7a:	93 1f       	adc	r25, r19
    4d7c:	be 01       	movw	r22, r28
    4d7e:	67 5a       	subi	r22, 0xA7	; 167
    4d80:	7f 4f       	sbci	r23, 0xFF	; 255
    4d82:	29 81       	ldd	r18, Y+1	; 0x01
    4d84:	3a 81       	ldd	r19, Y+2	; 0x02
    4d86:	26 0f       	add	r18, r22
    4d88:	37 1f       	adc	r19, r23
    4d8a:	2e 5f       	subi	r18, 0xFE	; 254
    4d8c:	3f 4f       	sbci	r19, 0xFF	; 255
    4d8e:	f9 01       	movw	r30, r18
    4d90:	60 81       	ld	r22, Z
    4d92:	74 e1       	ldi	r23, 0x14	; 20
    4d94:	74 9f       	mul	r23, r20
    4d96:	90 01       	movw	r18, r0
    4d98:	75 9f       	mul	r23, r21
    4d9a:	30 0d       	add	r19, r0
    4d9c:	11 24       	eor	r1, r1
    4d9e:	ae 01       	movw	r20, r28
    4da0:	4f 5f       	subi	r20, 0xFF	; 255
    4da2:	5f 4f       	sbci	r21, 0xFF	; 255
    4da4:	24 0f       	add	r18, r20
    4da6:	35 1f       	adc	r19, r21
    4da8:	82 0f       	add	r24, r18
    4daa:	93 1f       	adc	r25, r19
    4dac:	08 96       	adiw	r24, 0x08	; 8
    4dae:	fc 01       	movw	r30, r24
    4db0:	60 83       	st	Z, r22
					i++;
    4db2:	89 81       	ldd	r24, Y+1	; 0x01
    4db4:	9a 81       	ldd	r25, Y+2	; 0x02
    4db6:	01 96       	adiw	r24, 0x01	; 1
    4db8:	89 83       	std	Y+1, r24	; 0x01
    4dba:	9a 83       	std	Y+2, r25	; 0x02
			}
		 }
		 while(uxQueueMessagesWaiting(displayLineQueue) > 0) {
			 if(xQueueReceive(displayLineQueue, &newLine, portMAX_DELAY)) {	
				i=0;			
				while((i+newLine.displayPos < 20) && (newLine.displayBuffer[i] != 0x00)) {				
    4dbc:	ce 01       	movw	r24, r28
    4dbe:	87 5a       	subi	r24, 0xA7	; 167
    4dc0:	9f 4f       	sbci	r25, 0xFF	; 255
    4dc2:	fc 01       	movw	r30, r24
    4dc4:	81 81       	ldd	r24, Z+1	; 0x01
    4dc6:	28 2f       	mov	r18, r24
    4dc8:	30 e0       	ldi	r19, 0x00	; 0
    4dca:	89 81       	ldd	r24, Y+1	; 0x01
    4dcc:	9a 81       	ldd	r25, Y+2	; 0x02
    4dce:	82 0f       	add	r24, r18
    4dd0:	93 1f       	adc	r25, r19
    4dd2:	44 97       	sbiw	r24, 0x14	; 20
    4dd4:	6c f4       	brge	.+26     	; 0x4df0 <vDisplayUpdateTask+0x246>
    4dd6:	9e 01       	movw	r18, r28
    4dd8:	27 5a       	subi	r18, 0xA7	; 167
    4dda:	3f 4f       	sbci	r19, 0xFF	; 255
    4ddc:	89 81       	ldd	r24, Y+1	; 0x01
    4dde:	9a 81       	ldd	r25, Y+2	; 0x02
    4de0:	82 0f       	add	r24, r18
    4de2:	93 1f       	adc	r25, r19
    4de4:	02 96       	adiw	r24, 0x02	; 2
    4de6:	fc 01       	movw	r30, r24
    4de8:	80 81       	ld	r24, Z
    4dea:	88 23       	and	r24, r24
    4dec:	09 f0       	breq	.+2      	; 0x4df0 <vDisplayUpdateTask+0x246>
    4dee:	b4 cf       	rjmp	.-152    	; 0x4d58 <vDisplayUpdateTask+0x1ae>
				for(j = 0; j < 20; j ++) {
					displayLines[i][j] = 0x20;
				}
			}
		 }
		 while(uxQueueMessagesWaiting(displayLineQueue) > 0) {
    4df0:	80 91 51 32 	lds	r24, 0x3251	; 0x803251 <displayLineQueue>
    4df4:	90 91 52 32 	lds	r25, 0x3252	; 0x803252 <displayLineQueue+0x1>
    4df8:	0e 94 c0 11 	call	0x2380	; 0x2380 <uxQueueMessagesWaiting>
    4dfc:	88 23       	and	r24, r24
    4dfe:	09 f0       	breq	.+2      	; 0x4e02 <vDisplayUpdateTask+0x258>
    4e00:	99 cf       	rjmp	.-206    	; 0x4d34 <vDisplayUpdateTask+0x18a>
					displayLines[newLine.displayLine][i+newLine.displayPos] = newLine.displayBuffer[i];
					i++;
				}
			 }
		 }
		 for(i = 0; i < 4; i++) {
    4e02:	19 82       	std	Y+1, r1	; 0x01
    4e04:	1a 82       	std	Y+2, r1	; 0x02
    4e06:	19 c0       	rjmp	.+50     	; 0x4e3a <vDisplayUpdateTask+0x290>
			 _displayWriteStringAtPos(i,0,&displayLines[i][0]);
    4e08:	9e 01       	movw	r18, r28
    4e0a:	27 5f       	subi	r18, 0xF7	; 247
    4e0c:	3f 4f       	sbci	r19, 0xFF	; 255
    4e0e:	49 81       	ldd	r20, Y+1	; 0x01
    4e10:	5a 81       	ldd	r21, Y+2	; 0x02
    4e12:	64 e1       	ldi	r22, 0x14	; 20
    4e14:	64 9f       	mul	r22, r20
    4e16:	c0 01       	movw	r24, r0
    4e18:	65 9f       	mul	r22, r21
    4e1a:	90 0d       	add	r25, r0
    4e1c:	11 24       	eor	r1, r1
    4e1e:	28 0f       	add	r18, r24
    4e20:	39 1f       	adc	r19, r25
    4e22:	89 81       	ldd	r24, Y+1	; 0x01
    4e24:	9a 81       	ldd	r25, Y+2	; 0x02
    4e26:	a9 01       	movw	r20, r18
    4e28:	60 e0       	ldi	r22, 0x00	; 0
    4e2a:	70 e0       	ldi	r23, 0x00	; 0
    4e2c:	0e 94 b7 25 	call	0x4b6e	; 0x4b6e <_displayWriteStringAtPos>
					displayLines[newLine.displayLine][i+newLine.displayPos] = newLine.displayBuffer[i];
					i++;
				}
			 }
		 }
		 for(i = 0; i < 4; i++) {
    4e30:	89 81       	ldd	r24, Y+1	; 0x01
    4e32:	9a 81       	ldd	r25, Y+2	; 0x02
    4e34:	01 96       	adiw	r24, 0x01	; 1
    4e36:	89 83       	std	Y+1, r24	; 0x01
    4e38:	9a 83       	std	Y+2, r25	; 0x02
    4e3a:	89 81       	ldd	r24, Y+1	; 0x01
    4e3c:	9a 81       	ldd	r25, Y+2	; 0x02
    4e3e:	04 97       	sbiw	r24, 0x04	; 4
    4e40:	1c f3       	brlt	.-58     	; 0x4e08 <vDisplayUpdateTask+0x25e>
			 _displayWriteStringAtPos(i,0,&displayLines[i][0]);
		 }
	 }
    4e42:	2a cf       	rjmp	.-428    	; 0x4c98 <vDisplayUpdateTask+0xee>

00004e44 <vDisplayClear>:
 }
 

void vDisplayClear() {
    4e44:	cf 93       	push	r28
    4e46:	df 93       	push	r29
    4e48:	cd b7       	in	r28, 0x3d	; 61
    4e4a:	de b7       	in	r29, 0x3e	; 62
	xEventGroupSetBits(egDisplayTiming, EG_DISPLAY_CLEAR);
    4e4c:	80 91 53 32 	lds	r24, 0x3253	; 0x803253 <egDisplayTiming>
    4e50:	90 91 54 32 	lds	r25, 0x3254	; 0x803254 <egDisplayTiming+0x1>
    4e54:	42 e0       	ldi	r20, 0x02	; 2
    4e56:	50 e0       	ldi	r21, 0x00	; 0
    4e58:	60 e0       	ldi	r22, 0x00	; 0
    4e5a:	70 e0       	ldi	r23, 0x00	; 0
    4e5c:	0e 94 3c 07 	call	0xe78	; 0xe78 <xEventGroupSetBits>
}
    4e60:	00 00       	nop
    4e62:	df 91       	pop	r29
    4e64:	cf 91       	pop	r28
    4e66:	08 95       	ret

00004e68 <vDisplayWriteStringAtPos>:

void vDisplayWriteStringAtPos(int line, int pos, char const *fmt, ...) {
    4e68:	cf 93       	push	r28
    4e6a:	df 93       	push	r29
    4e6c:	1f 92       	push	r1
    4e6e:	1f 92       	push	r1
    4e70:	cd b7       	in	r28, 0x3d	; 61
    4e72:	de b7       	in	r29, 0x3e	; 62
	va_list arg;	
	va_start(arg, fmt);
    4e74:	ce 01       	movw	r24, r28
    4e76:	0e 96       	adiw	r24, 0x0e	; 14
    4e78:	89 83       	std	Y+1, r24	; 0x01
    4e7a:	9a 83       	std	Y+2, r25	; 0x02
	display_vprintf(line, pos, fmt, arg);
    4e7c:	29 81       	ldd	r18, Y+1	; 0x01
    4e7e:	3a 81       	ldd	r19, Y+2	; 0x02
    4e80:	4c 85       	ldd	r20, Y+12	; 0x0c
    4e82:	5d 85       	ldd	r21, Y+13	; 0x0d
    4e84:	6a 85       	ldd	r22, Y+10	; 0x0a
    4e86:	7b 85       	ldd	r23, Y+11	; 0x0b
    4e88:	88 85       	ldd	r24, Y+8	; 0x08
    4e8a:	99 85       	ldd	r25, Y+9	; 0x09
    4e8c:	0e 94 4e 27 	call	0x4e9c	; 0x4e9c <display_vprintf>
	va_end(arg);	
}
    4e90:	00 00       	nop
    4e92:	0f 90       	pop	r0
    4e94:	0f 90       	pop	r0
    4e96:	df 91       	pop	r29
    4e98:	cf 91       	pop	r28
    4e9a:	08 95       	ret

00004e9c <display_vprintf>:
 
static int display_vprintf(int line, int pos, char const *fmt, va_list arg) {
    4e9c:	0f 93       	push	r16
    4e9e:	cf 93       	push	r28
    4ea0:	df 93       	push	r29
    4ea2:	cd b7       	in	r28, 0x3d	; 61
    4ea4:	de b7       	in	r29, 0x3e	; 62
    4ea6:	ec 97       	sbiw	r28, 0x3c	; 60
    4ea8:	cd bf       	out	0x3d, r28	; 61
    4eaa:	de bf       	out	0x3e, r29	; 62
    4eac:	8d ab       	std	Y+53, r24	; 0x35
    4eae:	9e ab       	std	Y+54, r25	; 0x36
    4eb0:	6f ab       	std	Y+55, r22	; 0x37
    4eb2:	78 af       	std	Y+56, r23	; 0x38
    4eb4:	49 af       	std	Y+57, r20	; 0x39
    4eb6:	5a af       	std	Y+58, r21	; 0x3a
    4eb8:	2b af       	std	Y+59, r18	; 0x3b
    4eba:	3c af       	std	Y+60, r19	; 0x3c
	int int_temp;
	char char_temp;
	char *string_temp;
	double double_temp;
	char ch;
	int length = 0;
    4ebc:	19 82       	std	Y+1, r1	; 0x01
    4ebe:	1a 82       	std	Y+2, r1	; 0x02

	static char buffer[20];
	static char str[20];
	for(int i = 0; i < 20; i++) {
    4ec0:	1b 82       	std	Y+3, r1	; 0x03
    4ec2:	1c 82       	std	Y+4, r1	; 0x04
    4ec4:	0b c0       	rjmp	.+22     	; 0x4edc <display_vprintf+0x40>
		buffer[i] = 0x00;
    4ec6:	8b 81       	ldd	r24, Y+3	; 0x03
    4ec8:	9c 81       	ldd	r25, Y+4	; 0x04
    4eca:	8e 51       	subi	r24, 0x1E	; 30
    4ecc:	93 4d       	sbci	r25, 0xD3	; 211
    4ece:	fc 01       	movw	r30, r24
    4ed0:	10 82       	st	Z, r1
	char ch;
	int length = 0;

	static char buffer[20];
	static char str[20];
	for(int i = 0; i < 20; i++) {
    4ed2:	8b 81       	ldd	r24, Y+3	; 0x03
    4ed4:	9c 81       	ldd	r25, Y+4	; 0x04
    4ed6:	01 96       	adiw	r24, 0x01	; 1
    4ed8:	8b 83       	std	Y+3, r24	; 0x03
    4eda:	9c 83       	std	Y+4, r25	; 0x04
    4edc:	8b 81       	ldd	r24, Y+3	; 0x03
    4ede:	9c 81       	ldd	r25, Y+4	; 0x04
    4ee0:	44 97       	sbiw	r24, 0x14	; 20
    4ee2:	8c f3       	brlt	.-30     	; 0x4ec6 <display_vprintf+0x2a>
		buffer[i] = 0x00;
	}
	for(int i = 0; i < 20; i++) {
    4ee4:	1d 82       	std	Y+5, r1	; 0x05
    4ee6:	1e 82       	std	Y+6, r1	; 0x06
    4ee8:	0b c0       	rjmp	.+22     	; 0x4f00 <display_vprintf+0x64>
		str[i] = 0x00;
    4eea:	8d 81       	ldd	r24, Y+5	; 0x05
    4eec:	9e 81       	ldd	r25, Y+6	; 0x06
    4eee:	8a 50       	subi	r24, 0x0A	; 10
    4ef0:	93 4d       	sbci	r25, 0xD3	; 211
    4ef2:	fc 01       	movw	r30, r24
    4ef4:	10 82       	st	Z, r1
	static char buffer[20];
	static char str[20];
	for(int i = 0; i < 20; i++) {
		buffer[i] = 0x00;
	}
	for(int i = 0; i < 20; i++) {
    4ef6:	8d 81       	ldd	r24, Y+5	; 0x05
    4ef8:	9e 81       	ldd	r25, Y+6	; 0x06
    4efa:	01 96       	adiw	r24, 0x01	; 1
    4efc:	8d 83       	std	Y+5, r24	; 0x05
    4efe:	9e 83       	std	Y+6, r25	; 0x06
    4f00:	8d 81       	ldd	r24, Y+5	; 0x05
    4f02:	9e 81       	ldd	r25, Y+6	; 0x06
    4f04:	44 97       	sbiw	r24, 0x14	; 20
    4f06:	8c f3       	brlt	.-30     	; 0x4eea <display_vprintf+0x4e>
		str[i] = 0x00;
	}
	while ((ch = *fmt++)!=false) {
    4f08:	be c1       	rjmp	.+892    	; 0x5286 <display_vprintf+0x3ea>
		if ( '%' == ch ) {
    4f0a:	8d 89       	ldd	r24, Y+21	; 0x15
    4f0c:	85 32       	cpi	r24, 0x25	; 37
    4f0e:	09 f0       	breq	.+2      	; 0x4f12 <display_vprintf+0x76>
    4f10:	a0 c1       	rjmp	.+832    	; 0x5252 <display_vprintf+0x3b6>
			switch (ch = *fmt++) {
    4f12:	89 ad       	ldd	r24, Y+57	; 0x39
    4f14:	9a ad       	ldd	r25, Y+58	; 0x3a
    4f16:	9c 01       	movw	r18, r24
    4f18:	2f 5f       	subi	r18, 0xFF	; 255
    4f1a:	3f 4f       	sbci	r19, 0xFF	; 255
    4f1c:	29 af       	std	Y+57, r18	; 0x39
    4f1e:	3a af       	std	Y+58, r19	; 0x3a
    4f20:	fc 01       	movw	r30, r24
    4f22:	80 81       	ld	r24, Z
    4f24:	8d 8b       	std	Y+21, r24	; 0x15
    4f26:	8d 89       	ldd	r24, Y+21	; 0x15
    4f28:	88 2f       	mov	r24, r24
    4f2a:	90 e0       	ldi	r25, 0x00	; 0
    4f2c:	85 36       	cpi	r24, 0x65	; 101
    4f2e:	91 05       	cpc	r25, r1
    4f30:	09 f4       	brne	.+2      	; 0x4f34 <display_vprintf+0x98>
    4f32:	46 c1       	rjmp	.+652    	; 0x51c0 <display_vprintf+0x324>
    4f34:	86 36       	cpi	r24, 0x66	; 102
    4f36:	91 05       	cpc	r25, r1
    4f38:	54 f4       	brge	.+20     	; 0x4f4e <display_vprintf+0xb2>
    4f3a:	83 36       	cpi	r24, 0x63	; 99
    4f3c:	91 05       	cpc	r25, r1
    4f3e:	01 f1       	breq	.+64     	; 0x4f80 <display_vprintf+0xe4>
    4f40:	84 36       	cpi	r24, 0x64	; 100
    4f42:	91 05       	cpc	r25, r1
    4f44:	0c f0       	brlt	.+2      	; 0x4f48 <display_vprintf+0xac>
    4f46:	70 c0       	rjmp	.+224    	; 0x5028 <display_vprintf+0x18c>
    4f48:	85 97       	sbiw	r24, 0x25	; 37
    4f4a:	69 f0       	breq	.+26     	; 0x4f66 <display_vprintf+0xca>
    4f4c:	9c c1       	rjmp	.+824    	; 0x5286 <display_vprintf+0x3ea>
    4f4e:	83 37       	cpi	r24, 0x73	; 115
    4f50:	91 05       	cpc	r25, r1
    4f52:	71 f1       	breq	.+92     	; 0x4fb0 <display_vprintf+0x114>
    4f54:	88 37       	cpi	r24, 0x78	; 120
    4f56:	91 05       	cpc	r25, r1
    4f58:	09 f4       	brne	.+2      	; 0x4f5c <display_vprintf+0xc0>
    4f5a:	a8 c0       	rjmp	.+336    	; 0x50ac <display_vprintf+0x210>
    4f5c:	86 36       	cpi	r24, 0x66	; 102
    4f5e:	91 05       	cpc	r25, r1
    4f60:	09 f4       	brne	.+2      	; 0x4f64 <display_vprintf+0xc8>
    4f62:	e6 c0       	rjmp	.+460    	; 0x5130 <display_vprintf+0x294>
    4f64:	90 c1       	rjmp	.+800    	; 0x5286 <display_vprintf+0x3ea>
				/* %% - print out a single %    */
				case '%':
				str[length] = '%';
    4f66:	89 81       	ldd	r24, Y+1	; 0x01
    4f68:	9a 81       	ldd	r25, Y+2	; 0x02
    4f6a:	8a 50       	subi	r24, 0x0A	; 10
    4f6c:	93 4d       	sbci	r25, 0xD3	; 211
    4f6e:	25 e2       	ldi	r18, 0x25	; 37
    4f70:	fc 01       	movw	r30, r24
    4f72:	20 83       	st	Z, r18
				length++;
    4f74:	89 81       	ldd	r24, Y+1	; 0x01
    4f76:	9a 81       	ldd	r25, Y+2	; 0x02
    4f78:	01 96       	adiw	r24, 0x01	; 1
    4f7a:	89 83       	std	Y+1, r24	; 0x01
    4f7c:	9a 83       	std	Y+2, r25	; 0x02
				break;
    4f7e:	83 c1       	rjmp	.+774    	; 0x5286 <display_vprintf+0x3ea>

				/* %c: print out a character    */
				case 'c':
				char_temp = va_arg(arg, int);
    4f80:	8b ad       	ldd	r24, Y+59	; 0x3b
    4f82:	9c ad       	ldd	r25, Y+60	; 0x3c
    4f84:	9c 01       	movw	r18, r24
    4f86:	2e 5f       	subi	r18, 0xFE	; 254
    4f88:	3f 4f       	sbci	r19, 0xFF	; 255
    4f8a:	2b af       	std	Y+59, r18	; 0x3b
    4f8c:	3c af       	std	Y+60, r19	; 0x3c
    4f8e:	fc 01       	movw	r30, r24
    4f90:	80 81       	ld	r24, Z
    4f92:	91 81       	ldd	r25, Z+1	; 0x01
    4f94:	8e 8b       	std	Y+22, r24	; 0x16
				str[length] = char_temp;
    4f96:	89 81       	ldd	r24, Y+1	; 0x01
    4f98:	9a 81       	ldd	r25, Y+2	; 0x02
    4f9a:	8a 50       	subi	r24, 0x0A	; 10
    4f9c:	93 4d       	sbci	r25, 0xD3	; 211
    4f9e:	2e 89       	ldd	r18, Y+22	; 0x16
    4fa0:	fc 01       	movw	r30, r24
    4fa2:	20 83       	st	Z, r18
				length++;
    4fa4:	89 81       	ldd	r24, Y+1	; 0x01
    4fa6:	9a 81       	ldd	r25, Y+2	; 0x02
    4fa8:	01 96       	adiw	r24, 0x01	; 1
    4faa:	89 83       	std	Y+1, r24	; 0x01
    4fac:	9a 83       	std	Y+2, r25	; 0x02
				break;
    4fae:	6b c1       	rjmp	.+726    	; 0x5286 <display_vprintf+0x3ea>

				/* %s: print out a string       */
				case 's':
				string_temp = va_arg(arg, char *);
    4fb0:	8b ad       	ldd	r24, Y+59	; 0x3b
    4fb2:	9c ad       	ldd	r25, Y+60	; 0x3c
    4fb4:	9c 01       	movw	r18, r24
    4fb6:	2e 5f       	subi	r18, 0xFE	; 254
    4fb8:	3f 4f       	sbci	r19, 0xFF	; 255
    4fba:	2b af       	std	Y+59, r18	; 0x3b
    4fbc:	3c af       	std	Y+60, r19	; 0x3c
    4fbe:	fc 01       	movw	r30, r24
    4fc0:	80 81       	ld	r24, Z
    4fc2:	91 81       	ldd	r25, Z+1	; 0x01
    4fc4:	8f 8b       	std	Y+23, r24	; 0x17
    4fc6:	98 8f       	std	Y+24, r25	; 0x18
				for(int i = 0; i < strlen(string_temp);i++) {
    4fc8:	1f 82       	std	Y+7, r1	; 0x07
    4fca:	18 86       	std	Y+8, r1	; 0x08
    4fcc:	17 c0       	rjmp	.+46     	; 0x4ffc <display_vprintf+0x160>
					str[length+i] = string_temp[i];
    4fce:	29 81       	ldd	r18, Y+1	; 0x01
    4fd0:	3a 81       	ldd	r19, Y+2	; 0x02
    4fd2:	8f 81       	ldd	r24, Y+7	; 0x07
    4fd4:	98 85       	ldd	r25, Y+8	; 0x08
    4fd6:	82 0f       	add	r24, r18
    4fd8:	93 1f       	adc	r25, r19
    4fda:	2f 81       	ldd	r18, Y+7	; 0x07
    4fdc:	38 85       	ldd	r19, Y+8	; 0x08
    4fde:	4f 89       	ldd	r20, Y+23	; 0x17
    4fe0:	58 8d       	ldd	r21, Y+24	; 0x18
    4fe2:	24 0f       	add	r18, r20
    4fe4:	35 1f       	adc	r19, r21
    4fe6:	f9 01       	movw	r30, r18
    4fe8:	20 81       	ld	r18, Z
    4fea:	8a 50       	subi	r24, 0x0A	; 10
    4fec:	93 4d       	sbci	r25, 0xD3	; 211
    4fee:	fc 01       	movw	r30, r24
    4ff0:	20 83       	st	Z, r18
				break;

				/* %s: print out a string       */
				case 's':
				string_temp = va_arg(arg, char *);
				for(int i = 0; i < strlen(string_temp);i++) {
    4ff2:	8f 81       	ldd	r24, Y+7	; 0x07
    4ff4:	98 85       	ldd	r25, Y+8	; 0x08
    4ff6:	01 96       	adiw	r24, 0x01	; 1
    4ff8:	8f 83       	std	Y+7, r24	; 0x07
    4ffa:	98 87       	std	Y+8, r25	; 0x08
    4ffc:	8f 89       	ldd	r24, Y+23	; 0x17
    4ffe:	98 8d       	ldd	r25, Y+24	; 0x18
    5000:	0e 94 e2 34 	call	0x69c4	; 0x69c4 <strlen>
    5004:	9c 01       	movw	r18, r24
    5006:	8f 81       	ldd	r24, Y+7	; 0x07
    5008:	98 85       	ldd	r25, Y+8	; 0x08
    500a:	82 17       	cp	r24, r18
    500c:	93 07       	cpc	r25, r19
    500e:	f8 f2       	brcs	.-66     	; 0x4fce <display_vprintf+0x132>
					str[length+i] = string_temp[i];
				}
				length += strlen(string_temp);
    5010:	8f 89       	ldd	r24, Y+23	; 0x17
    5012:	98 8d       	ldd	r25, Y+24	; 0x18
    5014:	0e 94 e2 34 	call	0x69c4	; 0x69c4 <strlen>
    5018:	9c 01       	movw	r18, r24
    501a:	89 81       	ldd	r24, Y+1	; 0x01
    501c:	9a 81       	ldd	r25, Y+2	; 0x02
    501e:	82 0f       	add	r24, r18
    5020:	93 1f       	adc	r25, r19
    5022:	89 83       	std	Y+1, r24	; 0x01
    5024:	9a 83       	std	Y+2, r25	; 0x02
				break;
    5026:	2f c1       	rjmp	.+606    	; 0x5286 <display_vprintf+0x3ea>

				/* %d: print out an int         */
				case 'd':
				int_temp = va_arg(arg, int);
    5028:	8b ad       	ldd	r24, Y+59	; 0x3b
    502a:	9c ad       	ldd	r25, Y+60	; 0x3c
    502c:	9c 01       	movw	r18, r24
    502e:	2e 5f       	subi	r18, 0xFE	; 254
    5030:	3f 4f       	sbci	r19, 0xFF	; 255
    5032:	2b af       	std	Y+59, r18	; 0x3b
    5034:	3c af       	std	Y+60, r19	; 0x3c
    5036:	fc 01       	movw	r30, r24
    5038:	80 81       	ld	r24, Z
    503a:	91 81       	ldd	r25, Z+1	; 0x01
    503c:	89 8f       	std	Y+25, r24	; 0x19
    503e:	9a 8f       	std	Y+26, r25	; 0x1a
				itoa(int_temp, buffer, 10);
    5040:	89 8d       	ldd	r24, Y+25	; 0x19
    5042:	9a 8d       	ldd	r25, Y+26	; 0x1a
    5044:	4a e0       	ldi	r20, 0x0A	; 10
    5046:	50 e0       	ldi	r21, 0x00	; 0
    5048:	62 ee       	ldi	r22, 0xE2	; 226
    504a:	7c e2       	ldi	r23, 0x2C	; 44
    504c:	0e 94 eb 34 	call	0x69d6	; 0x69d6 <itoa>
				for(int i = 0; i < strlen(buffer);i++) {
    5050:	19 86       	std	Y+9, r1	; 0x09
    5052:	1a 86       	std	Y+10, r1	; 0x0a
    5054:	15 c0       	rjmp	.+42     	; 0x5080 <display_vprintf+0x1e4>
					str[length+i] = buffer[i];
    5056:	29 81       	ldd	r18, Y+1	; 0x01
    5058:	3a 81       	ldd	r19, Y+2	; 0x02
    505a:	89 85       	ldd	r24, Y+9	; 0x09
    505c:	9a 85       	ldd	r25, Y+10	; 0x0a
    505e:	82 0f       	add	r24, r18
    5060:	93 1f       	adc	r25, r19
    5062:	29 85       	ldd	r18, Y+9	; 0x09
    5064:	3a 85       	ldd	r19, Y+10	; 0x0a
    5066:	2e 51       	subi	r18, 0x1E	; 30
    5068:	33 4d       	sbci	r19, 0xD3	; 211
    506a:	f9 01       	movw	r30, r18
    506c:	20 81       	ld	r18, Z
    506e:	8a 50       	subi	r24, 0x0A	; 10
    5070:	93 4d       	sbci	r25, 0xD3	; 211
    5072:	fc 01       	movw	r30, r24
    5074:	20 83       	st	Z, r18

				/* %d: print out an int         */
				case 'd':
				int_temp = va_arg(arg, int);
				itoa(int_temp, buffer, 10);
				for(int i = 0; i < strlen(buffer);i++) {
    5076:	89 85       	ldd	r24, Y+9	; 0x09
    5078:	9a 85       	ldd	r25, Y+10	; 0x0a
    507a:	01 96       	adiw	r24, 0x01	; 1
    507c:	89 87       	std	Y+9, r24	; 0x09
    507e:	9a 87       	std	Y+10, r25	; 0x0a
    5080:	82 ee       	ldi	r24, 0xE2	; 226
    5082:	9c e2       	ldi	r25, 0x2C	; 44
    5084:	0e 94 e2 34 	call	0x69c4	; 0x69c4 <strlen>
    5088:	9c 01       	movw	r18, r24
    508a:	89 85       	ldd	r24, Y+9	; 0x09
    508c:	9a 85       	ldd	r25, Y+10	; 0x0a
    508e:	82 17       	cp	r24, r18
    5090:	93 07       	cpc	r25, r19
    5092:	08 f3       	brcs	.-62     	; 0x5056 <display_vprintf+0x1ba>
					str[length+i] = buffer[i];
				}
				length += strlen(buffer);
    5094:	82 ee       	ldi	r24, 0xE2	; 226
    5096:	9c e2       	ldi	r25, 0x2C	; 44
    5098:	0e 94 e2 34 	call	0x69c4	; 0x69c4 <strlen>
    509c:	9c 01       	movw	r18, r24
    509e:	89 81       	ldd	r24, Y+1	; 0x01
    50a0:	9a 81       	ldd	r25, Y+2	; 0x02
    50a2:	82 0f       	add	r24, r18
    50a4:	93 1f       	adc	r25, r19
    50a6:	89 83       	std	Y+1, r24	; 0x01
    50a8:	9a 83       	std	Y+2, r25	; 0x02
				break;
    50aa:	ed c0       	rjmp	.+474    	; 0x5286 <display_vprintf+0x3ea>

				/* %x: print out an int in hex  */
				case 'x':
				int_temp = va_arg(arg, int);
    50ac:	8b ad       	ldd	r24, Y+59	; 0x3b
    50ae:	9c ad       	ldd	r25, Y+60	; 0x3c
    50b0:	9c 01       	movw	r18, r24
    50b2:	2e 5f       	subi	r18, 0xFE	; 254
    50b4:	3f 4f       	sbci	r19, 0xFF	; 255
    50b6:	2b af       	std	Y+59, r18	; 0x3b
    50b8:	3c af       	std	Y+60, r19	; 0x3c
    50ba:	fc 01       	movw	r30, r24
    50bc:	80 81       	ld	r24, Z
    50be:	91 81       	ldd	r25, Z+1	; 0x01
    50c0:	89 8f       	std	Y+25, r24	; 0x19
    50c2:	9a 8f       	std	Y+26, r25	; 0x1a
				itoa(int_temp, buffer, 16);
    50c4:	89 8d       	ldd	r24, Y+25	; 0x19
    50c6:	9a 8d       	ldd	r25, Y+26	; 0x1a
    50c8:	40 e1       	ldi	r20, 0x10	; 16
    50ca:	50 e0       	ldi	r21, 0x00	; 0
    50cc:	62 ee       	ldi	r22, 0xE2	; 226
    50ce:	7c e2       	ldi	r23, 0x2C	; 44
    50d0:	0e 94 eb 34 	call	0x69d6	; 0x69d6 <itoa>
				for(int i = 0; i < strlen(buffer);i++) {
    50d4:	1b 86       	std	Y+11, r1	; 0x0b
    50d6:	1c 86       	std	Y+12, r1	; 0x0c
    50d8:	15 c0       	rjmp	.+42     	; 0x5104 <display_vprintf+0x268>
					str[length+i] = buffer[i];
    50da:	29 81       	ldd	r18, Y+1	; 0x01
    50dc:	3a 81       	ldd	r19, Y+2	; 0x02
    50de:	8b 85       	ldd	r24, Y+11	; 0x0b
    50e0:	9c 85       	ldd	r25, Y+12	; 0x0c
    50e2:	82 0f       	add	r24, r18
    50e4:	93 1f       	adc	r25, r19
    50e6:	2b 85       	ldd	r18, Y+11	; 0x0b
    50e8:	3c 85       	ldd	r19, Y+12	; 0x0c
    50ea:	2e 51       	subi	r18, 0x1E	; 30
    50ec:	33 4d       	sbci	r19, 0xD3	; 211
    50ee:	f9 01       	movw	r30, r18
    50f0:	20 81       	ld	r18, Z
    50f2:	8a 50       	subi	r24, 0x0A	; 10
    50f4:	93 4d       	sbci	r25, 0xD3	; 211
    50f6:	fc 01       	movw	r30, r24
    50f8:	20 83       	st	Z, r18

				/* %x: print out an int in hex  */
				case 'x':
				int_temp = va_arg(arg, int);
				itoa(int_temp, buffer, 16);
				for(int i = 0; i < strlen(buffer);i++) {
    50fa:	8b 85       	ldd	r24, Y+11	; 0x0b
    50fc:	9c 85       	ldd	r25, Y+12	; 0x0c
    50fe:	01 96       	adiw	r24, 0x01	; 1
    5100:	8b 87       	std	Y+11, r24	; 0x0b
    5102:	9c 87       	std	Y+12, r25	; 0x0c
    5104:	82 ee       	ldi	r24, 0xE2	; 226
    5106:	9c e2       	ldi	r25, 0x2C	; 44
    5108:	0e 94 e2 34 	call	0x69c4	; 0x69c4 <strlen>
    510c:	9c 01       	movw	r18, r24
    510e:	8b 85       	ldd	r24, Y+11	; 0x0b
    5110:	9c 85       	ldd	r25, Y+12	; 0x0c
    5112:	82 17       	cp	r24, r18
    5114:	93 07       	cpc	r25, r19
    5116:	08 f3       	brcs	.-62     	; 0x50da <display_vprintf+0x23e>
					str[length+i] = buffer[i];
				}
				length += strlen(buffer);
    5118:	82 ee       	ldi	r24, 0xE2	; 226
    511a:	9c e2       	ldi	r25, 0x2C	; 44
    511c:	0e 94 e2 34 	call	0x69c4	; 0x69c4 <strlen>
    5120:	9c 01       	movw	r18, r24
    5122:	89 81       	ldd	r24, Y+1	; 0x01
    5124:	9a 81       	ldd	r25, Y+2	; 0x02
    5126:	82 0f       	add	r24, r18
    5128:	93 1f       	adc	r25, r19
    512a:	89 83       	std	Y+1, r24	; 0x01
    512c:	9a 83       	std	Y+2, r25	; 0x02
				break;
    512e:	ab c0       	rjmp	.+342    	; 0x5286 <display_vprintf+0x3ea>

				case 'f':
				double_temp = va_arg(arg, double);
    5130:	8b ad       	ldd	r24, Y+59	; 0x3b
    5132:	9c ad       	ldd	r25, Y+60	; 0x3c
    5134:	9c 01       	movw	r18, r24
    5136:	2c 5f       	subi	r18, 0xFC	; 252
    5138:	3f 4f       	sbci	r19, 0xFF	; 255
    513a:	2b af       	std	Y+59, r18	; 0x3b
    513c:	3c af       	std	Y+60, r19	; 0x3c
    513e:	fc 01       	movw	r30, r24
    5140:	80 81       	ld	r24, Z
    5142:	91 81       	ldd	r25, Z+1	; 0x01
    5144:	a2 81       	ldd	r26, Z+2	; 0x02
    5146:	b3 81       	ldd	r27, Z+3	; 0x03
    5148:	8b 8f       	std	Y+27, r24	; 0x1b
    514a:	9c 8f       	std	Y+28, r25	; 0x1c
    514c:	ad 8f       	std	Y+29, r26	; 0x1d
    514e:	be 8f       	std	Y+30, r27	; 0x1e
				ftoa_fixed(buffer, double_temp);
    5150:	8b 8d       	ldd	r24, Y+27	; 0x1b
    5152:	9c 8d       	ldd	r25, Y+28	; 0x1c
    5154:	ad 8d       	ldd	r26, Y+29	; 0x1d
    5156:	be 8d       	ldd	r27, Y+30	; 0x1e
    5158:	ac 01       	movw	r20, r24
    515a:	bd 01       	movw	r22, r26
    515c:	82 ee       	ldi	r24, 0xE2	; 226
    515e:	9c e2       	ldi	r25, 0x2C	; 44
    5160:	0e 94 1d 2a 	call	0x543a	; 0x543a <ftoa_fixed>
				for(int i = 0; i < strlen(buffer);i++) {
    5164:	1d 86       	std	Y+13, r1	; 0x0d
    5166:	1e 86       	std	Y+14, r1	; 0x0e
    5168:	15 c0       	rjmp	.+42     	; 0x5194 <display_vprintf+0x2f8>
					str[length+i] = buffer[i];
    516a:	29 81       	ldd	r18, Y+1	; 0x01
    516c:	3a 81       	ldd	r19, Y+2	; 0x02
    516e:	8d 85       	ldd	r24, Y+13	; 0x0d
    5170:	9e 85       	ldd	r25, Y+14	; 0x0e
    5172:	82 0f       	add	r24, r18
    5174:	93 1f       	adc	r25, r19
    5176:	2d 85       	ldd	r18, Y+13	; 0x0d
    5178:	3e 85       	ldd	r19, Y+14	; 0x0e
    517a:	2e 51       	subi	r18, 0x1E	; 30
    517c:	33 4d       	sbci	r19, 0xD3	; 211
    517e:	f9 01       	movw	r30, r18
    5180:	20 81       	ld	r18, Z
    5182:	8a 50       	subi	r24, 0x0A	; 10
    5184:	93 4d       	sbci	r25, 0xD3	; 211
    5186:	fc 01       	movw	r30, r24
    5188:	20 83       	st	Z, r18
				break;

				case 'f':
				double_temp = va_arg(arg, double);
				ftoa_fixed(buffer, double_temp);
				for(int i = 0; i < strlen(buffer);i++) {
    518a:	8d 85       	ldd	r24, Y+13	; 0x0d
    518c:	9e 85       	ldd	r25, Y+14	; 0x0e
    518e:	01 96       	adiw	r24, 0x01	; 1
    5190:	8d 87       	std	Y+13, r24	; 0x0d
    5192:	9e 87       	std	Y+14, r25	; 0x0e
    5194:	82 ee       	ldi	r24, 0xE2	; 226
    5196:	9c e2       	ldi	r25, 0x2C	; 44
    5198:	0e 94 e2 34 	call	0x69c4	; 0x69c4 <strlen>
    519c:	9c 01       	movw	r18, r24
    519e:	8d 85       	ldd	r24, Y+13	; 0x0d
    51a0:	9e 85       	ldd	r25, Y+14	; 0x0e
    51a2:	82 17       	cp	r24, r18
    51a4:	93 07       	cpc	r25, r19
    51a6:	08 f3       	brcs	.-62     	; 0x516a <display_vprintf+0x2ce>
					str[length+i] = buffer[i];
				}
				length += strlen(buffer);
    51a8:	82 ee       	ldi	r24, 0xE2	; 226
    51aa:	9c e2       	ldi	r25, 0x2C	; 44
    51ac:	0e 94 e2 34 	call	0x69c4	; 0x69c4 <strlen>
    51b0:	9c 01       	movw	r18, r24
    51b2:	89 81       	ldd	r24, Y+1	; 0x01
    51b4:	9a 81       	ldd	r25, Y+2	; 0x02
    51b6:	82 0f       	add	r24, r18
    51b8:	93 1f       	adc	r25, r19
    51ba:	89 83       	std	Y+1, r24	; 0x01
    51bc:	9a 83       	std	Y+2, r25	; 0x02
				break;
    51be:	63 c0       	rjmp	.+198    	; 0x5286 <display_vprintf+0x3ea>

				case 'e':
				double_temp = va_arg(arg, double);
    51c0:	8b ad       	ldd	r24, Y+59	; 0x3b
    51c2:	9c ad       	ldd	r25, Y+60	; 0x3c
    51c4:	9c 01       	movw	r18, r24
    51c6:	2c 5f       	subi	r18, 0xFC	; 252
    51c8:	3f 4f       	sbci	r19, 0xFF	; 255
    51ca:	2b af       	std	Y+59, r18	; 0x3b
    51cc:	3c af       	std	Y+60, r19	; 0x3c
    51ce:	fc 01       	movw	r30, r24
    51d0:	80 81       	ld	r24, Z
    51d2:	91 81       	ldd	r25, Z+1	; 0x01
    51d4:	a2 81       	ldd	r26, Z+2	; 0x02
    51d6:	b3 81       	ldd	r27, Z+3	; 0x03
    51d8:	8b 8f       	std	Y+27, r24	; 0x1b
    51da:	9c 8f       	std	Y+28, r25	; 0x1c
    51dc:	ad 8f       	std	Y+29, r26	; 0x1d
    51de:	be 8f       	std	Y+30, r27	; 0x1e
				ftoa_sci(buffer, double_temp);
    51e0:	8b 8d       	ldd	r24, Y+27	; 0x1b
    51e2:	9c 8d       	ldd	r25, Y+28	; 0x1c
    51e4:	ad 8d       	ldd	r26, Y+29	; 0x1d
    51e6:	be 8d       	ldd	r27, Y+30	; 0x1e
    51e8:	ac 01       	movw	r20, r24
    51ea:	bd 01       	movw	r22, r26
    51ec:	82 ee       	ldi	r24, 0xE2	; 226
    51ee:	9c e2       	ldi	r25, 0x2C	; 44
    51f0:	0e 94 6c 2b 	call	0x56d8	; 0x56d8 <ftoa_sci>
				for(int i = 0; i < strlen(buffer);i++) {
    51f4:	1f 86       	std	Y+15, r1	; 0x0f
    51f6:	18 8a       	std	Y+16, r1	; 0x10
    51f8:	15 c0       	rjmp	.+42     	; 0x5224 <display_vprintf+0x388>
					str[length+i] = buffer[i];
    51fa:	29 81       	ldd	r18, Y+1	; 0x01
    51fc:	3a 81       	ldd	r19, Y+2	; 0x02
    51fe:	8f 85       	ldd	r24, Y+15	; 0x0f
    5200:	98 89       	ldd	r25, Y+16	; 0x10
    5202:	82 0f       	add	r24, r18
    5204:	93 1f       	adc	r25, r19
    5206:	2f 85       	ldd	r18, Y+15	; 0x0f
    5208:	38 89       	ldd	r19, Y+16	; 0x10
    520a:	2e 51       	subi	r18, 0x1E	; 30
    520c:	33 4d       	sbci	r19, 0xD3	; 211
    520e:	f9 01       	movw	r30, r18
    5210:	20 81       	ld	r18, Z
    5212:	8a 50       	subi	r24, 0x0A	; 10
    5214:	93 4d       	sbci	r25, 0xD3	; 211
    5216:	fc 01       	movw	r30, r24
    5218:	20 83       	st	Z, r18
				break;

				case 'e':
				double_temp = va_arg(arg, double);
				ftoa_sci(buffer, double_temp);
				for(int i = 0; i < strlen(buffer);i++) {
    521a:	8f 85       	ldd	r24, Y+15	; 0x0f
    521c:	98 89       	ldd	r25, Y+16	; 0x10
    521e:	01 96       	adiw	r24, 0x01	; 1
    5220:	8f 87       	std	Y+15, r24	; 0x0f
    5222:	98 8b       	std	Y+16, r25	; 0x10
    5224:	82 ee       	ldi	r24, 0xE2	; 226
    5226:	9c e2       	ldi	r25, 0x2C	; 44
    5228:	0e 94 e2 34 	call	0x69c4	; 0x69c4 <strlen>
    522c:	9c 01       	movw	r18, r24
    522e:	8f 85       	ldd	r24, Y+15	; 0x0f
    5230:	98 89       	ldd	r25, Y+16	; 0x10
    5232:	82 17       	cp	r24, r18
    5234:	93 07       	cpc	r25, r19
    5236:	08 f3       	brcs	.-62     	; 0x51fa <display_vprintf+0x35e>
					str[length+i] = buffer[i];
				}
				length += strlen(buffer);
    5238:	82 ee       	ldi	r24, 0xE2	; 226
    523a:	9c e2       	ldi	r25, 0x2C	; 44
    523c:	0e 94 e2 34 	call	0x69c4	; 0x69c4 <strlen>
    5240:	9c 01       	movw	r18, r24
    5242:	89 81       	ldd	r24, Y+1	; 0x01
    5244:	9a 81       	ldd	r25, Y+2	; 0x02
    5246:	82 0f       	add	r24, r18
    5248:	93 1f       	adc	r25, r19
    524a:	89 83       	std	Y+1, r24	; 0x01
    524c:	9a 83       	std	Y+2, r25	; 0x02
				break;
    524e:	00 00       	nop
    5250:	1a c0       	rjmp	.+52     	; 0x5286 <display_vprintf+0x3ea>
			}
		}
		else {
			str[length] = ch;
    5252:	89 81       	ldd	r24, Y+1	; 0x01
    5254:	9a 81       	ldd	r25, Y+2	; 0x02
    5256:	8a 50       	subi	r24, 0x0A	; 10
    5258:	93 4d       	sbci	r25, 0xD3	; 211
    525a:	2d 89       	ldd	r18, Y+21	; 0x15
    525c:	fc 01       	movw	r30, r24
    525e:	20 83       	st	Z, r18
			if(str[length] == '\n') {
    5260:	89 81       	ldd	r24, Y+1	; 0x01
    5262:	9a 81       	ldd	r25, Y+2	; 0x02
    5264:	8a 50       	subi	r24, 0x0A	; 10
    5266:	93 4d       	sbci	r25, 0xD3	; 211
    5268:	fc 01       	movw	r30, r24
    526a:	80 81       	ld	r24, Z
    526c:	8a 30       	cpi	r24, 0x0A	; 10
    526e:	31 f4       	brne	.+12     	; 0x527c <display_vprintf+0x3e0>
				str[length] = '\0';				
    5270:	89 81       	ldd	r24, Y+1	; 0x01
    5272:	9a 81       	ldd	r25, Y+2	; 0x02
    5274:	8a 50       	subi	r24, 0x0A	; 10
    5276:	93 4d       	sbci	r25, 0xD3	; 211
    5278:	fc 01       	movw	r30, r24
    527a:	10 82       	st	Z, r1
			}
			length++;
    527c:	89 81       	ldd	r24, Y+1	; 0x01
    527e:	9a 81       	ldd	r25, Y+2	; 0x02
    5280:	01 96       	adiw	r24, 0x01	; 1
    5282:	89 83       	std	Y+1, r24	; 0x01
    5284:	9a 83       	std	Y+2, r25	; 0x02
		buffer[i] = 0x00;
	}
	for(int i = 0; i < 20; i++) {
		str[i] = 0x00;
	}
	while ((ch = *fmt++)!=false) {
    5286:	89 ad       	ldd	r24, Y+57	; 0x39
    5288:	9a ad       	ldd	r25, Y+58	; 0x3a
    528a:	9c 01       	movw	r18, r24
    528c:	2f 5f       	subi	r18, 0xFF	; 255
    528e:	3f 4f       	sbci	r19, 0xFF	; 255
    5290:	29 af       	std	Y+57, r18	; 0x39
    5292:	3a af       	std	Y+58, r19	; 0x3a
    5294:	fc 01       	movw	r30, r24
    5296:	80 81       	ld	r24, Z
    5298:	8d 8b       	std	Y+21, r24	; 0x15
    529a:	8d 89       	ldd	r24, Y+21	; 0x15
    529c:	88 23       	and	r24, r24
    529e:	09 f0       	breq	.+2      	; 0x52a2 <display_vprintf+0x406>
    52a0:	34 ce       	rjmp	.-920    	; 0x4f0a <display_vprintf+0x6e>
				str[length] = '\0';				
			}
			length++;
		}
	}
	if(length + pos >= 20) {
    52a2:	29 81       	ldd	r18, Y+1	; 0x01
    52a4:	3a 81       	ldd	r19, Y+2	; 0x02
    52a6:	8f a9       	ldd	r24, Y+55	; 0x37
    52a8:	98 ad       	ldd	r25, Y+56	; 0x38
    52aa:	82 0f       	add	r24, r18
    52ac:	93 1f       	adc	r25, r19
    52ae:	44 97       	sbiw	r24, 0x14	; 20
    52b0:	54 f0       	brlt	.+20     	; 0x52c6 <display_vprintf+0x42a>
		length = 20-pos;
    52b2:	24 e1       	ldi	r18, 0x14	; 20
    52b4:	30 e0       	ldi	r19, 0x00	; 0
    52b6:	8f a9       	ldd	r24, Y+55	; 0x37
    52b8:	98 ad       	ldd	r25, Y+56	; 0x38
    52ba:	a9 01       	movw	r20, r18
    52bc:	48 1b       	sub	r20, r24
    52be:	59 0b       	sbc	r21, r25
    52c0:	ca 01       	movw	r24, r20
    52c2:	89 83       	std	Y+1, r24	; 0x01
    52c4:	9a 83       	std	Y+2, r25	; 0x02
	}
	displayLine_t newLine;
	for(int i = 0; i < 20; i++) {
    52c6:	19 8a       	std	Y+17, r1	; 0x11
    52c8:	1a 8a       	std	Y+18, r1	; 0x12
    52ca:	0e c0       	rjmp	.+28     	; 0x52e8 <display_vprintf+0x44c>
		newLine.displayBuffer[i] = 0x00;
    52cc:	9e 01       	movw	r18, r28
    52ce:	2f 5d       	subi	r18, 0xDF	; 223
    52d0:	3f 4f       	sbci	r19, 0xFF	; 255
    52d2:	89 89       	ldd	r24, Y+17	; 0x11
    52d4:	9a 89       	ldd	r25, Y+18	; 0x12
    52d6:	82 0f       	add	r24, r18
    52d8:	93 1f       	adc	r25, r19
    52da:	fc 01       	movw	r30, r24
    52dc:	10 82       	st	Z, r1
	}
	if(length + pos >= 20) {
		length = 20-pos;
	}
	displayLine_t newLine;
	for(int i = 0; i < 20; i++) {
    52de:	89 89       	ldd	r24, Y+17	; 0x11
    52e0:	9a 89       	ldd	r25, Y+18	; 0x12
    52e2:	01 96       	adiw	r24, 0x01	; 1
    52e4:	89 8b       	std	Y+17, r24	; 0x11
    52e6:	9a 8b       	std	Y+18, r25	; 0x12
    52e8:	89 89       	ldd	r24, Y+17	; 0x11
    52ea:	9a 89       	ldd	r25, Y+18	; 0x12
    52ec:	44 97       	sbiw	r24, 0x14	; 20
    52ee:	74 f3       	brlt	.-36     	; 0x52cc <display_vprintf+0x430>
		newLine.displayBuffer[i] = 0x00;
	}
	newLine.displayLine = line;
    52f0:	8d a9       	ldd	r24, Y+53	; 0x35
    52f2:	8f 8f       	std	Y+31, r24	; 0x1f
	newLine.displayPos = pos;
    52f4:	8f a9       	ldd	r24, Y+55	; 0x37
    52f6:	88 a3       	std	Y+32, r24	; 0x20
	for(int i = 0; i < length;i++) {
    52f8:	1b 8a       	std	Y+19, r1	; 0x13
    52fa:	1c 8a       	std	Y+20, r1	; 0x14
    52fc:	14 c0       	rjmp	.+40     	; 0x5326 <display_vprintf+0x48a>
		newLine.displayBuffer[i] = str[i];
    52fe:	8b 89       	ldd	r24, Y+19	; 0x13
    5300:	9c 89       	ldd	r25, Y+20	; 0x14
    5302:	8a 50       	subi	r24, 0x0A	; 10
    5304:	93 4d       	sbci	r25, 0xD3	; 211
    5306:	fc 01       	movw	r30, r24
    5308:	40 81       	ld	r20, Z
    530a:	9e 01       	movw	r18, r28
    530c:	2f 5d       	subi	r18, 0xDF	; 223
    530e:	3f 4f       	sbci	r19, 0xFF	; 255
    5310:	8b 89       	ldd	r24, Y+19	; 0x13
    5312:	9c 89       	ldd	r25, Y+20	; 0x14
    5314:	82 0f       	add	r24, r18
    5316:	93 1f       	adc	r25, r19
    5318:	fc 01       	movw	r30, r24
    531a:	40 83       	st	Z, r20
	for(int i = 0; i < 20; i++) {
		newLine.displayBuffer[i] = 0x00;
	}
	newLine.displayLine = line;
	newLine.displayPos = pos;
	for(int i = 0; i < length;i++) {
    531c:	8b 89       	ldd	r24, Y+19	; 0x13
    531e:	9c 89       	ldd	r25, Y+20	; 0x14
    5320:	01 96       	adiw	r24, 0x01	; 1
    5322:	8b 8b       	std	Y+19, r24	; 0x13
    5324:	9c 8b       	std	Y+20, r25	; 0x14
    5326:	2b 89       	ldd	r18, Y+19	; 0x13
    5328:	3c 89       	ldd	r19, Y+20	; 0x14
    532a:	89 81       	ldd	r24, Y+1	; 0x01
    532c:	9a 81       	ldd	r25, Y+2	; 0x02
    532e:	28 17       	cp	r18, r24
    5330:	39 07       	cpc	r19, r25
    5332:	2c f3       	brlt	.-54     	; 0x52fe <display_vprintf+0x462>
		newLine.displayBuffer[i] = str[i];
	}	
	xQueueSend(displayLineQueue, (void *) &newLine, portMAX_DELAY);
    5334:	80 91 51 32 	lds	r24, 0x3251	; 0x803251 <displayLineQueue>
    5338:	90 91 52 32 	lds	r25, 0x3252	; 0x803252 <displayLineQueue+0x1>
    533c:	be 01       	movw	r22, r28
    533e:	61 5e       	subi	r22, 0xE1	; 225
    5340:	7f 4f       	sbci	r23, 0xFF	; 255
    5342:	00 e0       	ldi	r16, 0x00	; 0
    5344:	2f ef       	ldi	r18, 0xFF	; 255
    5346:	3f ef       	ldi	r19, 0xFF	; 255
    5348:	a9 01       	movw	r20, r18
    534a:	0e 94 27 0f 	call	0x1e4e	; 0x1e4e <xQueueGenericSend>
	
	
	return length;
    534e:	89 81       	ldd	r24, Y+1	; 0x01
    5350:	9a 81       	ldd	r25, Y+2	; 0x02
}
    5352:	ec 96       	adiw	r28, 0x3c	; 60
    5354:	cd bf       	out	0x3d, r28	; 61
    5356:	de bf       	out	0x3e, r29	; 62
    5358:	df 91       	pop	r29
    535a:	cf 91       	pop	r28
    535c:	0f 91       	pop	r16
    535e:	08 95       	ret

00005360 <normalize>:

static int normalize(double *val) {
    5360:	cf 93       	push	r28
    5362:	df 93       	push	r29
    5364:	cd b7       	in	r28, 0x3d	; 61
    5366:	de b7       	in	r29, 0x3e	; 62
    5368:	28 97       	sbiw	r28, 0x08	; 8
    536a:	cd bf       	out	0x3d, r28	; 61
    536c:	de bf       	out	0x3e, r29	; 62
    536e:	8f 83       	std	Y+7, r24	; 0x07
    5370:	98 87       	std	Y+8, r25	; 0x08
    int exponent = 0;
    5372:	19 82       	std	Y+1, r1	; 0x01
    5374:	1a 82       	std	Y+2, r1	; 0x02
    double value = *val;
    5376:	8f 81       	ldd	r24, Y+7	; 0x07
    5378:	98 85       	ldd	r25, Y+8	; 0x08
    537a:	fc 01       	movw	r30, r24
    537c:	80 81       	ld	r24, Z
    537e:	91 81       	ldd	r25, Z+1	; 0x01
    5380:	a2 81       	ldd	r26, Z+2	; 0x02
    5382:	b3 81       	ldd	r27, Z+3	; 0x03
    5384:	8b 83       	std	Y+3, r24	; 0x03
    5386:	9c 83       	std	Y+4, r25	; 0x04
    5388:	ad 83       	std	Y+5, r26	; 0x05
    538a:	be 83       	std	Y+6, r27	; 0x06

    while (value >= 1.0) {
    538c:	15 c0       	rjmp	.+42     	; 0x53b8 <normalize+0x58>
        value /= 10.0;
    538e:	20 e0       	ldi	r18, 0x00	; 0
    5390:	30 e0       	ldi	r19, 0x00	; 0
    5392:	40 e2       	ldi	r20, 0x20	; 32
    5394:	51 e4       	ldi	r21, 0x41	; 65
    5396:	6b 81       	ldd	r22, Y+3	; 0x03
    5398:	7c 81       	ldd	r23, Y+4	; 0x04
    539a:	8d 81       	ldd	r24, Y+5	; 0x05
    539c:	9e 81       	ldd	r25, Y+6	; 0x06
    539e:	0e 94 c7 32 	call	0x658e	; 0x658e <__divsf3>
    53a2:	dc 01       	movw	r26, r24
    53a4:	cb 01       	movw	r24, r22
    53a6:	8b 83       	std	Y+3, r24	; 0x03
    53a8:	9c 83       	std	Y+4, r25	; 0x04
    53aa:	ad 83       	std	Y+5, r26	; 0x05
    53ac:	be 83       	std	Y+6, r27	; 0x06
        ++exponent;
    53ae:	89 81       	ldd	r24, Y+1	; 0x01
    53b0:	9a 81       	ldd	r25, Y+2	; 0x02
    53b2:	01 96       	adiw	r24, 0x01	; 1
    53b4:	89 83       	std	Y+1, r24	; 0x01
    53b6:	9a 83       	std	Y+2, r25	; 0x02

static int normalize(double *val) {
    int exponent = 0;
    double value = *val;

    while (value >= 1.0) {
    53b8:	20 e0       	ldi	r18, 0x00	; 0
    53ba:	30 e0       	ldi	r19, 0x00	; 0
    53bc:	40 e8       	ldi	r20, 0x80	; 128
    53be:	5f e3       	ldi	r21, 0x3F	; 63
    53c0:	6b 81       	ldd	r22, Y+3	; 0x03
    53c2:	7c 81       	ldd	r23, Y+4	; 0x04
    53c4:	8d 81       	ldd	r24, Y+5	; 0x05
    53c6:	9e 81       	ldd	r25, Y+6	; 0x06
    53c8:	0e 94 21 34 	call	0x6842	; 0x6842 <__gesf2>
    53cc:	88 23       	and	r24, r24
    53ce:	fc f6       	brge	.-66     	; 0x538e <normalize+0x2e>
        value /= 10.0;
        ++exponent;
    }

    while (value < 0.1) {
    53d0:	15 c0       	rjmp	.+42     	; 0x53fc <normalize+0x9c>
        value *= 10.0;
    53d2:	20 e0       	ldi	r18, 0x00	; 0
    53d4:	30 e0       	ldi	r19, 0x00	; 0
    53d6:	40 e2       	ldi	r20, 0x20	; 32
    53d8:	51 e4       	ldi	r21, 0x41	; 65
    53da:	6b 81       	ldd	r22, Y+3	; 0x03
    53dc:	7c 81       	ldd	r23, Y+4	; 0x04
    53de:	8d 81       	ldd	r24, Y+5	; 0x05
    53e0:	9e 81       	ldd	r25, Y+6	; 0x06
    53e2:	0e 94 26 34 	call	0x684c	; 0x684c <__mulsf3>
    53e6:	dc 01       	movw	r26, r24
    53e8:	cb 01       	movw	r24, r22
    53ea:	8b 83       	std	Y+3, r24	; 0x03
    53ec:	9c 83       	std	Y+4, r25	; 0x04
    53ee:	ad 83       	std	Y+5, r26	; 0x05
    53f0:	be 83       	std	Y+6, r27	; 0x06
        --exponent;
    53f2:	89 81       	ldd	r24, Y+1	; 0x01
    53f4:	9a 81       	ldd	r25, Y+2	; 0x02
    53f6:	01 97       	sbiw	r24, 0x01	; 1
    53f8:	89 83       	std	Y+1, r24	; 0x01
    53fa:	9a 83       	std	Y+2, r25	; 0x02
    while (value >= 1.0) {
        value /= 10.0;
        ++exponent;
    }

    while (value < 0.1) {
    53fc:	2d ec       	ldi	r18, 0xCD	; 205
    53fe:	3c ec       	ldi	r19, 0xCC	; 204
    5400:	4c ec       	ldi	r20, 0xCC	; 204
    5402:	5d e3       	ldi	r21, 0x3D	; 61
    5404:	6b 81       	ldd	r22, Y+3	; 0x03
    5406:	7c 81       	ldd	r23, Y+4	; 0x04
    5408:	8d 81       	ldd	r24, Y+5	; 0x05
    540a:	9e 81       	ldd	r25, Y+6	; 0x06
    540c:	0e 94 c2 32 	call	0x6584	; 0x6584 <__cmpsf2>
    5410:	88 23       	and	r24, r24
    5412:	fc f2       	brlt	.-66     	; 0x53d2 <normalize+0x72>
        value *= 10.0;
        --exponent;
    }
    *val = value;
    5414:	2f 81       	ldd	r18, Y+7	; 0x07
    5416:	38 85       	ldd	r19, Y+8	; 0x08
    5418:	8b 81       	ldd	r24, Y+3	; 0x03
    541a:	9c 81       	ldd	r25, Y+4	; 0x04
    541c:	ad 81       	ldd	r26, Y+5	; 0x05
    541e:	be 81       	ldd	r27, Y+6	; 0x06
    5420:	f9 01       	movw	r30, r18
    5422:	80 83       	st	Z, r24
    5424:	91 83       	std	Z+1, r25	; 0x01
    5426:	a2 83       	std	Z+2, r26	; 0x02
    5428:	b3 83       	std	Z+3, r27	; 0x03
    return exponent;
    542a:	89 81       	ldd	r24, Y+1	; 0x01
    542c:	9a 81       	ldd	r25, Y+2	; 0x02
}
    542e:	28 96       	adiw	r28, 0x08	; 8
    5430:	cd bf       	out	0x3d, r28	; 61
    5432:	de bf       	out	0x3e, r29	; 62
    5434:	df 91       	pop	r29
    5436:	cf 91       	pop	r28
    5438:	08 95       	ret

0000543a <ftoa_fixed>:

static void ftoa_fixed(char *buffer, double value) {  
    543a:	cf 92       	push	r12
    543c:	df 92       	push	r13
    543e:	ef 92       	push	r14
    5440:	ff 92       	push	r15
    5442:	cf 93       	push	r28
    5444:	df 93       	push	r29
    5446:	cd b7       	in	r28, 0x3d	; 61
    5448:	de b7       	in	r29, 0x3e	; 62
    544a:	2e 97       	sbiw	r28, 0x0e	; 14
    544c:	cd bf       	out	0x3d, r28	; 61
    544e:	de bf       	out	0x3e, r29	; 62
    5450:	89 87       	std	Y+9, r24	; 0x09
    5452:	9a 87       	std	Y+10, r25	; 0x0a
    5454:	4b 87       	std	Y+11, r20	; 0x0b
    5456:	5c 87       	std	Y+12, r21	; 0x0c
    5458:	6d 87       	std	Y+13, r22	; 0x0d
    545a:	7e 87       	std	Y+14, r23	; 0x0e
     * The largest value we expect is an IEEE 754 double precision real, with maximum magnitude of approximately
     * e+308. The C standard requires an implementation to allow a single conversion to produce up to 512 
     * characters, so that's what we really expect as the buffer size.     
     */

    int exponent = 0;
    545c:	19 82       	std	Y+1, r1	; 0x01
    545e:	1a 82       	std	Y+2, r1	; 0x02
    int places = 0;
    5460:	1b 82       	std	Y+3, r1	; 0x03
    5462:	1c 82       	std	Y+4, r1	; 0x04
    static const int width = 4;

    if (value == 0.0) {
    5464:	8b 85       	ldd	r24, Y+11	; 0x0b
    5466:	9c 85       	ldd	r25, Y+12	; 0x0c
    5468:	ad 85       	ldd	r26, Y+13	; 0x0d
    546a:	be 85       	ldd	r27, Y+14	; 0x0e
    546c:	20 e0       	ldi	r18, 0x00	; 0
    546e:	30 e0       	ldi	r19, 0x00	; 0
    5470:	a9 01       	movw	r20, r18
    5472:	bc 01       	movw	r22, r24
    5474:	cd 01       	movw	r24, r26
    5476:	0e 94 c2 32 	call	0x6584	; 0x6584 <__cmpsf2>
    547a:	88 23       	and	r24, r24
    547c:	59 f4       	brne	.+22     	; 0x5494 <ftoa_fixed+0x5a>
        buffer[0] = '0';
    547e:	89 85       	ldd	r24, Y+9	; 0x09
    5480:	9a 85       	ldd	r25, Y+10	; 0x0a
    5482:	20 e3       	ldi	r18, 0x30	; 48
    5484:	fc 01       	movw	r30, r24
    5486:	20 83       	st	Z, r18
        buffer[1] = '\0';
    5488:	89 85       	ldd	r24, Y+9	; 0x09
    548a:	9a 85       	ldd	r25, Y+10	; 0x0a
    548c:	01 96       	adiw	r24, 0x01	; 1
    548e:	fc 01       	movw	r30, r24
    5490:	10 82       	st	Z, r1
        return;
    5492:	18 c1       	rjmp	.+560    	; 0x56c4 <ftoa_fixed+0x28a>
    }         

    if (value < 0.0) {
    5494:	8b 85       	ldd	r24, Y+11	; 0x0b
    5496:	9c 85       	ldd	r25, Y+12	; 0x0c
    5498:	ad 85       	ldd	r26, Y+13	; 0x0d
    549a:	be 85       	ldd	r27, Y+14	; 0x0e
    549c:	20 e0       	ldi	r18, 0x00	; 0
    549e:	30 e0       	ldi	r19, 0x00	; 0
    54a0:	a9 01       	movw	r20, r18
    54a2:	bc 01       	movw	r22, r24
    54a4:	cd 01       	movw	r24, r26
    54a6:	0e 94 c2 32 	call	0x6584	; 0x6584 <__cmpsf2>
    54aa:	88 23       	and	r24, r24
    54ac:	9c f4       	brge	.+38     	; 0x54d4 <ftoa_fixed+0x9a>
        *buffer++ = '-';
    54ae:	89 85       	ldd	r24, Y+9	; 0x09
    54b0:	9a 85       	ldd	r25, Y+10	; 0x0a
    54b2:	9c 01       	movw	r18, r24
    54b4:	2f 5f       	subi	r18, 0xFF	; 255
    54b6:	3f 4f       	sbci	r19, 0xFF	; 255
    54b8:	29 87       	std	Y+9, r18	; 0x09
    54ba:	3a 87       	std	Y+10, r19	; 0x0a
    54bc:	2d e2       	ldi	r18, 0x2D	; 45
    54be:	fc 01       	movw	r30, r24
    54c0:	20 83       	st	Z, r18
        value = -value;
    54c2:	8b 85       	ldd	r24, Y+11	; 0x0b
    54c4:	9c 85       	ldd	r25, Y+12	; 0x0c
    54c6:	ad 85       	ldd	r26, Y+13	; 0x0d
    54c8:	be 85       	ldd	r27, Y+14	; 0x0e
    54ca:	b0 58       	subi	r27, 0x80	; 128
    54cc:	8b 87       	std	Y+11, r24	; 0x0b
    54ce:	9c 87       	std	Y+12, r25	; 0x0c
    54d0:	ad 87       	std	Y+13, r26	; 0x0d
    54d2:	be 87       	std	Y+14, r27	; 0x0e
    }

    exponent = normalize(&value);
    54d4:	ce 01       	movw	r24, r28
    54d6:	0b 96       	adiw	r24, 0x0b	; 11
    54d8:	0e 94 b0 29 	call	0x5360	; 0x5360 <normalize>
    54dc:	89 83       	std	Y+1, r24	; 0x01
    54de:	9a 83       	std	Y+2, r25	; 0x02

    while (exponent > 0) {
    54e0:	53 c0       	rjmp	.+166    	; 0x5588 <ftoa_fixed+0x14e>
        int digit = value * 10;
    54e2:	8b 85       	ldd	r24, Y+11	; 0x0b
    54e4:	9c 85       	ldd	r25, Y+12	; 0x0c
    54e6:	ad 85       	ldd	r26, Y+13	; 0x0d
    54e8:	be 85       	ldd	r27, Y+14	; 0x0e
    54ea:	20 e0       	ldi	r18, 0x00	; 0
    54ec:	30 e0       	ldi	r19, 0x00	; 0
    54ee:	40 e2       	ldi	r20, 0x20	; 32
    54f0:	51 e4       	ldi	r21, 0x41	; 65
    54f2:	bc 01       	movw	r22, r24
    54f4:	cd 01       	movw	r24, r26
    54f6:	0e 94 26 34 	call	0x684c	; 0x684c <__mulsf3>
    54fa:	dc 01       	movw	r26, r24
    54fc:	cb 01       	movw	r24, r22
    54fe:	bc 01       	movw	r22, r24
    5500:	cd 01       	movw	r24, r26
    5502:	0e 94 39 33 	call	0x6672	; 0x6672 <__fixsfsi>
    5506:	dc 01       	movw	r26, r24
    5508:	cb 01       	movw	r24, r22
    550a:	8d 83       	std	Y+5, r24	; 0x05
    550c:	9e 83       	std	Y+6, r25	; 0x06
        *buffer++ = digit + '0';
    550e:	89 85       	ldd	r24, Y+9	; 0x09
    5510:	9a 85       	ldd	r25, Y+10	; 0x0a
    5512:	9c 01       	movw	r18, r24
    5514:	2f 5f       	subi	r18, 0xFF	; 255
    5516:	3f 4f       	sbci	r19, 0xFF	; 255
    5518:	29 87       	std	Y+9, r18	; 0x09
    551a:	3a 87       	std	Y+10, r19	; 0x0a
    551c:	2d 81       	ldd	r18, Y+5	; 0x05
    551e:	20 5d       	subi	r18, 0xD0	; 208
    5520:	fc 01       	movw	r30, r24
    5522:	20 83       	st	Z, r18
        value = value * 10 - digit;
    5524:	8b 85       	ldd	r24, Y+11	; 0x0b
    5526:	9c 85       	ldd	r25, Y+12	; 0x0c
    5528:	ad 85       	ldd	r26, Y+13	; 0x0d
    552a:	be 85       	ldd	r27, Y+14	; 0x0e
    552c:	20 e0       	ldi	r18, 0x00	; 0
    552e:	30 e0       	ldi	r19, 0x00	; 0
    5530:	40 e2       	ldi	r20, 0x20	; 32
    5532:	51 e4       	ldi	r21, 0x41	; 65
    5534:	bc 01       	movw	r22, r24
    5536:	cd 01       	movw	r24, r26
    5538:	0e 94 26 34 	call	0x684c	; 0x684c <__mulsf3>
    553c:	dc 01       	movw	r26, r24
    553e:	cb 01       	movw	r24, r22
    5540:	6c 01       	movw	r12, r24
    5542:	7d 01       	movw	r14, r26
    5544:	8d 81       	ldd	r24, Y+5	; 0x05
    5546:	9e 81       	ldd	r25, Y+6	; 0x06
    5548:	09 2e       	mov	r0, r25
    554a:	00 0c       	add	r0, r0
    554c:	aa 0b       	sbc	r26, r26
    554e:	bb 0b       	sbc	r27, r27
    5550:	bc 01       	movw	r22, r24
    5552:	cd 01       	movw	r24, r26
    5554:	0e 94 71 33 	call	0x66e2	; 0x66e2 <__floatsisf>
    5558:	dc 01       	movw	r26, r24
    555a:	cb 01       	movw	r24, r22
    555c:	9c 01       	movw	r18, r24
    555e:	ad 01       	movw	r20, r26
    5560:	c7 01       	movw	r24, r14
    5562:	b6 01       	movw	r22, r12
    5564:	0e 94 55 32 	call	0x64aa	; 0x64aa <__subsf3>
    5568:	dc 01       	movw	r26, r24
    556a:	cb 01       	movw	r24, r22
    556c:	8b 87       	std	Y+11, r24	; 0x0b
    556e:	9c 87       	std	Y+12, r25	; 0x0c
    5570:	ad 87       	std	Y+13, r26	; 0x0d
    5572:	be 87       	std	Y+14, r27	; 0x0e
        ++places;
    5574:	8b 81       	ldd	r24, Y+3	; 0x03
    5576:	9c 81       	ldd	r25, Y+4	; 0x04
    5578:	01 96       	adiw	r24, 0x01	; 1
    557a:	8b 83       	std	Y+3, r24	; 0x03
    557c:	9c 83       	std	Y+4, r25	; 0x04
        --exponent;
    557e:	89 81       	ldd	r24, Y+1	; 0x01
    5580:	9a 81       	ldd	r25, Y+2	; 0x02
    5582:	01 97       	sbiw	r24, 0x01	; 1
    5584:	89 83       	std	Y+1, r24	; 0x01
    5586:	9a 83       	std	Y+2, r25	; 0x02
        value = -value;
    }

    exponent = normalize(&value);

    while (exponent > 0) {
    5588:	89 81       	ldd	r24, Y+1	; 0x01
    558a:	9a 81       	ldd	r25, Y+2	; 0x02
    558c:	18 16       	cp	r1, r24
    558e:	19 06       	cpc	r1, r25
    5590:	0c f4       	brge	.+2      	; 0x5594 <ftoa_fixed+0x15a>
    5592:	a7 cf       	rjmp	.-178    	; 0x54e2 <ftoa_fixed+0xa8>
        value = value * 10 - digit;
        ++places;
        --exponent;
    }

    if (places == 0)
    5594:	8b 81       	ldd	r24, Y+3	; 0x03
    5596:	9c 81       	ldd	r25, Y+4	; 0x04
    5598:	89 2b       	or	r24, r25
    559a:	51 f4       	brne	.+20     	; 0x55b0 <ftoa_fixed+0x176>
        *buffer++ = '0';
    559c:	89 85       	ldd	r24, Y+9	; 0x09
    559e:	9a 85       	ldd	r25, Y+10	; 0x0a
    55a0:	9c 01       	movw	r18, r24
    55a2:	2f 5f       	subi	r18, 0xFF	; 255
    55a4:	3f 4f       	sbci	r19, 0xFF	; 255
    55a6:	29 87       	std	Y+9, r18	; 0x09
    55a8:	3a 87       	std	Y+10, r19	; 0x0a
    55aa:	20 e3       	ldi	r18, 0x30	; 48
    55ac:	fc 01       	movw	r30, r24
    55ae:	20 83       	st	Z, r18

    *buffer++ = '.';
    55b0:	89 85       	ldd	r24, Y+9	; 0x09
    55b2:	9a 85       	ldd	r25, Y+10	; 0x0a
    55b4:	9c 01       	movw	r18, r24
    55b6:	2f 5f       	subi	r18, 0xFF	; 255
    55b8:	3f 4f       	sbci	r19, 0xFF	; 255
    55ba:	29 87       	std	Y+9, r18	; 0x09
    55bc:	3a 87       	std	Y+10, r19	; 0x0a
    55be:	2e e2       	ldi	r18, 0x2E	; 46
    55c0:	fc 01       	movw	r30, r24
    55c2:	20 83       	st	Z, r18

    while (exponent < 0 && places < width) {
    55c4:	14 c0       	rjmp	.+40     	; 0x55ee <ftoa_fixed+0x1b4>
        *buffer++ = '0';
    55c6:	89 85       	ldd	r24, Y+9	; 0x09
    55c8:	9a 85       	ldd	r25, Y+10	; 0x0a
    55ca:	9c 01       	movw	r18, r24
    55cc:	2f 5f       	subi	r18, 0xFF	; 255
    55ce:	3f 4f       	sbci	r19, 0xFF	; 255
    55d0:	29 87       	std	Y+9, r18	; 0x09
    55d2:	3a 87       	std	Y+10, r19	; 0x0a
    55d4:	20 e3       	ldi	r18, 0x30	; 48
    55d6:	fc 01       	movw	r30, r24
    55d8:	20 83       	st	Z, r18
        --exponent;
    55da:	89 81       	ldd	r24, Y+1	; 0x01
    55dc:	9a 81       	ldd	r25, Y+2	; 0x02
    55de:	01 97       	sbiw	r24, 0x01	; 1
    55e0:	89 83       	std	Y+1, r24	; 0x01
    55e2:	9a 83       	std	Y+2, r25	; 0x02
        ++places;
    55e4:	8b 81       	ldd	r24, Y+3	; 0x03
    55e6:	9c 81       	ldd	r25, Y+4	; 0x04
    55e8:	01 96       	adiw	r24, 0x01	; 1
    55ea:	8b 83       	std	Y+3, r24	; 0x03
    55ec:	9c 83       	std	Y+4, r25	; 0x04
    if (places == 0)
        *buffer++ = '0';

    *buffer++ = '.';

    while (exponent < 0 && places < width) {
    55ee:	89 81       	ldd	r24, Y+1	; 0x01
    55f0:	9a 81       	ldd	r25, Y+2	; 0x02
    55f2:	99 23       	and	r25, r25
    55f4:	0c f0       	brlt	.+2      	; 0x55f8 <ftoa_fixed+0x1be>
    55f6:	58 c0       	rjmp	.+176    	; 0x56a8 <ftoa_fixed+0x26e>
    55f8:	80 91 8f 20 	lds	r24, 0x208F	; 0x80208f <width.5062>
    55fc:	90 91 90 20 	lds	r25, 0x2090	; 0x802090 <width.5062+0x1>
    5600:	2b 81       	ldd	r18, Y+3	; 0x03
    5602:	3c 81       	ldd	r19, Y+4	; 0x04
    5604:	28 17       	cp	r18, r24
    5606:	39 07       	cpc	r19, r25
    5608:	f4 f2       	brlt	.-68     	; 0x55c6 <ftoa_fixed+0x18c>
        *buffer++ = '0';
        --exponent;
        ++places;
    }

    while (places < width) {
    560a:	4e c0       	rjmp	.+156    	; 0x56a8 <ftoa_fixed+0x26e>
        int digit = value * 10.0;
    560c:	8b 85       	ldd	r24, Y+11	; 0x0b
    560e:	9c 85       	ldd	r25, Y+12	; 0x0c
    5610:	ad 85       	ldd	r26, Y+13	; 0x0d
    5612:	be 85       	ldd	r27, Y+14	; 0x0e
    5614:	20 e0       	ldi	r18, 0x00	; 0
    5616:	30 e0       	ldi	r19, 0x00	; 0
    5618:	40 e2       	ldi	r20, 0x20	; 32
    561a:	51 e4       	ldi	r21, 0x41	; 65
    561c:	bc 01       	movw	r22, r24
    561e:	cd 01       	movw	r24, r26
    5620:	0e 94 26 34 	call	0x684c	; 0x684c <__mulsf3>
    5624:	dc 01       	movw	r26, r24
    5626:	cb 01       	movw	r24, r22
    5628:	bc 01       	movw	r22, r24
    562a:	cd 01       	movw	r24, r26
    562c:	0e 94 39 33 	call	0x6672	; 0x6672 <__fixsfsi>
    5630:	dc 01       	movw	r26, r24
    5632:	cb 01       	movw	r24, r22
    5634:	8f 83       	std	Y+7, r24	; 0x07
    5636:	98 87       	std	Y+8, r25	; 0x08
        *buffer++ = digit + '0';
    5638:	89 85       	ldd	r24, Y+9	; 0x09
    563a:	9a 85       	ldd	r25, Y+10	; 0x0a
    563c:	9c 01       	movw	r18, r24
    563e:	2f 5f       	subi	r18, 0xFF	; 255
    5640:	3f 4f       	sbci	r19, 0xFF	; 255
    5642:	29 87       	std	Y+9, r18	; 0x09
    5644:	3a 87       	std	Y+10, r19	; 0x0a
    5646:	2f 81       	ldd	r18, Y+7	; 0x07
    5648:	20 5d       	subi	r18, 0xD0	; 208
    564a:	fc 01       	movw	r30, r24
    564c:	20 83       	st	Z, r18
        value = value * 10.0 - digit;
    564e:	8b 85       	ldd	r24, Y+11	; 0x0b
    5650:	9c 85       	ldd	r25, Y+12	; 0x0c
    5652:	ad 85       	ldd	r26, Y+13	; 0x0d
    5654:	be 85       	ldd	r27, Y+14	; 0x0e
    5656:	20 e0       	ldi	r18, 0x00	; 0
    5658:	30 e0       	ldi	r19, 0x00	; 0
    565a:	40 e2       	ldi	r20, 0x20	; 32
    565c:	51 e4       	ldi	r21, 0x41	; 65
    565e:	bc 01       	movw	r22, r24
    5660:	cd 01       	movw	r24, r26
    5662:	0e 94 26 34 	call	0x684c	; 0x684c <__mulsf3>
    5666:	dc 01       	movw	r26, r24
    5668:	cb 01       	movw	r24, r22
    566a:	6c 01       	movw	r12, r24
    566c:	7d 01       	movw	r14, r26
    566e:	8f 81       	ldd	r24, Y+7	; 0x07
    5670:	98 85       	ldd	r25, Y+8	; 0x08
    5672:	09 2e       	mov	r0, r25
    5674:	00 0c       	add	r0, r0
    5676:	aa 0b       	sbc	r26, r26
    5678:	bb 0b       	sbc	r27, r27
    567a:	bc 01       	movw	r22, r24
    567c:	cd 01       	movw	r24, r26
    567e:	0e 94 71 33 	call	0x66e2	; 0x66e2 <__floatsisf>
    5682:	dc 01       	movw	r26, r24
    5684:	cb 01       	movw	r24, r22
    5686:	9c 01       	movw	r18, r24
    5688:	ad 01       	movw	r20, r26
    568a:	c7 01       	movw	r24, r14
    568c:	b6 01       	movw	r22, r12
    568e:	0e 94 55 32 	call	0x64aa	; 0x64aa <__subsf3>
    5692:	dc 01       	movw	r26, r24
    5694:	cb 01       	movw	r24, r22
    5696:	8b 87       	std	Y+11, r24	; 0x0b
    5698:	9c 87       	std	Y+12, r25	; 0x0c
    569a:	ad 87       	std	Y+13, r26	; 0x0d
    569c:	be 87       	std	Y+14, r27	; 0x0e
        ++places;
    569e:	8b 81       	ldd	r24, Y+3	; 0x03
    56a0:	9c 81       	ldd	r25, Y+4	; 0x04
    56a2:	01 96       	adiw	r24, 0x01	; 1
    56a4:	8b 83       	std	Y+3, r24	; 0x03
    56a6:	9c 83       	std	Y+4, r25	; 0x04
        *buffer++ = '0';
        --exponent;
        ++places;
    }

    while (places < width) {
    56a8:	80 91 8f 20 	lds	r24, 0x208F	; 0x80208f <width.5062>
    56ac:	90 91 90 20 	lds	r25, 0x2090	; 0x802090 <width.5062+0x1>
    56b0:	2b 81       	ldd	r18, Y+3	; 0x03
    56b2:	3c 81       	ldd	r19, Y+4	; 0x04
    56b4:	28 17       	cp	r18, r24
    56b6:	39 07       	cpc	r19, r25
    56b8:	0c f4       	brge	.+2      	; 0x56bc <ftoa_fixed+0x282>
    56ba:	a8 cf       	rjmp	.-176    	; 0x560c <ftoa_fixed+0x1d2>
        int digit = value * 10.0;
        *buffer++ = digit + '0';
        value = value * 10.0 - digit;
        ++places;
    }
    *buffer = '\0';
    56bc:	89 85       	ldd	r24, Y+9	; 0x09
    56be:	9a 85       	ldd	r25, Y+10	; 0x0a
    56c0:	fc 01       	movw	r30, r24
    56c2:	10 82       	st	Z, r1
}
    56c4:	2e 96       	adiw	r28, 0x0e	; 14
    56c6:	cd bf       	out	0x3d, r28	; 61
    56c8:	de bf       	out	0x3e, r29	; 62
    56ca:	df 91       	pop	r29
    56cc:	cf 91       	pop	r28
    56ce:	ff 90       	pop	r15
    56d0:	ef 90       	pop	r14
    56d2:	df 90       	pop	r13
    56d4:	cf 90       	pop	r12
    56d6:	08 95       	ret

000056d8 <ftoa_sci>:

void ftoa_sci(char *buffer, double value) {
    56d8:	cf 92       	push	r12
    56da:	df 92       	push	r13
    56dc:	ef 92       	push	r14
    56de:	ff 92       	push	r15
    56e0:	cf 93       	push	r28
    56e2:	df 93       	push	r29
    56e4:	cd b7       	in	r28, 0x3d	; 61
    56e6:	de b7       	in	r29, 0x3e	; 62
    56e8:	2e 97       	sbiw	r28, 0x0e	; 14
    56ea:	cd bf       	out	0x3d, r28	; 61
    56ec:	de bf       	out	0x3e, r29	; 62
    56ee:	89 87       	std	Y+9, r24	; 0x09
    56f0:	9a 87       	std	Y+10, r25	; 0x0a
    56f2:	4b 87       	std	Y+11, r20	; 0x0b
    56f4:	5c 87       	std	Y+12, r21	; 0x0c
    56f6:	6d 87       	std	Y+13, r22	; 0x0d
    56f8:	7e 87       	std	Y+14, r23	; 0x0e
    int exponent = 0;    
    56fa:	1b 82       	std	Y+3, r1	; 0x03
    56fc:	1c 82       	std	Y+4, r1	; 0x04
    static const int width = 4;

    if (value == 0.0) {
    56fe:	8b 85       	ldd	r24, Y+11	; 0x0b
    5700:	9c 85       	ldd	r25, Y+12	; 0x0c
    5702:	ad 85       	ldd	r26, Y+13	; 0x0d
    5704:	be 85       	ldd	r27, Y+14	; 0x0e
    5706:	20 e0       	ldi	r18, 0x00	; 0
    5708:	30 e0       	ldi	r19, 0x00	; 0
    570a:	a9 01       	movw	r20, r18
    570c:	bc 01       	movw	r22, r24
    570e:	cd 01       	movw	r24, r26
    5710:	0e 94 c2 32 	call	0x6584	; 0x6584 <__cmpsf2>
    5714:	88 23       	and	r24, r24
    5716:	59 f4       	brne	.+22     	; 0x572e <ftoa_sci+0x56>
        buffer[0] = '0';
    5718:	89 85       	ldd	r24, Y+9	; 0x09
    571a:	9a 85       	ldd	r25, Y+10	; 0x0a
    571c:	20 e3       	ldi	r18, 0x30	; 48
    571e:	fc 01       	movw	r30, r24
    5720:	20 83       	st	Z, r18
        buffer[1] = '\0';
    5722:	89 85       	ldd	r24, Y+9	; 0x09
    5724:	9a 85       	ldd	r25, Y+10	; 0x0a
    5726:	01 96       	adiw	r24, 0x01	; 1
    5728:	fc 01       	movw	r30, r24
    572a:	10 82       	st	Z, r1
        return;
    572c:	ec c0       	rjmp	.+472    	; 0x5906 <ftoa_sci+0x22e>
    }

    if (value < 0.0) {
    572e:	8b 85       	ldd	r24, Y+11	; 0x0b
    5730:	9c 85       	ldd	r25, Y+12	; 0x0c
    5732:	ad 85       	ldd	r26, Y+13	; 0x0d
    5734:	be 85       	ldd	r27, Y+14	; 0x0e
    5736:	20 e0       	ldi	r18, 0x00	; 0
    5738:	30 e0       	ldi	r19, 0x00	; 0
    573a:	a9 01       	movw	r20, r18
    573c:	bc 01       	movw	r22, r24
    573e:	cd 01       	movw	r24, r26
    5740:	0e 94 c2 32 	call	0x6584	; 0x6584 <__cmpsf2>
    5744:	88 23       	and	r24, r24
    5746:	9c f4       	brge	.+38     	; 0x576e <ftoa_sci+0x96>
        *buffer++ = '-';
    5748:	89 85       	ldd	r24, Y+9	; 0x09
    574a:	9a 85       	ldd	r25, Y+10	; 0x0a
    574c:	9c 01       	movw	r18, r24
    574e:	2f 5f       	subi	r18, 0xFF	; 255
    5750:	3f 4f       	sbci	r19, 0xFF	; 255
    5752:	29 87       	std	Y+9, r18	; 0x09
    5754:	3a 87       	std	Y+10, r19	; 0x0a
    5756:	2d e2       	ldi	r18, 0x2D	; 45
    5758:	fc 01       	movw	r30, r24
    575a:	20 83       	st	Z, r18
        value = -value;
    575c:	8b 85       	ldd	r24, Y+11	; 0x0b
    575e:	9c 85       	ldd	r25, Y+12	; 0x0c
    5760:	ad 85       	ldd	r26, Y+13	; 0x0d
    5762:	be 85       	ldd	r27, Y+14	; 0x0e
    5764:	b0 58       	subi	r27, 0x80	; 128
    5766:	8b 87       	std	Y+11, r24	; 0x0b
    5768:	9c 87       	std	Y+12, r25	; 0x0c
    576a:	ad 87       	std	Y+13, r26	; 0x0d
    576c:	be 87       	std	Y+14, r27	; 0x0e
    }

    exponent = normalize(&value);
    576e:	ce 01       	movw	r24, r28
    5770:	0b 96       	adiw	r24, 0x0b	; 11
    5772:	0e 94 b0 29 	call	0x5360	; 0x5360 <normalize>
    5776:	8b 83       	std	Y+3, r24	; 0x03
    5778:	9c 83       	std	Y+4, r25	; 0x04

    int digit = value * 10.0;
    577a:	8b 85       	ldd	r24, Y+11	; 0x0b
    577c:	9c 85       	ldd	r25, Y+12	; 0x0c
    577e:	ad 85       	ldd	r26, Y+13	; 0x0d
    5780:	be 85       	ldd	r27, Y+14	; 0x0e
    5782:	20 e0       	ldi	r18, 0x00	; 0
    5784:	30 e0       	ldi	r19, 0x00	; 0
    5786:	40 e2       	ldi	r20, 0x20	; 32
    5788:	51 e4       	ldi	r21, 0x41	; 65
    578a:	bc 01       	movw	r22, r24
    578c:	cd 01       	movw	r24, r26
    578e:	0e 94 26 34 	call	0x684c	; 0x684c <__mulsf3>
    5792:	dc 01       	movw	r26, r24
    5794:	cb 01       	movw	r24, r22
    5796:	bc 01       	movw	r22, r24
    5798:	cd 01       	movw	r24, r26
    579a:	0e 94 39 33 	call	0x6672	; 0x6672 <__fixsfsi>
    579e:	dc 01       	movw	r26, r24
    57a0:	cb 01       	movw	r24, r22
    57a2:	8d 83       	std	Y+5, r24	; 0x05
    57a4:	9e 83       	std	Y+6, r25	; 0x06
    *buffer++ = digit + '0';
    57a6:	89 85       	ldd	r24, Y+9	; 0x09
    57a8:	9a 85       	ldd	r25, Y+10	; 0x0a
    57aa:	9c 01       	movw	r18, r24
    57ac:	2f 5f       	subi	r18, 0xFF	; 255
    57ae:	3f 4f       	sbci	r19, 0xFF	; 255
    57b0:	29 87       	std	Y+9, r18	; 0x09
    57b2:	3a 87       	std	Y+10, r19	; 0x0a
    57b4:	2d 81       	ldd	r18, Y+5	; 0x05
    57b6:	20 5d       	subi	r18, 0xD0	; 208
    57b8:	fc 01       	movw	r30, r24
    57ba:	20 83       	st	Z, r18
    value = value * 10.0 - digit;
    57bc:	8b 85       	ldd	r24, Y+11	; 0x0b
    57be:	9c 85       	ldd	r25, Y+12	; 0x0c
    57c0:	ad 85       	ldd	r26, Y+13	; 0x0d
    57c2:	be 85       	ldd	r27, Y+14	; 0x0e
    57c4:	20 e0       	ldi	r18, 0x00	; 0
    57c6:	30 e0       	ldi	r19, 0x00	; 0
    57c8:	40 e2       	ldi	r20, 0x20	; 32
    57ca:	51 e4       	ldi	r21, 0x41	; 65
    57cc:	bc 01       	movw	r22, r24
    57ce:	cd 01       	movw	r24, r26
    57d0:	0e 94 26 34 	call	0x684c	; 0x684c <__mulsf3>
    57d4:	dc 01       	movw	r26, r24
    57d6:	cb 01       	movw	r24, r22
    57d8:	6c 01       	movw	r12, r24
    57da:	7d 01       	movw	r14, r26
    57dc:	8d 81       	ldd	r24, Y+5	; 0x05
    57de:	9e 81       	ldd	r25, Y+6	; 0x06
    57e0:	09 2e       	mov	r0, r25
    57e2:	00 0c       	add	r0, r0
    57e4:	aa 0b       	sbc	r26, r26
    57e6:	bb 0b       	sbc	r27, r27
    57e8:	bc 01       	movw	r22, r24
    57ea:	cd 01       	movw	r24, r26
    57ec:	0e 94 71 33 	call	0x66e2	; 0x66e2 <__floatsisf>
    57f0:	dc 01       	movw	r26, r24
    57f2:	cb 01       	movw	r24, r22
    57f4:	9c 01       	movw	r18, r24
    57f6:	ad 01       	movw	r20, r26
    57f8:	c7 01       	movw	r24, r14
    57fa:	b6 01       	movw	r22, r12
    57fc:	0e 94 55 32 	call	0x64aa	; 0x64aa <__subsf3>
    5800:	dc 01       	movw	r26, r24
    5802:	cb 01       	movw	r24, r22
    5804:	8b 87       	std	Y+11, r24	; 0x0b
    5806:	9c 87       	std	Y+12, r25	; 0x0c
    5808:	ad 87       	std	Y+13, r26	; 0x0d
    580a:	be 87       	std	Y+14, r27	; 0x0e
    --exponent;
    580c:	8b 81       	ldd	r24, Y+3	; 0x03
    580e:	9c 81       	ldd	r25, Y+4	; 0x04
    5810:	01 97       	sbiw	r24, 0x01	; 1
    5812:	8b 83       	std	Y+3, r24	; 0x03
    5814:	9c 83       	std	Y+4, r25	; 0x04

    *buffer++ = '.';
    5816:	89 85       	ldd	r24, Y+9	; 0x09
    5818:	9a 85       	ldd	r25, Y+10	; 0x0a
    581a:	9c 01       	movw	r18, r24
    581c:	2f 5f       	subi	r18, 0xFF	; 255
    581e:	3f 4f       	sbci	r19, 0xFF	; 255
    5820:	29 87       	std	Y+9, r18	; 0x09
    5822:	3a 87       	std	Y+10, r19	; 0x0a
    5824:	2e e2       	ldi	r18, 0x2E	; 46
    5826:	fc 01       	movw	r30, r24
    5828:	20 83       	st	Z, r18

    for (int i = 0; i < width; i++) {
    582a:	19 82       	std	Y+1, r1	; 0x01
    582c:	1a 82       	std	Y+2, r1	; 0x02
    582e:	4e c0       	rjmp	.+156    	; 0x58cc <ftoa_sci+0x1f4>
        int digit = value * 10.0;
    5830:	8b 85       	ldd	r24, Y+11	; 0x0b
    5832:	9c 85       	ldd	r25, Y+12	; 0x0c
    5834:	ad 85       	ldd	r26, Y+13	; 0x0d
    5836:	be 85       	ldd	r27, Y+14	; 0x0e
    5838:	20 e0       	ldi	r18, 0x00	; 0
    583a:	30 e0       	ldi	r19, 0x00	; 0
    583c:	40 e2       	ldi	r20, 0x20	; 32
    583e:	51 e4       	ldi	r21, 0x41	; 65
    5840:	bc 01       	movw	r22, r24
    5842:	cd 01       	movw	r24, r26
    5844:	0e 94 26 34 	call	0x684c	; 0x684c <__mulsf3>
    5848:	dc 01       	movw	r26, r24
    584a:	cb 01       	movw	r24, r22
    584c:	bc 01       	movw	r22, r24
    584e:	cd 01       	movw	r24, r26
    5850:	0e 94 39 33 	call	0x6672	; 0x6672 <__fixsfsi>
    5854:	dc 01       	movw	r26, r24
    5856:	cb 01       	movw	r24, r22
    5858:	8f 83       	std	Y+7, r24	; 0x07
    585a:	98 87       	std	Y+8, r25	; 0x08
        *buffer++ = digit + '0';
    585c:	89 85       	ldd	r24, Y+9	; 0x09
    585e:	9a 85       	ldd	r25, Y+10	; 0x0a
    5860:	9c 01       	movw	r18, r24
    5862:	2f 5f       	subi	r18, 0xFF	; 255
    5864:	3f 4f       	sbci	r19, 0xFF	; 255
    5866:	29 87       	std	Y+9, r18	; 0x09
    5868:	3a 87       	std	Y+10, r19	; 0x0a
    586a:	2f 81       	ldd	r18, Y+7	; 0x07
    586c:	20 5d       	subi	r18, 0xD0	; 208
    586e:	fc 01       	movw	r30, r24
    5870:	20 83       	st	Z, r18
        value = value * 10.0 - digit;
    5872:	8b 85       	ldd	r24, Y+11	; 0x0b
    5874:	9c 85       	ldd	r25, Y+12	; 0x0c
    5876:	ad 85       	ldd	r26, Y+13	; 0x0d
    5878:	be 85       	ldd	r27, Y+14	; 0x0e
    587a:	20 e0       	ldi	r18, 0x00	; 0
    587c:	30 e0       	ldi	r19, 0x00	; 0
    587e:	40 e2       	ldi	r20, 0x20	; 32
    5880:	51 e4       	ldi	r21, 0x41	; 65
    5882:	bc 01       	movw	r22, r24
    5884:	cd 01       	movw	r24, r26
    5886:	0e 94 26 34 	call	0x684c	; 0x684c <__mulsf3>
    588a:	dc 01       	movw	r26, r24
    588c:	cb 01       	movw	r24, r22
    588e:	6c 01       	movw	r12, r24
    5890:	7d 01       	movw	r14, r26
    5892:	8f 81       	ldd	r24, Y+7	; 0x07
    5894:	98 85       	ldd	r25, Y+8	; 0x08
    5896:	09 2e       	mov	r0, r25
    5898:	00 0c       	add	r0, r0
    589a:	aa 0b       	sbc	r26, r26
    589c:	bb 0b       	sbc	r27, r27
    589e:	bc 01       	movw	r22, r24
    58a0:	cd 01       	movw	r24, r26
    58a2:	0e 94 71 33 	call	0x66e2	; 0x66e2 <__floatsisf>
    58a6:	dc 01       	movw	r26, r24
    58a8:	cb 01       	movw	r24, r22
    58aa:	9c 01       	movw	r18, r24
    58ac:	ad 01       	movw	r20, r26
    58ae:	c7 01       	movw	r24, r14
    58b0:	b6 01       	movw	r22, r12
    58b2:	0e 94 55 32 	call	0x64aa	; 0x64aa <__subsf3>
    58b6:	dc 01       	movw	r26, r24
    58b8:	cb 01       	movw	r24, r22
    58ba:	8b 87       	std	Y+11, r24	; 0x0b
    58bc:	9c 87       	std	Y+12, r25	; 0x0c
    58be:	ad 87       	std	Y+13, r26	; 0x0d
    58c0:	be 87       	std	Y+14, r27	; 0x0e
    value = value * 10.0 - digit;
    --exponent;

    *buffer++ = '.';

    for (int i = 0; i < width; i++) {
    58c2:	89 81       	ldd	r24, Y+1	; 0x01
    58c4:	9a 81       	ldd	r25, Y+2	; 0x02
    58c6:	01 96       	adiw	r24, 0x01	; 1
    58c8:	89 83       	std	Y+1, r24	; 0x01
    58ca:	9a 83       	std	Y+2, r25	; 0x02
    58cc:	80 91 91 20 	lds	r24, 0x2091	; 0x802091 <width.5079>
    58d0:	90 91 92 20 	lds	r25, 0x2092	; 0x802092 <width.5079+0x1>
    58d4:	29 81       	ldd	r18, Y+1	; 0x01
    58d6:	3a 81       	ldd	r19, Y+2	; 0x02
    58d8:	28 17       	cp	r18, r24
    58da:	39 07       	cpc	r19, r25
    58dc:	0c f4       	brge	.+2      	; 0x58e0 <ftoa_sci+0x208>
    58de:	a8 cf       	rjmp	.-176    	; 0x5830 <ftoa_sci+0x158>
        int digit = value * 10.0;
        *buffer++ = digit + '0';
        value = value * 10.0 - digit;
    }

    *buffer++ = 'e';
    58e0:	89 85       	ldd	r24, Y+9	; 0x09
    58e2:	9a 85       	ldd	r25, Y+10	; 0x0a
    58e4:	9c 01       	movw	r18, r24
    58e6:	2f 5f       	subi	r18, 0xFF	; 255
    58e8:	3f 4f       	sbci	r19, 0xFF	; 255
    58ea:	29 87       	std	Y+9, r18	; 0x09
    58ec:	3a 87       	std	Y+10, r19	; 0x0a
    58ee:	25 e6       	ldi	r18, 0x65	; 101
    58f0:	fc 01       	movw	r30, r24
    58f2:	20 83       	st	Z, r18
    itoa(exponent, buffer, 10);
    58f4:	29 85       	ldd	r18, Y+9	; 0x09
    58f6:	3a 85       	ldd	r19, Y+10	; 0x0a
    58f8:	8b 81       	ldd	r24, Y+3	; 0x03
    58fa:	9c 81       	ldd	r25, Y+4	; 0x04
    58fc:	4a e0       	ldi	r20, 0x0A	; 10
    58fe:	50 e0       	ldi	r21, 0x00	; 0
    5900:	b9 01       	movw	r22, r18
    5902:	0e 94 eb 34 	call	0x69d6	; 0x69d6 <itoa>
}
    5906:	2e 96       	adiw	r28, 0x0e	; 14
    5908:	cd bf       	out	0x3d, r28	; 61
    590a:	de bf       	out	0x3e, r29	; 62
    590c:	df 91       	pop	r29
    590e:	cf 91       	pop	r28
    5910:	ff 90       	pop	r15
    5912:	ef 90       	pop	r14
    5914:	df 90       	pop	r13
    5916:	cf 90       	pop	r12
    5918:	08 95       	ret

0000591a <vPhase_Detection>:
SemaphoreHandle_t xGlobalProtocolBuffer_A_Key;	//A-Resource for ucGlobalProtocolBuffer_A
SemaphoreHandle_t xGlobalProtocolBuffer_B_Key;	//A-Resource for ucGlobalProtocolBuffer_B


void vPhase_Detection(void *pvParameters) // becomes peak array and position -> detects the phase shift
{
    591a:	cf 92       	push	r12
    591c:	df 92       	push	r13
    591e:	ef 92       	push	r14
    5920:	ff 92       	push	r15
    5922:	0f 93       	push	r16
    5924:	cf 93       	push	r28
    5926:	df 93       	push	r29
    5928:	cd b7       	in	r28, 0x3d	; 61
    592a:	de b7       	in	r29, 0x3e	; 62
    592c:	ca 5a       	subi	r28, 0xAA	; 170
    592e:	d1 09       	sbc	r29, r1
    5930:	cd bf       	out	0x3d, r28	; 61
    5932:	de bf       	out	0x3e, r29	; 62
    5934:	9e 01       	movw	r18, r28
    5936:	27 55       	subi	r18, 0x57	; 87
    5938:	3f 4f       	sbci	r19, 0xFF	; 255
    593a:	f9 01       	movw	r30, r18
    593c:	80 83       	st	Z, r24
    593e:	91 83       	std	Z+1, r25	; 0x01
	unsigned long int control_result;
	int uxBits = 0;
    5940:	19 8e       	std	Y+25, r1	; 0x19
    5942:	1a 8e       	std	Y+26, r1	; 0x1a
	int xreference_H,xreference_L,periode_rms;
	int	check_phase_1, check_phase_2;
	int phase_H[32], phase_L[32];
	int phase_detect_results;
	int check_peak_position;
	int i = 0, j = 0;
    5944:	1b 82       	std	Y+3, r1	; 0x03
    5946:	1c 82       	std	Y+4, r1	; 0x04
    5948:	1d 82       	std	Y+5, r1	; 0x05
    594a:	1e 82       	std	Y+6, r1	; 0x06
	uint16_t ucqambit , ucvalue , uci, ucj, ucl, ucm, uca=0, ucb=0, ucx=0, ucy=0;
    594c:	19 8a       	std	Y+17, r1	; 0x11
    594e:	1a 8a       	std	Y+18, r1	; 0x12
    5950:	1b 8a       	std	Y+19, r1	; 0x13
    5952:	1c 8a       	std	Y+20, r1	; 0x14
    5954:	1b 8e       	std	Y+27, r1	; 0x1b
    5956:	1c 8e       	std	Y+28, r1	; 0x1c
    5958:	1d 8a       	std	Y+21, r1	; 0x15
    595a:	1e 8a       	std	Y+22, r1	; 0x16
	char xOutput1, xOutput2;
	for (;;)
	{
		uxBits = xEventGroupWaitBits(
    595c:	80 91 cb 31 	lds	r24, 0x31CB	; 0x8031cb <xPhaseDetectionEventGroup>
    5960:	90 91 cc 31 	lds	r25, 0x31CC	; 0x8031cc <xPhaseDetectionEventGroup+0x1>
    5964:	cc 24       	eor	r12, r12
    5966:	ca 94       	dec	r12
    5968:	dc 2c       	mov	r13, r12
    596a:	76 01       	movw	r14, r12
    596c:	00 e0       	ldi	r16, 0x00	; 0
    596e:	21 e0       	ldi	r18, 0x01	; 1
    5970:	43 e0       	ldi	r20, 0x03	; 3
    5972:	50 e0       	ldi	r21, 0x00	; 0
    5974:	60 e0       	ldi	r22, 0x00	; 0
    5976:	70 e0       	ldi	r23, 0x00	; 0
    5978:	0e 94 b9 05 	call	0xb72	; 0xb72 <xEventGroupWaitBits>
    597c:	dc 01       	movw	r26, r24
    597e:	cb 01       	movw	r24, r22
    5980:	89 8f       	std	Y+25, r24	; 0x19
    5982:	9a 8f       	std	Y+26, r25	; 0x1a
		portMAX_DELAY );																/* Wait a maximum for either bit to be set. */


		/*Phase Detection */
		
		if ((uxBits & Process_Phase_detectionA)||(uxBits & Process_Phase_detectionB))	/* if Bit phase detection is set -> read out peak array*/
    5984:	89 8d       	ldd	r24, Y+25	; 0x19
    5986:	9a 8d       	ldd	r25, Y+26	; 0x1a
    5988:	81 70       	andi	r24, 0x01	; 1
    598a:	99 27       	eor	r25, r25
    598c:	89 2b       	or	r24, r25
    598e:	39 f4       	brne	.+14     	; 0x599e <vPhase_Detection+0x84>
    5990:	89 8d       	ldd	r24, Y+25	; 0x19
    5992:	9a 8d       	ldd	r25, Y+26	; 0x1a
    5994:	82 70       	andi	r24, 0x02	; 2
    5996:	99 27       	eor	r25, r25
    5998:	89 2b       	or	r24, r25
    599a:	09 f4       	brne	.+2      	; 0x599e <vPhase_Detection+0x84>
    599c:	45 c2       	rjmp	.+1162   	; 0x5e28 <vPhase_Detection+0x50e>
		{
			xreference_H = position_array_H[0]*4;
    599e:	80 91 cd 31 	lds	r24, 0x31CD	; 0x8031cd <position_array_H>
    59a2:	90 91 ce 31 	lds	r25, 0x31CE	; 0x8031ce <position_array_H+0x1>
    59a6:	88 0f       	add	r24, r24
    59a8:	99 1f       	adc	r25, r25
    59aa:	88 0f       	add	r24, r24
    59ac:	99 1f       	adc	r25, r25
    59ae:	8d 8f       	std	Y+29, r24	; 0x1d
    59b0:	9e 8f       	std	Y+30, r25	; 0x1e
			xreference_L = position_array_L[0]*4/3;
    59b2:	80 91 45 31 	lds	r24, 0x3145	; 0x803145 <position_array_L>
    59b6:	90 91 46 31 	lds	r25, 0x3146	; 0x803146 <position_array_L+0x1>
    59ba:	88 0f       	add	r24, r24
    59bc:	99 1f       	adc	r25, r25
    59be:	88 0f       	add	r24, r24
    59c0:	99 1f       	adc	r25, r25
    59c2:	23 e0       	ldi	r18, 0x03	; 3
    59c4:	30 e0       	ldi	r19, 0x00	; 0
    59c6:	b9 01       	movw	r22, r18
    59c8:	0e 94 93 34 	call	0x6926	; 0x6926 <__divmodhi4>
    59cc:	cb 01       	movw	r24, r22
    59ce:	8f 8f       	std	Y+31, r24	; 0x1f
    59d0:	98 a3       	std	Y+32, r25	; 0x20
			periode_rms = position_array_H[0] + position_array_L[0];									/*(peak position of referencsignal added together will give the number of sampels for one sinus periode;*/
    59d2:	20 91 cd 31 	lds	r18, 0x31CD	; 0x8031cd <position_array_H>
    59d6:	30 91 ce 31 	lds	r19, 0x31CE	; 0x8031ce <position_array_H+0x1>
    59da:	80 91 45 31 	lds	r24, 0x3145	; 0x803145 <position_array_L>
    59de:	90 91 46 31 	lds	r25, 0x3146	; 0x803146 <position_array_L+0x1>
    59e2:	82 0f       	add	r24, r18
    59e4:	93 1f       	adc	r25, r19
    59e6:	89 a3       	std	Y+33, r24	; 0x21
    59e8:	9a a3       	std	Y+34, r25	; 0x22
				
			check_phase_1 = xreference_L - xreference_H;								/*check differences between phase_H and phase_L to prove that no reading error happened*/
    59ea:	2f 8d       	ldd	r18, Y+31	; 0x1f
    59ec:	38 a1       	ldd	r19, Y+32	; 0x20
    59ee:	8d 8d       	ldd	r24, Y+29	; 0x1d
    59f0:	9e 8d       	ldd	r25, Y+30	; 0x1e
    59f2:	a9 01       	movw	r20, r18
    59f4:	48 1b       	sub	r20, r24
    59f6:	59 0b       	sbc	r21, r25
    59f8:	ca 01       	movw	r24, r20
    59fa:	8b a3       	std	Y+35, r24	; 0x23
    59fc:	9c a3       	std	Y+36, r25	; 0x24
			check_phase_2 = xreference_H - xreference_L;
    59fe:	2d 8d       	ldd	r18, Y+29	; 0x1d
    5a00:	3e 8d       	ldd	r19, Y+30	; 0x1e
    5a02:	8f 8d       	ldd	r24, Y+31	; 0x1f
    5a04:	98 a1       	ldd	r25, Y+32	; 0x20
    5a06:	f9 01       	movw	r30, r18
    5a08:	e8 1b       	sub	r30, r24
    5a0a:	f9 0b       	sbc	r31, r25
    5a0c:	cf 01       	movw	r24, r30
    5a0e:	8d a3       	std	Y+37, r24	; 0x25
    5a10:	9e a3       	std	Y+38, r25	; 0x26
				
			for (i=0; i<PROTOCOL_BUFFER_SIZE; i++)															/*original variable after testing: peak_array_length*/
    5a12:	1b 82       	std	Y+3, r1	; 0x03
    5a14:	1c 82       	std	Y+4, r1	; 0x04
    5a16:	7f c0       	rjmp	.+254    	; 0x5b16 <vPhase_Detection+0x1fc>
			{
		
					position_array_H[i] = position_array_H[i]; /* Debugging*/
    5a18:	8b 81       	ldd	r24, Y+3	; 0x03
    5a1a:	9c 81       	ldd	r25, Y+4	; 0x04
    5a1c:	88 0f       	add	r24, r24
    5a1e:	99 1f       	adc	r25, r25
    5a20:	83 53       	subi	r24, 0x33	; 51
    5a22:	9e 4c       	sbci	r25, 0xCE	; 206
    5a24:	fc 01       	movw	r30, r24
    5a26:	20 81       	ld	r18, Z
    5a28:	31 81       	ldd	r19, Z+1	; 0x01
    5a2a:	8b 81       	ldd	r24, Y+3	; 0x03
    5a2c:	9c 81       	ldd	r25, Y+4	; 0x04
    5a2e:	88 0f       	add	r24, r24
    5a30:	99 1f       	adc	r25, r25
    5a32:	83 53       	subi	r24, 0x33	; 51
    5a34:	9e 4c       	sbci	r25, 0xCE	; 206
    5a36:	fc 01       	movw	r30, r24
    5a38:	20 83       	st	Z, r18
    5a3a:	31 83       	std	Z+1, r19	; 0x01
					position_array_L[i] = position_array_L[i]; /* Debugging*/
    5a3c:	8b 81       	ldd	r24, Y+3	; 0x03
    5a3e:	9c 81       	ldd	r25, Y+4	; 0x04
    5a40:	88 0f       	add	r24, r24
    5a42:	99 1f       	adc	r25, r25
    5a44:	8b 5b       	subi	r24, 0xBB	; 187
    5a46:	9e 4c       	sbci	r25, 0xCE	; 206
    5a48:	fc 01       	movw	r30, r24
    5a4a:	20 81       	ld	r18, Z
    5a4c:	31 81       	ldd	r19, Z+1	; 0x01
    5a4e:	8b 81       	ldd	r24, Y+3	; 0x03
    5a50:	9c 81       	ldd	r25, Y+4	; 0x04
    5a52:	88 0f       	add	r24, r24
    5a54:	99 1f       	adc	r25, r25
    5a56:	8b 5b       	subi	r24, 0xBB	; 187
    5a58:	9e 4c       	sbci	r25, 0xCE	; 206
    5a5a:	fc 01       	movw	r30, r24
    5a5c:	20 83       	st	Z, r18
    5a5e:	31 83       	std	Z+1, r19	; 0x01
					phase_H[i] = (periode_rms*(j+1) - position_array_H[i]);					/* calculates the distance from high peak to start of next periode.*/
    5a60:	8d 81       	ldd	r24, Y+5	; 0x05
    5a62:	9e 81       	ldd	r25, Y+6	; 0x06
    5a64:	ac 01       	movw	r20, r24
    5a66:	4f 5f       	subi	r20, 0xFF	; 255
    5a68:	5f 4f       	sbci	r21, 0xFF	; 255
    5a6a:	89 a1       	ldd	r24, Y+33	; 0x21
    5a6c:	9a a1       	ldd	r25, Y+34	; 0x22
    5a6e:	48 9f       	mul	r20, r24
    5a70:	90 01       	movw	r18, r0
    5a72:	49 9f       	mul	r20, r25
    5a74:	30 0d       	add	r19, r0
    5a76:	58 9f       	mul	r21, r24
    5a78:	30 0d       	add	r19, r0
    5a7a:	11 24       	eor	r1, r1
    5a7c:	8b 81       	ldd	r24, Y+3	; 0x03
    5a7e:	9c 81       	ldd	r25, Y+4	; 0x04
    5a80:	88 0f       	add	r24, r24
    5a82:	99 1f       	adc	r25, r25
    5a84:	83 53       	subi	r24, 0x33	; 51
    5a86:	9e 4c       	sbci	r25, 0xCE	; 206
    5a88:	fc 01       	movw	r30, r24
    5a8a:	80 81       	ld	r24, Z
    5a8c:	91 81       	ldd	r25, Z+1	; 0x01
    5a8e:	28 1b       	sub	r18, r24
    5a90:	39 0b       	sbc	r19, r25
    5a92:	8b 81       	ldd	r24, Y+3	; 0x03
    5a94:	9c 81       	ldd	r25, Y+4	; 0x04
    5a96:	88 0f       	add	r24, r24
    5a98:	99 1f       	adc	r25, r25
    5a9a:	ae 01       	movw	r20, r28
    5a9c:	4f 5f       	subi	r20, 0xFF	; 255
    5a9e:	5f 4f       	sbci	r21, 0xFF	; 255
    5aa0:	84 0f       	add	r24, r20
    5aa2:	95 1f       	adc	r25, r21
    5aa4:	88 96       	adiw	r24, 0x28	; 40
    5aa6:	fc 01       	movw	r30, r24
    5aa8:	20 83       	st	Z, r18
    5aaa:	31 83       	std	Z+1, r19	; 0x01
					phase_L[i] = (periode_rms*(j+1) - position_array_L[i]);					/* calculates the distance from low peak to start of next periode.*/
    5aac:	8d 81       	ldd	r24, Y+5	; 0x05
    5aae:	9e 81       	ldd	r25, Y+6	; 0x06
    5ab0:	ac 01       	movw	r20, r24
    5ab2:	4f 5f       	subi	r20, 0xFF	; 255
    5ab4:	5f 4f       	sbci	r21, 0xFF	; 255
    5ab6:	89 a1       	ldd	r24, Y+33	; 0x21
    5ab8:	9a a1       	ldd	r25, Y+34	; 0x22
    5aba:	48 9f       	mul	r20, r24
    5abc:	90 01       	movw	r18, r0
    5abe:	49 9f       	mul	r20, r25
    5ac0:	30 0d       	add	r19, r0
    5ac2:	58 9f       	mul	r21, r24
    5ac4:	30 0d       	add	r19, r0
    5ac6:	11 24       	eor	r1, r1
    5ac8:	8b 81       	ldd	r24, Y+3	; 0x03
    5aca:	9c 81       	ldd	r25, Y+4	; 0x04
    5acc:	88 0f       	add	r24, r24
    5ace:	99 1f       	adc	r25, r25
    5ad0:	8b 5b       	subi	r24, 0xBB	; 187
    5ad2:	9e 4c       	sbci	r25, 0xCE	; 206
    5ad4:	fc 01       	movw	r30, r24
    5ad6:	80 81       	ld	r24, Z
    5ad8:	91 81       	ldd	r25, Z+1	; 0x01
    5ada:	28 1b       	sub	r18, r24
    5adc:	39 0b       	sbc	r19, r25
    5ade:	ae 01       	movw	r20, r28
    5ae0:	47 59       	subi	r20, 0x97	; 151
    5ae2:	5f 4f       	sbci	r21, 0xFF	; 255
    5ae4:	8b 81       	ldd	r24, Y+3	; 0x03
    5ae6:	9c 81       	ldd	r25, Y+4	; 0x04
    5ae8:	88 0f       	add	r24, r24
    5aea:	99 1f       	adc	r25, r25
    5aec:	84 0f       	add	r24, r20
    5aee:	95 1f       	adc	r25, r21
    5af0:	fc 01       	movw	r30, r24
    5af2:	20 83       	st	Z, r18
    5af4:	31 83       	std	Z+1, r19	; 0x01
					// Phase High detect
					j++;
    5af6:	8d 81       	ldd	r24, Y+5	; 0x05
    5af8:	9e 81       	ldd	r25, Y+6	; 0x06
    5afa:	01 96       	adiw	r24, 0x01	; 1
    5afc:	8d 83       	std	Y+5, r24	; 0x05
    5afe:	9e 83       	std	Y+6, r25	; 0x06
					if (j == 5)
    5b00:	8d 81       	ldd	r24, Y+5	; 0x05
    5b02:	9e 81       	ldd	r25, Y+6	; 0x06
    5b04:	05 97       	sbiw	r24, 0x05	; 5
    5b06:	11 f4       	brne	.+4      	; 0x5b0c <vPhase_Detection+0x1f2>
					{
						j = 0;
    5b08:	1d 82       	std	Y+5, r1	; 0x05
    5b0a:	1e 82       	std	Y+6, r1	; 0x06
			periode_rms = position_array_H[0] + position_array_L[0];									/*(peak position of referencsignal added together will give the number of sampels for one sinus periode;*/
				
			check_phase_1 = xreference_L - xreference_H;								/*check differences between phase_H and phase_L to prove that no reading error happened*/
			check_phase_2 = xreference_H - xreference_L;
				
			for (i=0; i<PROTOCOL_BUFFER_SIZE; i++)															/*original variable after testing: peak_array_length*/
    5b0c:	8b 81       	ldd	r24, Y+3	; 0x03
    5b0e:	9c 81       	ldd	r25, Y+4	; 0x04
    5b10:	01 96       	adiw	r24, 0x01	; 1
    5b12:	8b 83       	std	Y+3, r24	; 0x03
    5b14:	9c 83       	std	Y+4, r25	; 0x04
    5b16:	8b 81       	ldd	r24, Y+3	; 0x03
    5b18:	9c 81       	ldd	r25, Y+4	; 0x04
    5b1a:	80 97       	sbiw	r24, 0x20	; 32
    5b1c:	0c f4       	brge	.+2      	; 0x5b20 <vPhase_Detection+0x206>
    5b1e:	7c cf       	rjmp	.-264    	; 0x5a18 <vPhase_Detection+0xfe>
					}

			
			
			}
				if (( check_phase_1 < 2 )||( check_phase_2 < 2 ))						/* check if theres no read out error with comparing low peak and high peak position of reference periode.*/
    5b20:	8b a1       	ldd	r24, Y+35	; 0x23
    5b22:	9c a1       	ldd	r25, Y+36	; 0x24
    5b24:	02 97       	sbiw	r24, 0x02	; 2
    5b26:	2c f0       	brlt	.+10     	; 0x5b32 <vPhase_Detection+0x218>
    5b28:	8d a1       	ldd	r24, Y+37	; 0x25
    5b2a:	9e a1       	ldd	r25, Y+38	; 0x26
    5b2c:	02 97       	sbiw	r24, 0x02	; 2
    5b2e:	0c f0       	brlt	.+2      	; 0x5b32 <vPhase_Detection+0x218>
    5b30:	62 c1       	rjmp	.+708    	; 0x5df6 <vPhase_Detection+0x4dc>
				{
				
					 if(xSemaphoreTake( xGlobalProtocolBuffer_A_Key, portMAX_DELAY )) /* has to get deactivated, if only demodulating code has to be tested */					{
    5b32:	80 91 55 32 	lds	r24, 0x3255	; 0x803255 <xGlobalProtocolBuffer_A_Key>
    5b36:	90 91 56 32 	lds	r25, 0x3256	; 0x803256 <xGlobalProtocolBuffer_A_Key+0x1>
    5b3a:	4f ef       	ldi	r20, 0xFF	; 255
    5b3c:	5f ef       	ldi	r21, 0xFF	; 255
    5b3e:	ba 01       	movw	r22, r20
    5b40:	0e 94 09 11 	call	0x2212	; 0x2212 <xQueueSemaphoreTake>
    5b44:	88 23       	and	r24, r24
    5b46:	09 f4       	brne	.+2      	; 0x5b4a <vPhase_Detection+0x230>
    5b48:	a5 c0       	rjmp	.+330    	; 0x5c94 <vPhase_Detection+0x37a>
						for (uci = 0; uci < 8; uci++)									/*For Schleife mit 8 Wiederholungen fr 8 Byte */
    5b4a:	19 86       	std	Y+9, r1	; 0x09
    5b4c:	1a 86       	std	Y+10, r1	; 0x0a
    5b4e:	8d c0       	rjmp	.+282    	; 0x5c6a <vPhase_Detection+0x350>
						{
							for (ucj = 0; ucj < 4; ucj++)								/*For Schleife mit 4 Wiederholungen fr 8 Bits (1Byte)*/
    5b50:	1b 86       	std	Y+11, r1	; 0x0b
    5b52:	1c 86       	std	Y+12, r1	; 0x0c
    5b54:	73 c0       	rjmp	.+230    	; 0x5c3c <vPhase_Detection+0x322>
							{
								ucvalue = phase_H[ucy];									/* result will get calculated from high peak array (low peak array is only used for checking deviations */
    5b56:	8d 89       	ldd	r24, Y+21	; 0x15
    5b58:	9e 89       	ldd	r25, Y+22	; 0x16
    5b5a:	88 0f       	add	r24, r24
    5b5c:	99 1f       	adc	r25, r25
    5b5e:	9e 01       	movw	r18, r28
    5b60:	2f 5f       	subi	r18, 0xFF	; 255
    5b62:	3f 4f       	sbci	r19, 0xFF	; 255
    5b64:	82 0f       	add	r24, r18
    5b66:	93 1f       	adc	r25, r19
    5b68:	88 96       	adiw	r24, 0x28	; 40
    5b6a:	fc 01       	movw	r30, r24
    5b6c:	80 81       	ld	r24, Z
    5b6e:	91 81       	ldd	r25, Z+1	; 0x01
    5b70:	8f a3       	std	Y+39, r24	; 0x27
    5b72:	98 a7       	std	Y+40, r25	; 0x28
								ucy++;
    5b74:	8d 89       	ldd	r24, Y+21	; 0x15
    5b76:	9e 89       	ldd	r25, Y+22	; 0x16
    5b78:	01 96       	adiw	r24, 0x01	; 1
    5b7a:	8d 8b       	std	Y+21, r24	; 0x15
    5b7c:	9e 8b       	std	Y+22, r25	; 0x16
								if((ucvalue < 10) && (ucvalue > 1))	/* 180 */
    5b7e:	8f a1       	ldd	r24, Y+39	; 0x27
    5b80:	98 a5       	ldd	r25, Y+40	; 0x28
    5b82:	0a 97       	sbiw	r24, 0x0a	; 10
    5b84:	78 f4       	brcc	.+30     	; 0x5ba4 <vPhase_Detection+0x28a>
    5b86:	8f a1       	ldd	r24, Y+39	; 0x27
    5b88:	98 a5       	ldd	r25, Y+40	; 0x28
    5b8a:	02 97       	sbiw	r24, 0x02	; 2
    5b8c:	58 f0       	brcs	.+22     	; 0x5ba4 <vPhase_Detection+0x28a>
								{
									ucqambit = 0;
    5b8e:	1f 82       	std	Y+7, r1	; 0x07
    5b90:	18 86       	std	Y+8, r1	; 0x08
									check_peak_position = ucvalue * 4;
    5b92:	8f a1       	ldd	r24, Y+39	; 0x27
    5b94:	98 a5       	ldd	r25, Y+40	; 0x28
    5b96:	88 0f       	add	r24, r24
    5b98:	99 1f       	adc	r25, r25
    5b9a:	88 0f       	add	r24, r24
    5b9c:	99 1f       	adc	r25, r25
    5b9e:	89 83       	std	Y+1, r24	; 0x01
    5ba0:	9a 83       	std	Y+2, r25	; 0x02
    5ba2:	3f c0       	rjmp	.+126    	; 0x5c22 <vPhase_Detection+0x308>
								}
								else if((ucvalue < 15) && (ucvalue > 9)) /* 270 */
    5ba4:	8f a1       	ldd	r24, Y+39	; 0x27
    5ba6:	98 a5       	ldd	r25, Y+40	; 0x28
    5ba8:	0f 97       	sbiw	r24, 0x0f	; 15
    5baa:	78 f4       	brcc	.+30     	; 0x5bca <vPhase_Detection+0x2b0>
    5bac:	8f a1       	ldd	r24, Y+39	; 0x27
    5bae:	98 a5       	ldd	r25, Y+40	; 0x28
    5bb0:	0a 97       	sbiw	r24, 0x0a	; 10
    5bb2:	58 f0       	brcs	.+22     	; 0x5bca <vPhase_Detection+0x2b0>
								{
									ucqambit = 1;
    5bb4:	81 e0       	ldi	r24, 0x01	; 1
    5bb6:	90 e0       	ldi	r25, 0x00	; 0
    5bb8:	8f 83       	std	Y+7, r24	; 0x07
    5bba:	98 87       	std	Y+8, r25	; 0x08
									check_peak_position = ucvalue * 2;
    5bbc:	8f a1       	ldd	r24, Y+39	; 0x27
    5bbe:	98 a5       	ldd	r25, Y+40	; 0x28
    5bc0:	88 0f       	add	r24, r24
    5bc2:	99 1f       	adc	r25, r25
    5bc4:	89 83       	std	Y+1, r24	; 0x01
    5bc6:	9a 83       	std	Y+2, r25	; 0x02
    5bc8:	2c c0       	rjmp	.+88     	; 0x5c22 <vPhase_Detection+0x308>
								}
								else if((ucvalue < 19) && (ucvalue > 14)) /* 0 */
    5bca:	8f a1       	ldd	r24, Y+39	; 0x27
    5bcc:	98 a5       	ldd	r25, Y+40	; 0x28
    5bce:	43 97       	sbiw	r24, 0x13	; 19
    5bd0:	c0 f4       	brcc	.+48     	; 0x5c02 <vPhase_Detection+0x2e8>
    5bd2:	8f a1       	ldd	r24, Y+39	; 0x27
    5bd4:	98 a5       	ldd	r25, Y+40	; 0x28
    5bd6:	0f 97       	sbiw	r24, 0x0f	; 15
    5bd8:	a0 f0       	brcs	.+40     	; 0x5c02 <vPhase_Detection+0x2e8>
								{
									ucqambit = 2;
    5bda:	82 e0       	ldi	r24, 0x02	; 2
    5bdc:	90 e0       	ldi	r25, 0x00	; 0
    5bde:	8f 83       	std	Y+7, r24	; 0x07
    5be0:	98 87       	std	Y+8, r25	; 0x08
									check_peak_position = ucvalue * 4 / 3;
    5be2:	8f a1       	ldd	r24, Y+39	; 0x27
    5be4:	98 a5       	ldd	r25, Y+40	; 0x28
    5be6:	88 0f       	add	r24, r24
    5be8:	99 1f       	adc	r25, r25
    5bea:	88 0f       	add	r24, r24
    5bec:	99 1f       	adc	r25, r25
    5bee:	9c 01       	movw	r18, r24
    5bf0:	ab ea       	ldi	r26, 0xAB	; 171
    5bf2:	ba ea       	ldi	r27, 0xAA	; 170
    5bf4:	0e 94 af 34 	call	0x695e	; 0x695e <__umulhisi3>
    5bf8:	96 95       	lsr	r25
    5bfa:	87 95       	ror	r24
    5bfc:	89 83       	std	Y+1, r24	; 0x01
    5bfe:	9a 83       	std	Y+2, r25	; 0x02
    5c00:	10 c0       	rjmp	.+32     	; 0x5c22 <vPhase_Detection+0x308>
								}
								else if((ucvalue < 24) && (ucvalue > 18)) /* 90 */
    5c02:	8f a1       	ldd	r24, Y+39	; 0x27
    5c04:	98 a5       	ldd	r25, Y+40	; 0x28
    5c06:	48 97       	sbiw	r24, 0x18	; 24
    5c08:	60 f4       	brcc	.+24     	; 0x5c22 <vPhase_Detection+0x308>
    5c0a:	8f a1       	ldd	r24, Y+39	; 0x27
    5c0c:	98 a5       	ldd	r25, Y+40	; 0x28
    5c0e:	43 97       	sbiw	r24, 0x13	; 19
    5c10:	40 f0       	brcs	.+16     	; 0x5c22 <vPhase_Detection+0x308>
								{
									ucqambit = 3;
    5c12:	83 e0       	ldi	r24, 0x03	; 3
    5c14:	90 e0       	ldi	r25, 0x00	; 0
    5c16:	8f 83       	std	Y+7, r24	; 0x07
    5c18:	98 87       	std	Y+8, r25	; 0x08
									check_peak_position = ucvalue;
    5c1a:	8f a1       	ldd	r24, Y+39	; 0x27
    5c1c:	98 a5       	ldd	r25, Y+40	; 0x28
    5c1e:	89 83       	std	Y+1, r24	; 0x01
    5c20:	9a 83       	std	Y+2, r25	; 0x02
								}
								xOutput1 = (xOutput1 << 2) | (ucqambit & 0x03);
    5c22:	8f 89       	ldd	r24, Y+23	; 0x17
    5c24:	98 2f       	mov	r25, r24
    5c26:	99 0f       	add	r25, r25
    5c28:	99 0f       	add	r25, r25
    5c2a:	8f 81       	ldd	r24, Y+7	; 0x07
    5c2c:	83 70       	andi	r24, 0x03	; 3
    5c2e:	89 2b       	or	r24, r25
    5c30:	8f 8b       	std	Y+23, r24	; 0x17
				{
				
					 if(xSemaphoreTake( xGlobalProtocolBuffer_A_Key, portMAX_DELAY )) /* has to get deactivated, if only demodulating code has to be tested */					{
						for (uci = 0; uci < 8; uci++)									/*For Schleife mit 8 Wiederholungen fr 8 Byte */
						{
							for (ucj = 0; ucj < 4; ucj++)								/*For Schleife mit 4 Wiederholungen fr 8 Bits (1Byte)*/
    5c32:	8b 85       	ldd	r24, Y+11	; 0x0b
    5c34:	9c 85       	ldd	r25, Y+12	; 0x0c
    5c36:	01 96       	adiw	r24, 0x01	; 1
    5c38:	8b 87       	std	Y+11, r24	; 0x0b
    5c3a:	9c 87       	std	Y+12, r25	; 0x0c
    5c3c:	8b 85       	ldd	r24, Y+11	; 0x0b
    5c3e:	9c 85       	ldd	r25, Y+12	; 0x0c
    5c40:	04 97       	sbiw	r24, 0x04	; 4
    5c42:	08 f4       	brcc	.+2      	; 0x5c46 <vPhase_Detection+0x32c>
    5c44:	88 cf       	rjmp	.-240    	; 0x5b56 <vPhase_Detection+0x23c>
									ucqambit = 3;
									check_peak_position = ucvalue;
								}
								xOutput1 = (xOutput1 << 2) | (ucqambit & 0x03);
							}
							ucGlobalProtocolBuffer_A[uca] = xOutput1;
    5c46:	89 89       	ldd	r24, Y+17	; 0x11
    5c48:	9a 89       	ldd	r25, Y+18	; 0x12
    5c4a:	86 5f       	subi	r24, 0xF6	; 246
    5c4c:	92 4d       	sbci	r25, 0xD2	; 210
    5c4e:	2f 89       	ldd	r18, Y+23	; 0x17
    5c50:	fc 01       	movw	r30, r24
    5c52:	20 83       	st	Z, r18
							uca++;
    5c54:	89 89       	ldd	r24, Y+17	; 0x11
    5c56:	9a 89       	ldd	r25, Y+18	; 0x12
    5c58:	01 96       	adiw	r24, 0x01	; 1
    5c5a:	89 8b       	std	Y+17, r24	; 0x11
    5c5c:	9a 8b       	std	Y+18, r25	; 0x12
							xOutput1 = 0;
    5c5e:	1f 8a       	std	Y+23, r1	; 0x17
			}
				if (( check_phase_1 < 2 )||( check_phase_2 < 2 ))						/* check if theres no read out error with comparing low peak and high peak position of reference periode.*/
				{
				
					 if(xSemaphoreTake( xGlobalProtocolBuffer_A_Key, portMAX_DELAY )) /* has to get deactivated, if only demodulating code has to be tested */					{
						for (uci = 0; uci < 8; uci++)									/*For Schleife mit 8 Wiederholungen fr 8 Byte */
    5c60:	89 85       	ldd	r24, Y+9	; 0x09
    5c62:	9a 85       	ldd	r25, Y+10	; 0x0a
    5c64:	01 96       	adiw	r24, 0x01	; 1
    5c66:	89 87       	std	Y+9, r24	; 0x09
    5c68:	9a 87       	std	Y+10, r25	; 0x0a
    5c6a:	89 85       	ldd	r24, Y+9	; 0x09
    5c6c:	9a 85       	ldd	r25, Y+10	; 0x0a
    5c6e:	08 97       	sbiw	r24, 0x08	; 8
    5c70:	08 f4       	brcc	.+2      	; 0x5c74 <vPhase_Detection+0x35a>
    5c72:	6e cf       	rjmp	.-292    	; 0x5b50 <vPhase_Detection+0x236>
							}
							ucGlobalProtocolBuffer_A[uca] = xOutput1;
							uca++;
							xOutput1 = 0;
						}
						ucx=0;
    5c74:	1b 8e       	std	Y+27, r1	; 0x1b
    5c76:	1c 8e       	std	Y+28, r1	; 0x1c
						uca=0;
    5c78:	19 8a       	std	Y+17, r1	; 0x11
    5c7a:	1a 8a       	std	Y+18, r1	; 0x12
					 xSemaphoreGive(xGlobalProtocolBuffer_A_Key);			/* has to get deactivated, if only demodulating code has to be tested */
    5c7c:	80 91 55 32 	lds	r24, 0x3255	; 0x803255 <xGlobalProtocolBuffer_A_Key>
    5c80:	90 91 56 32 	lds	r25, 0x3256	; 0x803256 <xGlobalProtocolBuffer_A_Key+0x1>
    5c84:	00 e0       	ldi	r16, 0x00	; 0
    5c86:	20 e0       	ldi	r18, 0x00	; 0
    5c88:	30 e0       	ldi	r19, 0x00	; 0
    5c8a:	a9 01       	movw	r20, r18
    5c8c:	60 e0       	ldi	r22, 0x00	; 0
    5c8e:	70 e0       	ldi	r23, 0x00	; 0
    5c90:	0e 94 27 0f 	call	0x1e4e	; 0x1e4e <xQueueGenericSend>
					}
					
					if(xSemaphoreTake( xGlobalProtocolBuffer_B_Key, portMAX_DELAY ))
    5c94:	80 91 57 32 	lds	r24, 0x3257	; 0x803257 <xGlobalProtocolBuffer_B_Key>
    5c98:	90 91 58 32 	lds	r25, 0x3258	; 0x803258 <xGlobalProtocolBuffer_B_Key+0x1>
    5c9c:	4f ef       	ldi	r20, 0xFF	; 255
    5c9e:	5f ef       	ldi	r21, 0xFF	; 255
    5ca0:	ba 01       	movw	r22, r20
    5ca2:	0e 94 09 11 	call	0x2212	; 0x2212 <xQueueSemaphoreTake>
    5ca6:	88 23       	and	r24, r24
    5ca8:	09 f4       	brne	.+2      	; 0x5cac <vPhase_Detection+0x392>
    5caa:	a5 c0       	rjmp	.+330    	; 0x5df6 <vPhase_Detection+0x4dc>
					{
						for (ucl = 0; ucl < 8; ucl++)
    5cac:	1d 86       	std	Y+13, r1	; 0x0d
    5cae:	1e 86       	std	Y+14, r1	; 0x0e
    5cb0:	8d c0       	rjmp	.+282    	; 0x5dcc <vPhase_Detection+0x4b2>
						{
							for (ucm = 0; ucm < 4; ucm++)
    5cb2:	1f 86       	std	Y+15, r1	; 0x0f
    5cb4:	18 8a       	std	Y+16, r1	; 0x10
    5cb6:	73 c0       	rjmp	.+230    	; 0x5d9e <vPhase_Detection+0x484>
							{
								ucvalue = phase_H[ucy];									/* result will get calculated from high peak array (low peak array is only used for checking deviations */
    5cb8:	8d 89       	ldd	r24, Y+21	; 0x15
    5cba:	9e 89       	ldd	r25, Y+22	; 0x16
    5cbc:	88 0f       	add	r24, r24
    5cbe:	99 1f       	adc	r25, r25
    5cc0:	9e 01       	movw	r18, r28
    5cc2:	2f 5f       	subi	r18, 0xFF	; 255
    5cc4:	3f 4f       	sbci	r19, 0xFF	; 255
    5cc6:	82 0f       	add	r24, r18
    5cc8:	93 1f       	adc	r25, r19
    5cca:	88 96       	adiw	r24, 0x28	; 40
    5ccc:	fc 01       	movw	r30, r24
    5cce:	80 81       	ld	r24, Z
    5cd0:	91 81       	ldd	r25, Z+1	; 0x01
    5cd2:	8f a3       	std	Y+39, r24	; 0x27
    5cd4:	98 a7       	std	Y+40, r25	; 0x28
								ucy++;
    5cd6:	8d 89       	ldd	r24, Y+21	; 0x15
    5cd8:	9e 89       	ldd	r25, Y+22	; 0x16
    5cda:	01 96       	adiw	r24, 0x01	; 1
    5cdc:	8d 8b       	std	Y+21, r24	; 0x15
    5cde:	9e 8b       	std	Y+22, r25	; 0x16
								if((ucvalue < 10) && (ucvalue > 1))	/* 180 */
    5ce0:	8f a1       	ldd	r24, Y+39	; 0x27
    5ce2:	98 a5       	ldd	r25, Y+40	; 0x28
    5ce4:	0a 97       	sbiw	r24, 0x0a	; 10
    5ce6:	78 f4       	brcc	.+30     	; 0x5d06 <vPhase_Detection+0x3ec>
    5ce8:	8f a1       	ldd	r24, Y+39	; 0x27
    5cea:	98 a5       	ldd	r25, Y+40	; 0x28
    5cec:	02 97       	sbiw	r24, 0x02	; 2
    5cee:	58 f0       	brcs	.+22     	; 0x5d06 <vPhase_Detection+0x3ec>
								{
									ucqambit = 0;
    5cf0:	1f 82       	std	Y+7, r1	; 0x07
    5cf2:	18 86       	std	Y+8, r1	; 0x08
									check_peak_position = ucvalue * 4;
    5cf4:	8f a1       	ldd	r24, Y+39	; 0x27
    5cf6:	98 a5       	ldd	r25, Y+40	; 0x28
    5cf8:	88 0f       	add	r24, r24
    5cfa:	99 1f       	adc	r25, r25
    5cfc:	88 0f       	add	r24, r24
    5cfe:	99 1f       	adc	r25, r25
    5d00:	89 83       	std	Y+1, r24	; 0x01
    5d02:	9a 83       	std	Y+2, r25	; 0x02
    5d04:	3f c0       	rjmp	.+126    	; 0x5d84 <vPhase_Detection+0x46a>
								}
								else if((ucvalue < 15) && (ucvalue > 9)) /* 270 */
    5d06:	8f a1       	ldd	r24, Y+39	; 0x27
    5d08:	98 a5       	ldd	r25, Y+40	; 0x28
    5d0a:	0f 97       	sbiw	r24, 0x0f	; 15
    5d0c:	78 f4       	brcc	.+30     	; 0x5d2c <vPhase_Detection+0x412>
    5d0e:	8f a1       	ldd	r24, Y+39	; 0x27
    5d10:	98 a5       	ldd	r25, Y+40	; 0x28
    5d12:	0a 97       	sbiw	r24, 0x0a	; 10
    5d14:	58 f0       	brcs	.+22     	; 0x5d2c <vPhase_Detection+0x412>
								{
									ucqambit = 1;
    5d16:	81 e0       	ldi	r24, 0x01	; 1
    5d18:	90 e0       	ldi	r25, 0x00	; 0
    5d1a:	8f 83       	std	Y+7, r24	; 0x07
    5d1c:	98 87       	std	Y+8, r25	; 0x08
									check_peak_position = ucvalue * 2;
    5d1e:	8f a1       	ldd	r24, Y+39	; 0x27
    5d20:	98 a5       	ldd	r25, Y+40	; 0x28
    5d22:	88 0f       	add	r24, r24
    5d24:	99 1f       	adc	r25, r25
    5d26:	89 83       	std	Y+1, r24	; 0x01
    5d28:	9a 83       	std	Y+2, r25	; 0x02
    5d2a:	2c c0       	rjmp	.+88     	; 0x5d84 <vPhase_Detection+0x46a>
								}
								else if((ucvalue < 19) && (ucvalue > 14)) /* 0 */
    5d2c:	8f a1       	ldd	r24, Y+39	; 0x27
    5d2e:	98 a5       	ldd	r25, Y+40	; 0x28
    5d30:	43 97       	sbiw	r24, 0x13	; 19
    5d32:	c0 f4       	brcc	.+48     	; 0x5d64 <vPhase_Detection+0x44a>
    5d34:	8f a1       	ldd	r24, Y+39	; 0x27
    5d36:	98 a5       	ldd	r25, Y+40	; 0x28
    5d38:	0f 97       	sbiw	r24, 0x0f	; 15
    5d3a:	a0 f0       	brcs	.+40     	; 0x5d64 <vPhase_Detection+0x44a>
								{
									ucqambit = 2;
    5d3c:	82 e0       	ldi	r24, 0x02	; 2
    5d3e:	90 e0       	ldi	r25, 0x00	; 0
    5d40:	8f 83       	std	Y+7, r24	; 0x07
    5d42:	98 87       	std	Y+8, r25	; 0x08
									check_peak_position = ucvalue * 4 / 3;
    5d44:	8f a1       	ldd	r24, Y+39	; 0x27
    5d46:	98 a5       	ldd	r25, Y+40	; 0x28
    5d48:	88 0f       	add	r24, r24
    5d4a:	99 1f       	adc	r25, r25
    5d4c:	88 0f       	add	r24, r24
    5d4e:	99 1f       	adc	r25, r25
    5d50:	9c 01       	movw	r18, r24
    5d52:	ab ea       	ldi	r26, 0xAB	; 171
    5d54:	ba ea       	ldi	r27, 0xAA	; 170
    5d56:	0e 94 af 34 	call	0x695e	; 0x695e <__umulhisi3>
    5d5a:	96 95       	lsr	r25
    5d5c:	87 95       	ror	r24
    5d5e:	89 83       	std	Y+1, r24	; 0x01
    5d60:	9a 83       	std	Y+2, r25	; 0x02
    5d62:	10 c0       	rjmp	.+32     	; 0x5d84 <vPhase_Detection+0x46a>
								}
								else if((ucvalue < 23) && (ucvalue > 18)) /* 90 */
    5d64:	8f a1       	ldd	r24, Y+39	; 0x27
    5d66:	98 a5       	ldd	r25, Y+40	; 0x28
    5d68:	47 97       	sbiw	r24, 0x17	; 23
    5d6a:	60 f4       	brcc	.+24     	; 0x5d84 <vPhase_Detection+0x46a>
    5d6c:	8f a1       	ldd	r24, Y+39	; 0x27
    5d6e:	98 a5       	ldd	r25, Y+40	; 0x28
    5d70:	43 97       	sbiw	r24, 0x13	; 19
    5d72:	40 f0       	brcs	.+16     	; 0x5d84 <vPhase_Detection+0x46a>
								{
									ucqambit = 3;
    5d74:	83 e0       	ldi	r24, 0x03	; 3
    5d76:	90 e0       	ldi	r25, 0x00	; 0
    5d78:	8f 83       	std	Y+7, r24	; 0x07
    5d7a:	98 87       	std	Y+8, r25	; 0x08
									check_peak_position = ucvalue;
    5d7c:	8f a1       	ldd	r24, Y+39	; 0x27
    5d7e:	98 a5       	ldd	r25, Y+40	; 0x28
    5d80:	89 83       	std	Y+1, r24	; 0x01
    5d82:	9a 83       	std	Y+2, r25	; 0x02
								}
								xOutput2 = (xOutput2 << 2) | (ucqambit & 0x03);
    5d84:	88 8d       	ldd	r24, Y+24	; 0x18
    5d86:	98 2f       	mov	r25, r24
    5d88:	99 0f       	add	r25, r25
    5d8a:	99 0f       	add	r25, r25
    5d8c:	8f 81       	ldd	r24, Y+7	; 0x07
    5d8e:	83 70       	andi	r24, 0x03	; 3
    5d90:	89 2b       	or	r24, r25
    5d92:	88 8f       	std	Y+24, r24	; 0x18
					
					if(xSemaphoreTake( xGlobalProtocolBuffer_B_Key, portMAX_DELAY ))
					{
						for (ucl = 0; ucl < 8; ucl++)
						{
							for (ucm = 0; ucm < 4; ucm++)
    5d94:	8f 85       	ldd	r24, Y+15	; 0x0f
    5d96:	98 89       	ldd	r25, Y+16	; 0x10
    5d98:	01 96       	adiw	r24, 0x01	; 1
    5d9a:	8f 87       	std	Y+15, r24	; 0x0f
    5d9c:	98 8b       	std	Y+16, r25	; 0x10
    5d9e:	8f 85       	ldd	r24, Y+15	; 0x0f
    5da0:	98 89       	ldd	r25, Y+16	; 0x10
    5da2:	04 97       	sbiw	r24, 0x04	; 4
    5da4:	08 f4       	brcc	.+2      	; 0x5da8 <vPhase_Detection+0x48e>
    5da6:	88 cf       	rjmp	.-240    	; 0x5cb8 <vPhase_Detection+0x39e>
									ucqambit = 3;
									check_peak_position = ucvalue;
								}
								xOutput2 = (xOutput2 << 2) | (ucqambit & 0x03);
							}
							ucGlobalProtocolBuffer_B[ucb] = xOutput2;
    5da8:	8b 89       	ldd	r24, Y+19	; 0x13
    5daa:	9c 89       	ldd	r25, Y+20	; 0x14
    5dac:	86 5d       	subi	r24, 0xD6	; 214
    5dae:	92 4d       	sbci	r25, 0xD2	; 210
    5db0:	28 8d       	ldd	r18, Y+24	; 0x18
    5db2:	fc 01       	movw	r30, r24
    5db4:	20 83       	st	Z, r18
							ucb++;
    5db6:	8b 89       	ldd	r24, Y+19	; 0x13
    5db8:	9c 89       	ldd	r25, Y+20	; 0x14
    5dba:	01 96       	adiw	r24, 0x01	; 1
    5dbc:	8b 8b       	std	Y+19, r24	; 0x13
    5dbe:	9c 8b       	std	Y+20, r25	; 0x14
							xOutput2 = 0;
    5dc0:	18 8e       	std	Y+24, r1	; 0x18
					 xSemaphoreGive(xGlobalProtocolBuffer_A_Key);			/* has to get deactivated, if only demodulating code has to be tested */
					}
					
					if(xSemaphoreTake( xGlobalProtocolBuffer_B_Key, portMAX_DELAY ))
					{
						for (ucl = 0; ucl < 8; ucl++)
    5dc2:	8d 85       	ldd	r24, Y+13	; 0x0d
    5dc4:	9e 85       	ldd	r25, Y+14	; 0x0e
    5dc6:	01 96       	adiw	r24, 0x01	; 1
    5dc8:	8d 87       	std	Y+13, r24	; 0x0d
    5dca:	9e 87       	std	Y+14, r25	; 0x0e
    5dcc:	8d 85       	ldd	r24, Y+13	; 0x0d
    5dce:	9e 85       	ldd	r25, Y+14	; 0x0e
    5dd0:	08 97       	sbiw	r24, 0x08	; 8
    5dd2:	08 f4       	brcc	.+2      	; 0x5dd6 <vPhase_Detection+0x4bc>
    5dd4:	6e cf       	rjmp	.-292    	; 0x5cb2 <vPhase_Detection+0x398>
							}
							ucGlobalProtocolBuffer_B[ucb] = xOutput2;
							ucb++;
							xOutput2 = 0;
						}
						ucy=0;
    5dd6:	1d 8a       	std	Y+21, r1	; 0x15
    5dd8:	1e 8a       	std	Y+22, r1	; 0x16
						ucb=0;
    5dda:	1b 8a       	std	Y+19, r1	; 0x13
    5ddc:	1c 8a       	std	Y+20, r1	; 0x14
						xSemaphoreGive(xGlobalProtocolBuffer_B_Key);
    5dde:	80 91 57 32 	lds	r24, 0x3257	; 0x803257 <xGlobalProtocolBuffer_B_Key>
    5de2:	90 91 58 32 	lds	r25, 0x3258	; 0x803258 <xGlobalProtocolBuffer_B_Key+0x1>
    5de6:	00 e0       	ldi	r16, 0x00	; 0
    5de8:	20 e0       	ldi	r18, 0x00	; 0
    5dea:	30 e0       	ldi	r19, 0x00	; 0
    5dec:	a9 01       	movw	r20, r18
    5dee:	60 e0       	ldi	r22, 0x00	; 0
    5df0:	70 e0       	ldi	r23, 0x00	; 0
    5df2:	0e 94 27 0f 	call	0x1e4e	; 0x1e4e <xQueueGenericSend>
					/*read error is occured, phase_H and phase_L do not correspond to each other */		
					/* make a error function here */	
				}
					
				
				if(check_peak_position > periode_rms)
    5df6:	29 81       	ldd	r18, Y+1	; 0x01
    5df8:	3a 81       	ldd	r19, Y+2	; 0x02
    5dfa:	89 a1       	ldd	r24, Y+33	; 0x21
    5dfc:	9a a1       	ldd	r25, Y+34	; 0x22
    5dfe:	82 17       	cp	r24, r18
    5e00:	93 07       	cpc	r25, r19
    5e02:	34 f4       	brge	.+12     	; 0x5e10 <vPhase_Detection+0x4f6>
				{
					periode_rms = periode_rms + 1;										/*if check variable bigger than periode, then decrease periode*/
    5e04:	89 a1       	ldd	r24, Y+33	; 0x21
    5e06:	9a a1       	ldd	r25, Y+34	; 0x22
    5e08:	01 96       	adiw	r24, 0x01	; 1
    5e0a:	89 a3       	std	Y+33, r24	; 0x21
    5e0c:	9a a3       	std	Y+34, r25	; 0x22
    5e0e:	0c c0       	rjmp	.+24     	; 0x5e28 <vPhase_Detection+0x50e>
				}
				else if (check_peak_position < periode_rms)
    5e10:	29 81       	ldd	r18, Y+1	; 0x01
    5e12:	3a 81       	ldd	r19, Y+2	; 0x02
    5e14:	89 a1       	ldd	r24, Y+33	; 0x21
    5e16:	9a a1       	ldd	r25, Y+34	; 0x22
    5e18:	28 17       	cp	r18, r24
    5e1a:	39 07       	cpc	r19, r25
    5e1c:	2c f4       	brge	.+10     	; 0x5e28 <vPhase_Detection+0x50e>
				{
					periode_rms = periode_rms - 1;										/*if prf variable bigger than periode, then increase periode*/
    5e1e:	89 a1       	ldd	r24, Y+33	; 0x21
    5e20:	9a a1       	ldd	r25, Y+34	; 0x22
    5e22:	01 97       	sbiw	r24, 0x01	; 1
    5e24:	89 a3       	std	Y+33, r24	; 0x21
    5e26:	9a a3       	std	Y+34, r25	; 0x22
				}
		}
		
		
		
		vTaskDelay(100 / portTICK_RATE_MS);
    5e28:	64 e6       	ldi	r22, 0x64	; 100
    5e2a:	70 e0       	ldi	r23, 0x00	; 0
    5e2c:	80 e0       	ldi	r24, 0x00	; 0
    5e2e:	90 e0       	ldi	r25, 0x00	; 0
    5e30:	0e 94 ad 15 	call	0x2b5a	; 0x2b5a <vTaskDelay>
	}
    5e34:	93 cd       	rjmp	.-1242   	; 0x595c <vPhase_Detection+0x42>

00005e36 <vRead_Peaks>:
#define peak_array_length 2



void vRead_Peaks(void *pvParameters)
{
    5e36:	cf 92       	push	r12
    5e38:	df 92       	push	r13
    5e3a:	ef 92       	push	r14
    5e3c:	ff 92       	push	r15
    5e3e:	0f 93       	push	r16
    5e40:	cf 93       	push	r28
    5e42:	df 93       	push	r29
    5e44:	cd b7       	in	r28, 0x3d	; 61
    5e46:	de b7       	in	r29, 0x3e	; 62
    5e48:	c3 52       	subi	r28, 0x23	; 35
    5e4a:	d1 40       	sbci	r29, 0x01	; 1
    5e4c:	cd bf       	out	0x3d, r28	; 61
    5e4e:	de bf       	out	0x3e, r29	; 62
    5e50:	9e 01       	movw	r18, r28
    5e52:	2e 5d       	subi	r18, 0xDE	; 222
    5e54:	3e 4f       	sbci	r19, 0xFE	; 254
    5e56:	f9 01       	movw	r30, r18
    5e58:	80 83       	st	Z, r24
    5e5a:	91 83       	std	Z+1, r25	; 0x01
	int high_peak_a = 127;
    5e5c:	8f e7       	ldi	r24, 0x7F	; 127
    5e5e:	90 e0       	ldi	r25, 0x00	; 0
    5e60:	89 8f       	std	Y+25, r24	; 0x19
    5e62:	9a 8f       	std	Y+26, r25	; 0x1a
	int high_peak = 127;
    5e64:	8f e7       	ldi	r24, 0x7F	; 127
    5e66:	90 e0       	ldi	r25, 0x00	; 0
    5e68:	89 83       	std	Y+1, r24	; 0x01
    5e6a:	9a 83       	std	Y+2, r25	; 0x02
	int low_peak_a = 127;
    5e6c:	8f e7       	ldi	r24, 0x7F	; 127
    5e6e:	90 e0       	ldi	r25, 0x00	; 0
    5e70:	8b 8f       	std	Y+27, r24	; 0x1b
    5e72:	9c 8f       	std	Y+28, r25	; 0x1c
	int low_peak = 127;
    5e74:	8f e7       	ldi	r24, 0x7F	; 127
    5e76:	90 e0       	ldi	r25, 0x00	; 0
    5e78:	8b 83       	std	Y+3, r24	; 0x03
    5e7a:	9c 83       	std	Y+4, r25	; 0x04
	int count_array_a = 0;
    5e7c:	1d 82       	std	Y+5, r1	; 0x05
    5e7e:	1e 82       	std	Y+6, r1	; 0x06
	int count_array_b = 0;
    5e80:	1f 82       	std	Y+7, r1	; 0x07
    5e82:	18 86       	std	Y+8, r1	; 0x08
	int count_array_position_H = 0, count_array_position_L = 0;
    5e84:	19 86       	std	Y+9, r1	; 0x09
    5e86:	1a 86       	std	Y+10, r1	; 0x0a
    5e88:	1b 86       	std	Y+11, r1	; 0x0b
    5e8a:	1c 86       	std	Y+12, r1	; 0x0c
	int position_high_peak_a, position_high_peak_b, position_low_peak_a, position_low_peak_b;
	int peak_array_H[64], peak_array_L[64];
	int sinus_status;		// 0 = rising up; 1 = rising down
	int count_after_peak;
	int i = 0;
    5e8c:	1b 8a       	std	Y+19, r1	; 0x13
    5e8e:	1c 8a       	std	Y+20, r1	; 0x14
	//int count_array_a = 0;
	EventBits_t uxBits;
	BaseType_t xResult;
	for (;;)
	{
		uxBits = xEventGroupWaitBits(
    5e90:	80 91 46 2e 	lds	r24, 0x2E46	; 0x802e46 <xSignalProcessEventGroup>
    5e94:	90 91 47 2e 	lds	r25, 0x2E47	; 0x802e47 <xSignalProcessEventGroup+0x1>
    5e98:	cc 24       	eor	r12, r12
    5e9a:	ca 94       	dec	r12
    5e9c:	dc 2c       	mov	r13, r12
    5e9e:	76 01       	movw	r14, r12
    5ea0:	00 e0       	ldi	r16, 0x00	; 0
    5ea2:	21 e0       	ldi	r18, 0x01	; 1
    5ea4:	43 e0       	ldi	r20, 0x03	; 3
    5ea6:	50 e0       	ldi	r21, 0x00	; 0
    5ea8:	60 e0       	ldi	r22, 0x00	; 0
    5eaa:	70 e0       	ldi	r23, 0x00	; 0
    5eac:	0e 94 b9 05 	call	0xb72	; 0xb72 <xEventGroupWaitBits>
    5eb0:	dc 01       	movw	r26, r24
    5eb2:	cb 01       	movw	r24, r22
    5eb4:	8d 8f       	std	Y+29, r24	; 0x1d
    5eb6:	9e 8f       	std	Y+30, r25	; 0x1e
    5eb8:	af 8f       	std	Y+31, r26	; 0x1f
    5eba:	b8 a3       	std	Y+32, r27	; 0x20
		Process_Signal_BufferA | Process_Signal_BufferB,		/* The bits within the event group to wait for. */
		pdTRUE,													/* Bits should be cleared before returning. */
		pdFALSE,												/* Don't wait for both bits, either bit will do. */
		portMAX_DELAY );										/* Wait a maximum for either bit to be set. */
		//process signal values
		if (uxBits & Process_Signal_BufferA)											/* if "BufferA" bit is set, read out bufferA*/
    5ebc:	8d 8d       	ldd	r24, Y+29	; 0x1d
    5ebe:	9e 8d       	ldd	r25, Y+30	; 0x1e
    5ec0:	af 8d       	ldd	r26, Y+31	; 0x1f
    5ec2:	b8 a1       	ldd	r27, Y+32	; 0x20
    5ec4:	81 70       	andi	r24, 0x01	; 1
    5ec6:	99 27       	eor	r25, r25
    5ec8:	aa 27       	eor	r26, r26
    5eca:	bb 27       	eor	r27, r27
    5ecc:	89 2b       	or	r24, r25
    5ece:	8a 2b       	or	r24, r26
    5ed0:	8b 2b       	or	r24, r27
    5ed2:	09 f4       	brne	.+2      	; 0x5ed6 <vRead_Peaks+0xa0>
    5ed4:	43 c1       	rjmp	.+646    	; 0x615c <vRead_Peaks+0x326>
		{
			i = 0;
    5ed6:	1b 8a       	std	Y+19, r1	; 0x13
    5ed8:	1c 8a       	std	Y+20, r1	; 0x14
			for(i=0;i<buffer_length;i++)
    5eda:	1b 8a       	std	Y+19, r1	; 0x13
    5edc:	1c 8a       	std	Y+20, r1	; 0x14
    5ede:	33 c1       	rjmp	.+614    	; 0x6146 <vRead_Peaks+0x310>
			{
				/* HIGH PEAK A*/
				if(count_array_a >= peak_array_length)									/* check if a package is ready to transmit*/
    5ee0:	8d 81       	ldd	r24, Y+5	; 0x05
    5ee2:	9e 81       	ldd	r25, Y+6	; 0x06
    5ee4:	02 97       	sbiw	r24, 0x02	; 2
    5ee6:	a4 f1       	brlt	.+104    	; 0x5f50 <vRead_Peaks+0x11a>
				{
						position_array_H[count_array_position_H] =position_array_H[count_array_position_H];		/*debugging*/
    5ee8:	89 85       	ldd	r24, Y+9	; 0x09
    5eea:	9a 85       	ldd	r25, Y+10	; 0x0a
    5eec:	88 0f       	add	r24, r24
    5eee:	99 1f       	adc	r25, r25
    5ef0:	83 53       	subi	r24, 0x33	; 51
    5ef2:	9e 4c       	sbci	r25, 0xCE	; 206
    5ef4:	fc 01       	movw	r30, r24
    5ef6:	20 81       	ld	r18, Z
    5ef8:	31 81       	ldd	r19, Z+1	; 0x01
    5efa:	89 85       	ldd	r24, Y+9	; 0x09
    5efc:	9a 85       	ldd	r25, Y+10	; 0x0a
    5efe:	88 0f       	add	r24, r24
    5f00:	99 1f       	adc	r25, r25
    5f02:	83 53       	subi	r24, 0x33	; 51
    5f04:	9e 4c       	sbci	r25, 0xCE	; 206
    5f06:	fc 01       	movw	r30, r24
    5f08:	20 83       	st	Z, r18
    5f0a:	31 83       	std	Z+1, r19	; 0x01
						position_array_L[count_array_position_L] = position_array_L[count_array_position_L];	/*debugging*/
    5f0c:	8b 85       	ldd	r24, Y+11	; 0x0b
    5f0e:	9c 85       	ldd	r25, Y+12	; 0x0c
    5f10:	88 0f       	add	r24, r24
    5f12:	99 1f       	adc	r25, r25
    5f14:	8b 5b       	subi	r24, 0xBB	; 187
    5f16:	9e 4c       	sbci	r25, 0xCE	; 206
    5f18:	fc 01       	movw	r30, r24
    5f1a:	20 81       	ld	r18, Z
    5f1c:	31 81       	ldd	r19, Z+1	; 0x01
    5f1e:	8b 85       	ldd	r24, Y+11	; 0x0b
    5f20:	9c 85       	ldd	r25, Y+12	; 0x0c
    5f22:	88 0f       	add	r24, r24
    5f24:	99 1f       	adc	r25, r25
    5f26:	8b 5b       	subi	r24, 0xBB	; 187
    5f28:	9e 4c       	sbci	r25, 0xCE	; 206
    5f2a:	fc 01       	movw	r30, r24
    5f2c:	20 83       	st	Z, r18
    5f2e:	31 83       	std	Z+1, r19	; 0x01
					count_array_a = 0;
    5f30:	1d 82       	std	Y+5, r1	; 0x05
    5f32:	1e 82       	std	Y+6, r1	; 0x06
					xResult = xEventGroupSetBits(										/* Set bit 0 and bit 4 in xEventGroup. */
    5f34:	80 91 cb 31 	lds	r24, 0x31CB	; 0x8031cb <xPhaseDetectionEventGroup>
    5f38:	90 91 cc 31 	lds	r25, 0x31CC	; 0x8031cc <xPhaseDetectionEventGroup+0x1>
    5f3c:	41 e0       	ldi	r20, 0x01	; 1
    5f3e:	50 e0       	ldi	r21, 0x00	; 0
    5f40:	60 e0       	ldi	r22, 0x00	; 0
    5f42:	70 e0       	ldi	r23, 0x00	; 0
    5f44:	0e 94 3c 07 	call	0xe78	; 0xe78 <xEventGroupSetBits>
    5f48:	dc 01       	movw	r26, r24
    5f4a:	cb 01       	movw	r24, r22
    5f4c:	89 a3       	std	Y+33, r24	; 0x21
    5f4e:	f6 c0       	rjmp	.+492    	; 0x613c <vRead_Peaks+0x306>
					Process_Phase_detectionA											/* The bits being set. */
					);
				}
				else
				{
					if (buffer_a[i] > 127)
    5f50:	8b 89       	ldd	r24, Y+19	; 0x13
    5f52:	9c 89       	ldd	r25, Y+20	; 0x14
    5f54:	8c 5f       	subi	r24, 0xFC	; 252
    5f56:	9e 4c       	sbci	r25, 0xCE	; 206
    5f58:	fc 01       	movw	r30, r24
    5f5a:	80 81       	ld	r24, Z
    5f5c:	88 23       	and	r24, r24
    5f5e:	0c f0       	brlt	.+2      	; 0x5f62 <vRead_Peaks+0x12c>
    5f60:	79 c0       	rjmp	.+242    	; 0x6054 <vRead_Peaks+0x21e>
					{
						if (buffer_a[i] > high_peak)									/* after test use buffer_a		//		if buffer bigger than current high_peak*/
    5f62:	8b 89       	ldd	r24, Y+19	; 0x13
    5f64:	9c 89       	ldd	r25, Y+20	; 0x14
    5f66:	8c 5f       	subi	r24, 0xFC	; 252
    5f68:	9e 4c       	sbci	r25, 0xCE	; 206
    5f6a:	fc 01       	movw	r30, r24
    5f6c:	80 81       	ld	r24, Z
    5f6e:	28 2f       	mov	r18, r24
    5f70:	30 e0       	ldi	r19, 0x00	; 0
    5f72:	89 81       	ldd	r24, Y+1	; 0x01
    5f74:	9a 81       	ldd	r25, Y+2	; 0x02
    5f76:	82 17       	cp	r24, r18
    5f78:	93 07       	cpc	r25, r19
    5f7a:	f4 f4       	brge	.+60     	; 0x5fb8 <vRead_Peaks+0x182>
						{
							if (buffer_a[i] > 220)
    5f7c:	8b 89       	ldd	r24, Y+19	; 0x13
    5f7e:	9c 89       	ldd	r25, Y+20	; 0x14
    5f80:	8c 5f       	subi	r24, 0xFC	; 252
    5f82:	9e 4c       	sbci	r25, 0xCE	; 206
    5f84:	fc 01       	movw	r30, r24
    5f86:	80 81       	ld	r24, Z
    5f88:	8d 3d       	cpi	r24, 0xDD	; 221
    5f8a:	08 f4       	brcc	.+2      	; 0x5f8e <vRead_Peaks+0x158>
    5f8c:	d7 c0       	rjmp	.+430    	; 0x613c <vRead_Peaks+0x306>
							{
								high_peak = buffer_a[i];								// store new peak
    5f8e:	8b 89       	ldd	r24, Y+19	; 0x13
    5f90:	9c 89       	ldd	r25, Y+20	; 0x14
    5f92:	8c 5f       	subi	r24, 0xFC	; 252
    5f94:	9e 4c       	sbci	r25, 0xCE	; 206
    5f96:	fc 01       	movw	r30, r24
    5f98:	80 81       	ld	r24, Z
    5f9a:	88 2f       	mov	r24, r24
    5f9c:	90 e0       	ldi	r25, 0x00	; 0
    5f9e:	89 83       	std	Y+1, r24	; 0x01
    5fa0:	9a 83       	std	Y+2, r25	; 0x02
								position_high_peak_a = i;								// store array position of new peak
    5fa2:	8b 89       	ldd	r24, Y+19	; 0x13
    5fa4:	9c 89       	ldd	r25, Y+20	; 0x14
    5fa6:	8d 87       	std	Y+13, r24	; 0x0d
    5fa8:	9e 87       	std	Y+14, r25	; 0x0e
								flag_H = 1;
    5faa:	81 e0       	ldi	r24, 0x01	; 1
    5fac:	90 e0       	ldi	r25, 0x00	; 0
    5fae:	8d 8b       	std	Y+21, r24	; 0x15
    5fb0:	9e 8b       	std	Y+22, r25	; 0x16
								flag_L = 0;
    5fb2:	1f 8a       	std	Y+23, r1	; 0x17
    5fb4:	18 8e       	std	Y+24, r1	; 0x18
    5fb6:	c2 c0       	rjmp	.+388    	; 0x613c <vRead_Peaks+0x306>
							}
						}
						else
						{
							if (buffer_a[i] > 170 )
    5fb8:	8b 89       	ldd	r24, Y+19	; 0x13
    5fba:	9c 89       	ldd	r25, Y+20	; 0x14
    5fbc:	8c 5f       	subi	r24, 0xFC	; 252
    5fbe:	9e 4c       	sbci	r25, 0xCE	; 206
    5fc0:	fc 01       	movw	r30, r24
    5fc2:	80 81       	ld	r24, Z
    5fc4:	8b 3a       	cpi	r24, 0xAB	; 171
    5fc6:	30 f0       	brcs	.+12     	; 0x5fd4 <vRead_Peaks+0x19e>
							{
								count_after_peak++;
    5fc8:	89 89       	ldd	r24, Y+17	; 0x11
    5fca:	9a 89       	ldd	r25, Y+18	; 0x12
    5fcc:	01 96       	adiw	r24, 0x01	; 1
    5fce:	89 8b       	std	Y+17, r24	; 0x11
    5fd0:	9a 8b       	std	Y+18, r25	; 0x12
    5fd2:	b4 c0       	rjmp	.+360    	; 0x613c <vRead_Peaks+0x306>
							}
							else if(buffer_a[i] < 170)
    5fd4:	8b 89       	ldd	r24, Y+19	; 0x13
    5fd6:	9c 89       	ldd	r25, Y+20	; 0x14
    5fd8:	8c 5f       	subi	r24, 0xFC	; 252
    5fda:	9e 4c       	sbci	r25, 0xCE	; 206
    5fdc:	fc 01       	movw	r30, r24
    5fde:	80 81       	ld	r24, Z
    5fe0:	8a 3a       	cpi	r24, 0xAA	; 170
    5fe2:	08 f0       	brcs	.+2      	; 0x5fe6 <vRead_Peaks+0x1b0>
    5fe4:	ab c0       	rjmp	.+342    	; 0x613c <vRead_Peaks+0x306>
							{
								if(flag_H == 1)
    5fe6:	8d 89       	ldd	r24, Y+21	; 0x15
    5fe8:	9e 89       	ldd	r25, Y+22	; 0x16
    5fea:	01 97       	sbiw	r24, 0x01	; 1
    5fec:	09 f0       	breq	.+2      	; 0x5ff0 <vRead_Peaks+0x1ba>
    5fee:	a6 c0       	rjmp	.+332    	; 0x613c <vRead_Peaks+0x306>
								{
									if (count_after_peak > 2)
    5ff0:	89 89       	ldd	r24, Y+17	; 0x11
    5ff2:	9a 89       	ldd	r25, Y+18	; 0x12
    5ff4:	03 97       	sbiw	r24, 0x03	; 3
    5ff6:	0c f4       	brge	.+2      	; 0x5ffa <vRead_Peaks+0x1c4>
    5ff8:	a1 c0       	rjmp	.+322    	; 0x613c <vRead_Peaks+0x306>
									{
										peak_array_H[count_array_position_H] = high_peak;
    5ffa:	89 85       	ldd	r24, Y+9	; 0x09
    5ffc:	9a 85       	ldd	r25, Y+10	; 0x0a
    5ffe:	88 0f       	add	r24, r24
    6000:	99 1f       	adc	r25, r25
    6002:	9e 01       	movw	r18, r28
    6004:	2f 5f       	subi	r18, 0xFF	; 255
    6006:	3f 4f       	sbci	r19, 0xFF	; 255
    6008:	82 0f       	add	r24, r18
    600a:	93 1f       	adc	r25, r19
    600c:	81 96       	adiw	r24, 0x21	; 33
    600e:	29 81       	ldd	r18, Y+1	; 0x01
    6010:	3a 81       	ldd	r19, Y+2	; 0x02
    6012:	fc 01       	movw	r30, r24
    6014:	20 83       	st	Z, r18
    6016:	31 83       	std	Z+1, r19	; 0x01
										position_array_H[count_array_position_H] = position_high_peak_a;
    6018:	89 85       	ldd	r24, Y+9	; 0x09
    601a:	9a 85       	ldd	r25, Y+10	; 0x0a
    601c:	88 0f       	add	r24, r24
    601e:	99 1f       	adc	r25, r25
    6020:	83 53       	subi	r24, 0x33	; 51
    6022:	9e 4c       	sbci	r25, 0xCE	; 206
    6024:	2d 85       	ldd	r18, Y+13	; 0x0d
    6026:	3e 85       	ldd	r19, Y+14	; 0x0e
    6028:	fc 01       	movw	r30, r24
    602a:	20 83       	st	Z, r18
    602c:	31 83       	std	Z+1, r19	; 0x01
										count_array_position_H++;
    602e:	89 85       	ldd	r24, Y+9	; 0x09
    6030:	9a 85       	ldd	r25, Y+10	; 0x0a
    6032:	01 96       	adiw	r24, 0x01	; 1
    6034:	89 87       	std	Y+9, r24	; 0x09
    6036:	9a 87       	std	Y+10, r25	; 0x0a
										count_array_a++;									/* Count up to activate event bit when 16 peaks got collected*/
    6038:	8d 81       	ldd	r24, Y+5	; 0x05
    603a:	9e 81       	ldd	r25, Y+6	; 0x06
    603c:	01 96       	adiw	r24, 0x01	; 1
    603e:	8d 83       	std	Y+5, r24	; 0x05
    6040:	9e 83       	std	Y+6, r25	; 0x06
										high_peak = 127;
    6042:	8f e7       	ldi	r24, 0x7F	; 127
    6044:	90 e0       	ldi	r25, 0x00	; 0
    6046:	89 83       	std	Y+1, r24	; 0x01
    6048:	9a 83       	std	Y+2, r25	; 0x02
										flag_H = 0;
    604a:	1d 8a       	std	Y+21, r1	; 0x15
    604c:	1e 8a       	std	Y+22, r1	; 0x16
										count_after_peak = 0;
    604e:	19 8a       	std	Y+17, r1	; 0x11
    6050:	1a 8a       	std	Y+18, r1	; 0x12
    6052:	74 c0       	rjmp	.+232    	; 0x613c <vRead_Peaks+0x306>
						}
					}
					// LOW PEAK	A
					else
					{
						if (buffer_a[i] < low_peak)										/*if buffer bigger than current high_peak*/
    6054:	8b 89       	ldd	r24, Y+19	; 0x13
    6056:	9c 89       	ldd	r25, Y+20	; 0x14
    6058:	8c 5f       	subi	r24, 0xFC	; 252
    605a:	9e 4c       	sbci	r25, 0xCE	; 206
    605c:	fc 01       	movw	r30, r24
    605e:	80 81       	ld	r24, Z
    6060:	28 2f       	mov	r18, r24
    6062:	30 e0       	ldi	r19, 0x00	; 0
    6064:	8b 81       	ldd	r24, Y+3	; 0x03
    6066:	9c 81       	ldd	r25, Y+4	; 0x04
    6068:	28 17       	cp	r18, r24
    606a:	39 07       	cpc	r19, r25
    606c:	f4 f4       	brge	.+60     	; 0x60aa <vRead_Peaks+0x274>
						{
							if (buffer_a[i] < 40)
    606e:	8b 89       	ldd	r24, Y+19	; 0x13
    6070:	9c 89       	ldd	r25, Y+20	; 0x14
    6072:	8c 5f       	subi	r24, 0xFC	; 252
    6074:	9e 4c       	sbci	r25, 0xCE	; 206
    6076:	fc 01       	movw	r30, r24
    6078:	80 81       	ld	r24, Z
    607a:	88 32       	cpi	r24, 0x28	; 40
    607c:	08 f0       	brcs	.+2      	; 0x6080 <vRead_Peaks+0x24a>
    607e:	5e c0       	rjmp	.+188    	; 0x613c <vRead_Peaks+0x306>
							{
								low_peak = buffer_a[i];									/* store new peak*/
    6080:	8b 89       	ldd	r24, Y+19	; 0x13
    6082:	9c 89       	ldd	r25, Y+20	; 0x14
    6084:	8c 5f       	subi	r24, 0xFC	; 252
    6086:	9e 4c       	sbci	r25, 0xCE	; 206
    6088:	fc 01       	movw	r30, r24
    608a:	80 81       	ld	r24, Z
    608c:	88 2f       	mov	r24, r24
    608e:	90 e0       	ldi	r25, 0x00	; 0
    6090:	8b 83       	std	Y+3, r24	; 0x03
    6092:	9c 83       	std	Y+4, r25	; 0x04
								position_low_peak_a = i;									/* store array position of new peak*/
    6094:	8b 89       	ldd	r24, Y+19	; 0x13
    6096:	9c 89       	ldd	r25, Y+20	; 0x14
    6098:	8f 87       	std	Y+15, r24	; 0x0f
    609a:	98 8b       	std	Y+16, r25	; 0x10
								flag_L = 1;
    609c:	81 e0       	ldi	r24, 0x01	; 1
    609e:	90 e0       	ldi	r25, 0x00	; 0
    60a0:	8f 8b       	std	Y+23, r24	; 0x17
    60a2:	98 8f       	std	Y+24, r25	; 0x18
								flag_H = 0;
    60a4:	1d 8a       	std	Y+21, r1	; 0x15
    60a6:	1e 8a       	std	Y+22, r1	; 0x16
    60a8:	49 c0       	rjmp	.+146    	; 0x613c <vRead_Peaks+0x306>
							}
						}
						else
						{
							if (buffer_a[i] < 85)
    60aa:	8b 89       	ldd	r24, Y+19	; 0x13
    60ac:	9c 89       	ldd	r25, Y+20	; 0x14
    60ae:	8c 5f       	subi	r24, 0xFC	; 252
    60b0:	9e 4c       	sbci	r25, 0xCE	; 206
    60b2:	fc 01       	movw	r30, r24
    60b4:	80 81       	ld	r24, Z
    60b6:	85 35       	cpi	r24, 0x55	; 85
    60b8:	30 f4       	brcc	.+12     	; 0x60c6 <vRead_Peaks+0x290>
							{
								count_after_peak++;
    60ba:	89 89       	ldd	r24, Y+17	; 0x11
    60bc:	9a 89       	ldd	r25, Y+18	; 0x12
    60be:	01 96       	adiw	r24, 0x01	; 1
    60c0:	89 8b       	std	Y+17, r24	; 0x11
    60c2:	9a 8b       	std	Y+18, r25	; 0x12
    60c4:	3b c0       	rjmp	.+118    	; 0x613c <vRead_Peaks+0x306>
							}
							else if (buffer_a[i] > 88)
    60c6:	8b 89       	ldd	r24, Y+19	; 0x13
    60c8:	9c 89       	ldd	r25, Y+20	; 0x14
    60ca:	8c 5f       	subi	r24, 0xFC	; 252
    60cc:	9e 4c       	sbci	r25, 0xCE	; 206
    60ce:	fc 01       	movw	r30, r24
    60d0:	80 81       	ld	r24, Z
    60d2:	89 35       	cpi	r24, 0x59	; 89
    60d4:	98 f1       	brcs	.+102    	; 0x613c <vRead_Peaks+0x306>
							{
								if (flag_L == 1)
    60d6:	8f 89       	ldd	r24, Y+23	; 0x17
    60d8:	98 8d       	ldd	r25, Y+24	; 0x18
    60da:	01 97       	sbiw	r24, 0x01	; 1
    60dc:	79 f5       	brne	.+94     	; 0x613c <vRead_Peaks+0x306>
								{
									if (count_after_peak > 2)
    60de:	89 89       	ldd	r24, Y+17	; 0x11
    60e0:	9a 89       	ldd	r25, Y+18	; 0x12
    60e2:	03 97       	sbiw	r24, 0x03	; 3
    60e4:	5c f1       	brlt	.+86     	; 0x613c <vRead_Peaks+0x306>
									{
										peak_array_L[count_array_position_L] = low_peak;
    60e6:	9e 01       	movw	r18, r28
    60e8:	2e 55       	subi	r18, 0x5E	; 94
    60ea:	3f 4f       	sbci	r19, 0xFF	; 255
    60ec:	8b 85       	ldd	r24, Y+11	; 0x0b
    60ee:	9c 85       	ldd	r25, Y+12	; 0x0c
    60f0:	88 0f       	add	r24, r24
    60f2:	99 1f       	adc	r25, r25
    60f4:	82 0f       	add	r24, r18
    60f6:	93 1f       	adc	r25, r19
    60f8:	2b 81       	ldd	r18, Y+3	; 0x03
    60fa:	3c 81       	ldd	r19, Y+4	; 0x04
    60fc:	fc 01       	movw	r30, r24
    60fe:	20 83       	st	Z, r18
    6100:	31 83       	std	Z+1, r19	; 0x01
										position_array_L[count_array_position_L] = position_low_peak_a;
    6102:	8b 85       	ldd	r24, Y+11	; 0x0b
    6104:	9c 85       	ldd	r25, Y+12	; 0x0c
    6106:	88 0f       	add	r24, r24
    6108:	99 1f       	adc	r25, r25
    610a:	8b 5b       	subi	r24, 0xBB	; 187
    610c:	9e 4c       	sbci	r25, 0xCE	; 206
    610e:	2f 85       	ldd	r18, Y+15	; 0x0f
    6110:	38 89       	ldd	r19, Y+16	; 0x10
    6112:	fc 01       	movw	r30, r24
    6114:	20 83       	st	Z, r18
    6116:	31 83       	std	Z+1, r19	; 0x01
										count_array_position_L++;
    6118:	8b 85       	ldd	r24, Y+11	; 0x0b
    611a:	9c 85       	ldd	r25, Y+12	; 0x0c
    611c:	01 96       	adiw	r24, 0x01	; 1
    611e:	8b 87       	std	Y+11, r24	; 0x0b
    6120:	9c 87       	std	Y+12, r25	; 0x0c
										count_array_a++;										/* Count up to activate event bit when 16 peaks got collected*/
    6122:	8d 81       	ldd	r24, Y+5	; 0x05
    6124:	9e 81       	ldd	r25, Y+6	; 0x06
    6126:	01 96       	adiw	r24, 0x01	; 1
    6128:	8d 83       	std	Y+5, r24	; 0x05
    612a:	9e 83       	std	Y+6, r25	; 0x06
										low_peak = 127;
    612c:	8f e7       	ldi	r24, 0x7F	; 127
    612e:	90 e0       	ldi	r25, 0x00	; 0
    6130:	8b 83       	std	Y+3, r24	; 0x03
    6132:	9c 83       	std	Y+4, r25	; 0x04
										flag_L = 0;
    6134:	1f 8a       	std	Y+23, r1	; 0x17
    6136:	18 8e       	std	Y+24, r1	; 0x18
										count_after_peak = 0;
    6138:	19 8a       	std	Y+17, r1	; 0x11
    613a:	1a 8a       	std	Y+18, r1	; 0x12
		portMAX_DELAY );										/* Wait a maximum for either bit to be set. */
		//process signal values
		if (uxBits & Process_Signal_BufferA)											/* if "BufferA" bit is set, read out bufferA*/
		{
			i = 0;
			for(i=0;i<buffer_length;i++)
    613c:	8b 89       	ldd	r24, Y+19	; 0x13
    613e:	9c 89       	ldd	r25, Y+20	; 0x14
    6140:	01 96       	adiw	r24, 0x01	; 1
    6142:	8b 8b       	std	Y+19, r24	; 0x13
    6144:	9c 8b       	std	Y+20, r25	; 0x14
    6146:	80 91 00 20 	lds	r24, 0x2000	; 0x802000 <__data_start>
    614a:	28 2f       	mov	r18, r24
    614c:	30 e0       	ldi	r19, 0x00	; 0
    614e:	8b 89       	ldd	r24, Y+19	; 0x13
    6150:	9c 89       	ldd	r25, Y+20	; 0x14
    6152:	82 17       	cp	r24, r18
    6154:	93 07       	cpc	r25, r19
    6156:	0c f4       	brge	.+2      	; 0x615a <vRead_Peaks+0x324>
    6158:	c3 ce       	rjmp	.-634    	; 0x5ee0 <vRead_Peaks+0xaa>
    615a:	4d c1       	rjmp	.+666    	; 0x63f6 <vRead_Peaks+0x5c0>
						}
					}
				}
			}
		}
		else if (uxBits & Process_Signal_BufferB)
    615c:	8d 8d       	ldd	r24, Y+29	; 0x1d
    615e:	9e 8d       	ldd	r25, Y+30	; 0x1e
    6160:	af 8d       	ldd	r26, Y+31	; 0x1f
    6162:	b8 a1       	ldd	r27, Y+32	; 0x20
    6164:	82 70       	andi	r24, 0x02	; 2
    6166:	99 27       	eor	r25, r25
    6168:	aa 27       	eor	r26, r26
    616a:	bb 27       	eor	r27, r27
    616c:	89 2b       	or	r24, r25
    616e:	8a 2b       	or	r24, r26
    6170:	8b 2b       	or	r24, r27
    6172:	09 f4       	brne	.+2      	; 0x6176 <vRead_Peaks+0x340>
    6174:	40 c1       	rjmp	.+640    	; 0x63f6 <vRead_Peaks+0x5c0>
		{
			for (i=0;i<buffer_length;i++)													/* after test will be variable buffer_length*/
    6176:	1b 8a       	std	Y+19, r1	; 0x13
    6178:	1c 8a       	std	Y+20, r1	; 0x14
    617a:	33 c1       	rjmp	.+614    	; 0x63e2 <vRead_Peaks+0x5ac>
			{
				if(count_array_b >= peak_array_length)											/* check if package ready to send*/
    617c:	8f 81       	ldd	r24, Y+7	; 0x07
    617e:	98 85       	ldd	r25, Y+8	; 0x08
    6180:	02 97       	sbiw	r24, 0x02	; 2
    6182:	a4 f1       	brlt	.+104    	; 0x61ec <vRead_Peaks+0x3b6>
				{
					position_array_H[count_array_position_H] =position_array_H[count_array_position_H];		/*debugging*/
    6184:	89 85       	ldd	r24, Y+9	; 0x09
    6186:	9a 85       	ldd	r25, Y+10	; 0x0a
    6188:	88 0f       	add	r24, r24
    618a:	99 1f       	adc	r25, r25
    618c:	83 53       	subi	r24, 0x33	; 51
    618e:	9e 4c       	sbci	r25, 0xCE	; 206
    6190:	fc 01       	movw	r30, r24
    6192:	20 81       	ld	r18, Z
    6194:	31 81       	ldd	r19, Z+1	; 0x01
    6196:	89 85       	ldd	r24, Y+9	; 0x09
    6198:	9a 85       	ldd	r25, Y+10	; 0x0a
    619a:	88 0f       	add	r24, r24
    619c:	99 1f       	adc	r25, r25
    619e:	83 53       	subi	r24, 0x33	; 51
    61a0:	9e 4c       	sbci	r25, 0xCE	; 206
    61a2:	fc 01       	movw	r30, r24
    61a4:	20 83       	st	Z, r18
    61a6:	31 83       	std	Z+1, r19	; 0x01
					position_array_L[count_array_position_L] = position_array_L[count_array_position_L];	/*debugging*/
    61a8:	8b 85       	ldd	r24, Y+11	; 0x0b
    61aa:	9c 85       	ldd	r25, Y+12	; 0x0c
    61ac:	88 0f       	add	r24, r24
    61ae:	99 1f       	adc	r25, r25
    61b0:	8b 5b       	subi	r24, 0xBB	; 187
    61b2:	9e 4c       	sbci	r25, 0xCE	; 206
    61b4:	fc 01       	movw	r30, r24
    61b6:	20 81       	ld	r18, Z
    61b8:	31 81       	ldd	r19, Z+1	; 0x01
    61ba:	8b 85       	ldd	r24, Y+11	; 0x0b
    61bc:	9c 85       	ldd	r25, Y+12	; 0x0c
    61be:	88 0f       	add	r24, r24
    61c0:	99 1f       	adc	r25, r25
    61c2:	8b 5b       	subi	r24, 0xBB	; 187
    61c4:	9e 4c       	sbci	r25, 0xCE	; 206
    61c6:	fc 01       	movw	r30, r24
    61c8:	20 83       	st	Z, r18
    61ca:	31 83       	std	Z+1, r19	; 0x01
					count_array_b = 0;
    61cc:	1f 82       	std	Y+7, r1	; 0x07
    61ce:	18 86       	std	Y+8, r1	; 0x08
					xResult = xEventGroupSetBits(												/* Set bit 0 and bit 4 in xEventGroup. */
    61d0:	80 91 cb 31 	lds	r24, 0x31CB	; 0x8031cb <xPhaseDetectionEventGroup>
    61d4:	90 91 cc 31 	lds	r25, 0x31CC	; 0x8031cc <xPhaseDetectionEventGroup+0x1>
    61d8:	42 e0       	ldi	r20, 0x02	; 2
    61da:	50 e0       	ldi	r21, 0x00	; 0
    61dc:	60 e0       	ldi	r22, 0x00	; 0
    61de:	70 e0       	ldi	r23, 0x00	; 0
    61e0:	0e 94 3c 07 	call	0xe78	; 0xe78 <xEventGroupSetBits>
    61e4:	dc 01       	movw	r26, r24
    61e6:	cb 01       	movw	r24, r22
    61e8:	89 a3       	std	Y+33, r24	; 0x21
    61ea:	f6 c0       	rjmp	.+492    	; 0x63d8 <vRead_Peaks+0x5a2>
					);
				}
				else
				{
					/* HIGH PEAK B */
					if (buffer_b[i] > 127)													/* after test: use variable buffer_b */
    61ec:	8b 89       	ldd	r24, Y+19	; 0x13
    61ee:	9c 89       	ldd	r25, Y+20	; 0x14
    61f0:	8c 53       	subi	r24, 0x3C	; 60
    61f2:	9f 4c       	sbci	r25, 0xCF	; 207
    61f4:	fc 01       	movw	r30, r24
    61f6:	80 81       	ld	r24, Z
    61f8:	88 23       	and	r24, r24
    61fa:	0c f0       	brlt	.+2      	; 0x61fe <vRead_Peaks+0x3c8>
    61fc:	79 c0       	rjmp	.+242    	; 0x62f0 <vRead_Peaks+0x4ba>
					{
						if (buffer_b[i] > high_peak)											/*if buffer bigger than current high_peak*/
    61fe:	8b 89       	ldd	r24, Y+19	; 0x13
    6200:	9c 89       	ldd	r25, Y+20	; 0x14
    6202:	8c 53       	subi	r24, 0x3C	; 60
    6204:	9f 4c       	sbci	r25, 0xCF	; 207
    6206:	fc 01       	movw	r30, r24
    6208:	80 81       	ld	r24, Z
    620a:	28 2f       	mov	r18, r24
    620c:	30 e0       	ldi	r19, 0x00	; 0
    620e:	89 81       	ldd	r24, Y+1	; 0x01
    6210:	9a 81       	ldd	r25, Y+2	; 0x02
    6212:	82 17       	cp	r24, r18
    6214:	93 07       	cpc	r25, r19
    6216:	f4 f4       	brge	.+60     	; 0x6254 <vRead_Peaks+0x41e>
						{
							if (buffer_b[i] > 220)
    6218:	8b 89       	ldd	r24, Y+19	; 0x13
    621a:	9c 89       	ldd	r25, Y+20	; 0x14
    621c:	8c 53       	subi	r24, 0x3C	; 60
    621e:	9f 4c       	sbci	r25, 0xCF	; 207
    6220:	fc 01       	movw	r30, r24
    6222:	80 81       	ld	r24, Z
    6224:	8d 3d       	cpi	r24, 0xDD	; 221
    6226:	08 f4       	brcc	.+2      	; 0x622a <vRead_Peaks+0x3f4>
    6228:	d7 c0       	rjmp	.+430    	; 0x63d8 <vRead_Peaks+0x5a2>
							{
								high_peak = buffer_b[i];										/* store new peak*/
    622a:	8b 89       	ldd	r24, Y+19	; 0x13
    622c:	9c 89       	ldd	r25, Y+20	; 0x14
    622e:	8c 53       	subi	r24, 0x3C	; 60
    6230:	9f 4c       	sbci	r25, 0xCF	; 207
    6232:	fc 01       	movw	r30, r24
    6234:	80 81       	ld	r24, Z
    6236:	88 2f       	mov	r24, r24
    6238:	90 e0       	ldi	r25, 0x00	; 0
    623a:	89 83       	std	Y+1, r24	; 0x01
    623c:	9a 83       	std	Y+2, r25	; 0x02
								position_high_peak_a = i;										/* store array position of new peak*/
    623e:	8b 89       	ldd	r24, Y+19	; 0x13
    6240:	9c 89       	ldd	r25, Y+20	; 0x14
    6242:	8d 87       	std	Y+13, r24	; 0x0d
    6244:	9e 87       	std	Y+14, r25	; 0x0e
								flag_H = 1;
    6246:	81 e0       	ldi	r24, 0x01	; 1
    6248:	90 e0       	ldi	r25, 0x00	; 0
    624a:	8d 8b       	std	Y+21, r24	; 0x15
    624c:	9e 8b       	std	Y+22, r25	; 0x16
								flag_L = 0;
    624e:	1f 8a       	std	Y+23, r1	; 0x17
    6250:	18 8e       	std	Y+24, r1	; 0x18
    6252:	c2 c0       	rjmp	.+388    	; 0x63d8 <vRead_Peaks+0x5a2>
							}
						}
						else
						{
							if (buffer_b[i] > 170 )											
    6254:	8b 89       	ldd	r24, Y+19	; 0x13
    6256:	9c 89       	ldd	r25, Y+20	; 0x14
    6258:	8c 53       	subi	r24, 0x3C	; 60
    625a:	9f 4c       	sbci	r25, 0xCF	; 207
    625c:	fc 01       	movw	r30, r24
    625e:	80 81       	ld	r24, Z
    6260:	8b 3a       	cpi	r24, 0xAB	; 171
    6262:	30 f0       	brcs	.+12     	; 0x6270 <vRead_Peaks+0x43a>
							{
								count_after_peak++;
    6264:	89 89       	ldd	r24, Y+17	; 0x11
    6266:	9a 89       	ldd	r25, Y+18	; 0x12
    6268:	01 96       	adiw	r24, 0x01	; 1
    626a:	89 8b       	std	Y+17, r24	; 0x11
    626c:	9a 8b       	std	Y+18, r25	; 0x12
    626e:	b4 c0       	rjmp	.+360    	; 0x63d8 <vRead_Peaks+0x5a2>
							}
							else if(buffer_b[i] < 170)
    6270:	8b 89       	ldd	r24, Y+19	; 0x13
    6272:	9c 89       	ldd	r25, Y+20	; 0x14
    6274:	8c 53       	subi	r24, 0x3C	; 60
    6276:	9f 4c       	sbci	r25, 0xCF	; 207
    6278:	fc 01       	movw	r30, r24
    627a:	80 81       	ld	r24, Z
    627c:	8a 3a       	cpi	r24, 0xAA	; 170
    627e:	08 f0       	brcs	.+2      	; 0x6282 <vRead_Peaks+0x44c>
    6280:	ab c0       	rjmp	.+342    	; 0x63d8 <vRead_Peaks+0x5a2>
							{
								if(flag_H == 1)
    6282:	8d 89       	ldd	r24, Y+21	; 0x15
    6284:	9e 89       	ldd	r25, Y+22	; 0x16
    6286:	01 97       	sbiw	r24, 0x01	; 1
    6288:	09 f0       	breq	.+2      	; 0x628c <vRead_Peaks+0x456>
    628a:	a6 c0       	rjmp	.+332    	; 0x63d8 <vRead_Peaks+0x5a2>
								{
									if (count_after_peak > 2)
    628c:	89 89       	ldd	r24, Y+17	; 0x11
    628e:	9a 89       	ldd	r25, Y+18	; 0x12
    6290:	03 97       	sbiw	r24, 0x03	; 3
    6292:	0c f4       	brge	.+2      	; 0x6296 <vRead_Peaks+0x460>
    6294:	a1 c0       	rjmp	.+322    	; 0x63d8 <vRead_Peaks+0x5a2>
									{
										peak_array_H[count_array_position_H] = high_peak;
    6296:	89 85       	ldd	r24, Y+9	; 0x09
    6298:	9a 85       	ldd	r25, Y+10	; 0x0a
    629a:	88 0f       	add	r24, r24
    629c:	99 1f       	adc	r25, r25
    629e:	9e 01       	movw	r18, r28
    62a0:	2f 5f       	subi	r18, 0xFF	; 255
    62a2:	3f 4f       	sbci	r19, 0xFF	; 255
    62a4:	82 0f       	add	r24, r18
    62a6:	93 1f       	adc	r25, r19
    62a8:	81 96       	adiw	r24, 0x21	; 33
    62aa:	29 81       	ldd	r18, Y+1	; 0x01
    62ac:	3a 81       	ldd	r19, Y+2	; 0x02
    62ae:	fc 01       	movw	r30, r24
    62b0:	20 83       	st	Z, r18
    62b2:	31 83       	std	Z+1, r19	; 0x01
										position_array_H[count_array_position_H] = position_high_peak_a;
    62b4:	89 85       	ldd	r24, Y+9	; 0x09
    62b6:	9a 85       	ldd	r25, Y+10	; 0x0a
    62b8:	88 0f       	add	r24, r24
    62ba:	99 1f       	adc	r25, r25
    62bc:	83 53       	subi	r24, 0x33	; 51
    62be:	9e 4c       	sbci	r25, 0xCE	; 206
    62c0:	2d 85       	ldd	r18, Y+13	; 0x0d
    62c2:	3e 85       	ldd	r19, Y+14	; 0x0e
    62c4:	fc 01       	movw	r30, r24
    62c6:	20 83       	st	Z, r18
    62c8:	31 83       	std	Z+1, r19	; 0x01
										count_array_position_H++;
    62ca:	89 85       	ldd	r24, Y+9	; 0x09
    62cc:	9a 85       	ldd	r25, Y+10	; 0x0a
    62ce:	01 96       	adiw	r24, 0x01	; 1
    62d0:	89 87       	std	Y+9, r24	; 0x09
    62d2:	9a 87       	std	Y+10, r25	; 0x0a
										count_array_b++;										/* Count up to activate event bit when 16 peaks got collected*/
    62d4:	8f 81       	ldd	r24, Y+7	; 0x07
    62d6:	98 85       	ldd	r25, Y+8	; 0x08
    62d8:	01 96       	adiw	r24, 0x01	; 1
    62da:	8f 83       	std	Y+7, r24	; 0x07
    62dc:	98 87       	std	Y+8, r25	; 0x08
										high_peak = 127;
    62de:	8f e7       	ldi	r24, 0x7F	; 127
    62e0:	90 e0       	ldi	r25, 0x00	; 0
    62e2:	89 83       	std	Y+1, r24	; 0x01
    62e4:	9a 83       	std	Y+2, r25	; 0x02
										flag_H = 0;
    62e6:	1d 8a       	std	Y+21, r1	; 0x15
    62e8:	1e 8a       	std	Y+22, r1	; 0x16
										count_after_peak = 0;
    62ea:	19 8a       	std	Y+17, r1	; 0x11
    62ec:	1a 8a       	std	Y+18, r1	; 0x12
    62ee:	74 c0       	rjmp	.+232    	; 0x63d8 <vRead_Peaks+0x5a2>
						}
					}
					/* LOW PEAK	B*/
					else
					{
						if (buffer_b[i] < low_peak)											/*if buffer bigger than current high_peak*/
    62f0:	8b 89       	ldd	r24, Y+19	; 0x13
    62f2:	9c 89       	ldd	r25, Y+20	; 0x14
    62f4:	8c 53       	subi	r24, 0x3C	; 60
    62f6:	9f 4c       	sbci	r25, 0xCF	; 207
    62f8:	fc 01       	movw	r30, r24
    62fa:	80 81       	ld	r24, Z
    62fc:	28 2f       	mov	r18, r24
    62fe:	30 e0       	ldi	r19, 0x00	; 0
    6300:	8b 81       	ldd	r24, Y+3	; 0x03
    6302:	9c 81       	ldd	r25, Y+4	; 0x04
    6304:	28 17       	cp	r18, r24
    6306:	39 07       	cpc	r19, r25
    6308:	f4 f4       	brge	.+60     	; 0x6346 <vRead_Peaks+0x510>
						{
							if (buffer_b[i] < 40)
    630a:	8b 89       	ldd	r24, Y+19	; 0x13
    630c:	9c 89       	ldd	r25, Y+20	; 0x14
    630e:	8c 53       	subi	r24, 0x3C	; 60
    6310:	9f 4c       	sbci	r25, 0xCF	; 207
    6312:	fc 01       	movw	r30, r24
    6314:	80 81       	ld	r24, Z
    6316:	88 32       	cpi	r24, 0x28	; 40
    6318:	08 f0       	brcs	.+2      	; 0x631c <vRead_Peaks+0x4e6>
    631a:	5e c0       	rjmp	.+188    	; 0x63d8 <vRead_Peaks+0x5a2>
							{
								low_peak = buffer_b[i];										/* store new peak*/
    631c:	8b 89       	ldd	r24, Y+19	; 0x13
    631e:	9c 89       	ldd	r25, Y+20	; 0x14
    6320:	8c 53       	subi	r24, 0x3C	; 60
    6322:	9f 4c       	sbci	r25, 0xCF	; 207
    6324:	fc 01       	movw	r30, r24
    6326:	80 81       	ld	r24, Z
    6328:	88 2f       	mov	r24, r24
    632a:	90 e0       	ldi	r25, 0x00	; 0
    632c:	8b 83       	std	Y+3, r24	; 0x03
    632e:	9c 83       	std	Y+4, r25	; 0x04
								position_low_peak_a = i;										/* store array position of new peak*/
    6330:	8b 89       	ldd	r24, Y+19	; 0x13
    6332:	9c 89       	ldd	r25, Y+20	; 0x14
    6334:	8f 87       	std	Y+15, r24	; 0x0f
    6336:	98 8b       	std	Y+16, r25	; 0x10
								flag_L = 1;
    6338:	81 e0       	ldi	r24, 0x01	; 1
    633a:	90 e0       	ldi	r25, 0x00	; 0
    633c:	8f 8b       	std	Y+23, r24	; 0x17
    633e:	98 8f       	std	Y+24, r25	; 0x18
								flag_H = 0;
    6340:	1d 8a       	std	Y+21, r1	; 0x15
    6342:	1e 8a       	std	Y+22, r1	; 0x16
    6344:	49 c0       	rjmp	.+146    	; 0x63d8 <vRead_Peaks+0x5a2>
							}
						}
						else
						{
							if (buffer_b[i] < 88)
    6346:	8b 89       	ldd	r24, Y+19	; 0x13
    6348:	9c 89       	ldd	r25, Y+20	; 0x14
    634a:	8c 53       	subi	r24, 0x3C	; 60
    634c:	9f 4c       	sbci	r25, 0xCF	; 207
    634e:	fc 01       	movw	r30, r24
    6350:	80 81       	ld	r24, Z
    6352:	88 35       	cpi	r24, 0x58	; 88
    6354:	30 f4       	brcc	.+12     	; 0x6362 <vRead_Peaks+0x52c>
							{
								count_after_peak++;
    6356:	89 89       	ldd	r24, Y+17	; 0x11
    6358:	9a 89       	ldd	r25, Y+18	; 0x12
    635a:	01 96       	adiw	r24, 0x01	; 1
    635c:	89 8b       	std	Y+17, r24	; 0x11
    635e:	9a 8b       	std	Y+18, r25	; 0x12
    6360:	3b c0       	rjmp	.+118    	; 0x63d8 <vRead_Peaks+0x5a2>
							}
							else if (buffer_b[i] > 85)
    6362:	8b 89       	ldd	r24, Y+19	; 0x13
    6364:	9c 89       	ldd	r25, Y+20	; 0x14
    6366:	8c 53       	subi	r24, 0x3C	; 60
    6368:	9f 4c       	sbci	r25, 0xCF	; 207
    636a:	fc 01       	movw	r30, r24
    636c:	80 81       	ld	r24, Z
    636e:	86 35       	cpi	r24, 0x56	; 86
    6370:	98 f1       	brcs	.+102    	; 0x63d8 <vRead_Peaks+0x5a2>
							{
								if (flag_L == 1)
    6372:	8f 89       	ldd	r24, Y+23	; 0x17
    6374:	98 8d       	ldd	r25, Y+24	; 0x18
    6376:	01 97       	sbiw	r24, 0x01	; 1
    6378:	79 f5       	brne	.+94     	; 0x63d8 <vRead_Peaks+0x5a2>
								{
									if (count_after_peak > 2)
    637a:	89 89       	ldd	r24, Y+17	; 0x11
    637c:	9a 89       	ldd	r25, Y+18	; 0x12
    637e:	03 97       	sbiw	r24, 0x03	; 3
    6380:	5c f1       	brlt	.+86     	; 0x63d8 <vRead_Peaks+0x5a2>
									{
										peak_array_L[count_array_position_L] = low_peak;
    6382:	9e 01       	movw	r18, r28
    6384:	2e 55       	subi	r18, 0x5E	; 94
    6386:	3f 4f       	sbci	r19, 0xFF	; 255
    6388:	8b 85       	ldd	r24, Y+11	; 0x0b
    638a:	9c 85       	ldd	r25, Y+12	; 0x0c
    638c:	88 0f       	add	r24, r24
    638e:	99 1f       	adc	r25, r25
    6390:	82 0f       	add	r24, r18
    6392:	93 1f       	adc	r25, r19
    6394:	2b 81       	ldd	r18, Y+3	; 0x03
    6396:	3c 81       	ldd	r19, Y+4	; 0x04
    6398:	fc 01       	movw	r30, r24
    639a:	20 83       	st	Z, r18
    639c:	31 83       	std	Z+1, r19	; 0x01
										position_array_L[count_array_position_L] = position_low_peak_a;
    639e:	8b 85       	ldd	r24, Y+11	; 0x0b
    63a0:	9c 85       	ldd	r25, Y+12	; 0x0c
    63a2:	88 0f       	add	r24, r24
    63a4:	99 1f       	adc	r25, r25
    63a6:	8b 5b       	subi	r24, 0xBB	; 187
    63a8:	9e 4c       	sbci	r25, 0xCE	; 206
    63aa:	2f 85       	ldd	r18, Y+15	; 0x0f
    63ac:	38 89       	ldd	r19, Y+16	; 0x10
    63ae:	fc 01       	movw	r30, r24
    63b0:	20 83       	st	Z, r18
    63b2:	31 83       	std	Z+1, r19	; 0x01
										count_array_position_L++;
    63b4:	8b 85       	ldd	r24, Y+11	; 0x0b
    63b6:	9c 85       	ldd	r25, Y+12	; 0x0c
    63b8:	01 96       	adiw	r24, 0x01	; 1
    63ba:	8b 87       	std	Y+11, r24	; 0x0b
    63bc:	9c 87       	std	Y+12, r25	; 0x0c
										count_array_b++;										/* Count up to activate event bit when 16 peaks got collected*/
    63be:	8f 81       	ldd	r24, Y+7	; 0x07
    63c0:	98 85       	ldd	r25, Y+8	; 0x08
    63c2:	01 96       	adiw	r24, 0x01	; 1
    63c4:	8f 83       	std	Y+7, r24	; 0x07
    63c6:	98 87       	std	Y+8, r25	; 0x08
										low_peak = 127;
    63c8:	8f e7       	ldi	r24, 0x7F	; 127
    63ca:	90 e0       	ldi	r25, 0x00	; 0
    63cc:	8b 83       	std	Y+3, r24	; 0x03
    63ce:	9c 83       	std	Y+4, r25	; 0x04
										flag_L = 0;
    63d0:	1f 8a       	std	Y+23, r1	; 0x17
    63d2:	18 8e       	std	Y+24, r1	; 0x18
										count_after_peak = 0;
    63d4:	19 8a       	std	Y+17, r1	; 0x11
    63d6:	1a 8a       	std	Y+18, r1	; 0x12
				}
			}
		}
		else if (uxBits & Process_Signal_BufferB)
		{
			for (i=0;i<buffer_length;i++)													/* after test will be variable buffer_length*/
    63d8:	8b 89       	ldd	r24, Y+19	; 0x13
    63da:	9c 89       	ldd	r25, Y+20	; 0x14
    63dc:	01 96       	adiw	r24, 0x01	; 1
    63de:	8b 8b       	std	Y+19, r24	; 0x13
    63e0:	9c 8b       	std	Y+20, r25	; 0x14
    63e2:	80 91 00 20 	lds	r24, 0x2000	; 0x802000 <__data_start>
    63e6:	28 2f       	mov	r18, r24
    63e8:	30 e0       	ldi	r19, 0x00	; 0
    63ea:	8b 89       	ldd	r24, Y+19	; 0x13
    63ec:	9c 89       	ldd	r25, Y+20	; 0x14
    63ee:	82 17       	cp	r24, r18
    63f0:	93 07       	cpc	r25, r19
    63f2:	0c f4       	brge	.+2      	; 0x63f6 <vRead_Peaks+0x5c0>
    63f4:	c3 ce       	rjmp	.-634    	; 0x617c <vRead_Peaks+0x346>
						}
					}
				}
			}
		}
		vTaskDelay(100 / portTICK_RATE_MS);
    63f6:	64 e6       	ldi	r22, 0x64	; 100
    63f8:	70 e0       	ldi	r23, 0x00	; 0
    63fa:	80 e0       	ldi	r24, 0x00	; 0
    63fc:	90 e0       	ldi	r25, 0x00	; 0
    63fe:	0e 94 ad 15 	call	0x2b5a	; 0x2b5a <vTaskDelay>
	}
    6402:	46 cd       	rjmp	.-1396   	; 0x5e90 <vRead_Peaks+0x5a>

00006404 <getResetReason>:
 *  Author: mburger
 */ 
 #include "avr_compiler.h"
 #include "utils.h"

 resetReason_t getResetReason(void) {
    6404:	cf 93       	push	r28
    6406:	df 93       	push	r29
    6408:	1f 92       	push	r1
    640a:	cd b7       	in	r28, 0x3d	; 61
    640c:	de b7       	in	r29, 0x3e	; 62
	 resetReason_t returnValue = RESETREASON_POWERONRESET;
    640e:	82 e0       	ldi	r24, 0x02	; 2
    6410:	89 83       	std	Y+1, r24	; 0x01
	 // software reset ?
	 if( RST.STATUS & RST_SRF_bm )
    6412:	88 e7       	ldi	r24, 0x78	; 120
    6414:	90 e0       	ldi	r25, 0x00	; 0
    6416:	fc 01       	movw	r30, r24
    6418:	80 81       	ld	r24, Z
    641a:	88 2f       	mov	r24, r24
    641c:	90 e0       	ldi	r25, 0x00	; 0
    641e:	80 72       	andi	r24, 0x20	; 32
    6420:	99 27       	eor	r25, r25
    6422:	89 2b       	or	r24, r25
    6424:	41 f0       	breq	.+16     	; 0x6436 <getResetReason+0x32>
	 {
		 // reset this bit
		 RST.STATUS = RST_SRF_bm;
    6426:	88 e7       	ldi	r24, 0x78	; 120
    6428:	90 e0       	ldi	r25, 0x00	; 0
    642a:	20 e2       	ldi	r18, 0x20	; 32
    642c:	fc 01       	movw	r30, r24
    642e:	20 83       	st	Z, r18
		 returnValue = RESETREASON_SOFTWARERESET;
    6430:	81 e0       	ldi	r24, 0x01	; 1
    6432:	89 83       	std	Y+1, r24	; 0x01
    6434:	35 c0       	rjmp	.+106    	; 0x64a0 <getResetReason+0x9c>
	 }
	 // power on reset ?
	 else if( RST.STATUS & RST_PORF_bm)
    6436:	88 e7       	ldi	r24, 0x78	; 120
    6438:	90 e0       	ldi	r25, 0x00	; 0
    643a:	fc 01       	movw	r30, r24
    643c:	80 81       	ld	r24, Z
    643e:	88 2f       	mov	r24, r24
    6440:	90 e0       	ldi	r25, 0x00	; 0
    6442:	81 70       	andi	r24, 0x01	; 1
    6444:	99 27       	eor	r25, r25
    6446:	89 2b       	or	r24, r25
    6448:	41 f0       	breq	.+16     	; 0x645a <getResetReason+0x56>
	 {
		 // reset this bit
		 RST.STATUS = RST_PORF_bm;
    644a:	88 e7       	ldi	r24, 0x78	; 120
    644c:	90 e0       	ldi	r25, 0x00	; 0
    644e:	21 e0       	ldi	r18, 0x01	; 1
    6450:	fc 01       	movw	r30, r24
    6452:	20 83       	st	Z, r18
		 returnValue = RESETREASON_POWERONRESET;
    6454:	82 e0       	ldi	r24, 0x02	; 2
    6456:	89 83       	std	Y+1, r24	; 0x01
    6458:	23 c0       	rjmp	.+70     	; 0x64a0 <getResetReason+0x9c>
	 }
	 // debugger reset ?
	 else if( RST.STATUS & RST_PDIRF_bm)
    645a:	88 e7       	ldi	r24, 0x78	; 120
    645c:	90 e0       	ldi	r25, 0x00	; 0
    645e:	fc 01       	movw	r30, r24
    6460:	80 81       	ld	r24, Z
    6462:	88 2f       	mov	r24, r24
    6464:	90 e0       	ldi	r25, 0x00	; 0
    6466:	80 71       	andi	r24, 0x10	; 16
    6468:	99 27       	eor	r25, r25
    646a:	89 2b       	or	r24, r25
    646c:	41 f0       	breq	.+16     	; 0x647e <getResetReason+0x7a>
	 {
		 // reset this bit
		 RST.STATUS = RST_PDIRF_bm;
    646e:	88 e7       	ldi	r24, 0x78	; 120
    6470:	90 e0       	ldi	r25, 0x00	; 0
    6472:	20 e1       	ldi	r18, 0x10	; 16
    6474:	fc 01       	movw	r30, r24
    6476:	20 83       	st	Z, r18
		 returnValue = RESETREASON_DEBUGGERRESET;
    6478:	83 e0       	ldi	r24, 0x03	; 3
    647a:	89 83       	std	Y+1, r24	; 0x01
    647c:	11 c0       	rjmp	.+34     	; 0x64a0 <getResetReason+0x9c>
	 }
	 // external reset ?
	 else if( RST.STATUS & RST_EXTRF_bm)
    647e:	88 e7       	ldi	r24, 0x78	; 120
    6480:	90 e0       	ldi	r25, 0x00	; 0
    6482:	fc 01       	movw	r30, r24
    6484:	80 81       	ld	r24, Z
    6486:	88 2f       	mov	r24, r24
    6488:	90 e0       	ldi	r25, 0x00	; 0
    648a:	82 70       	andi	r24, 0x02	; 2
    648c:	99 27       	eor	r25, r25
    648e:	89 2b       	or	r24, r25
    6490:	39 f0       	breq	.+14     	; 0x64a0 <getResetReason+0x9c>
	 {
		 // reset this bit
		 RST.STATUS = RST_EXTRF_bm;
    6492:	88 e7       	ldi	r24, 0x78	; 120
    6494:	90 e0       	ldi	r25, 0x00	; 0
    6496:	22 e0       	ldi	r18, 0x02	; 2
    6498:	fc 01       	movw	r30, r24
    649a:	20 83       	st	Z, r18
		 returnValue = RESETREASON_EXTERNALRESET;
    649c:	84 e0       	ldi	r24, 0x04	; 4
    649e:	89 83       	std	Y+1, r24	; 0x01
	 }
	 return returnValue;
    64a0:	89 81       	ldd	r24, Y+1	; 0x01
    64a2:	0f 90       	pop	r0
    64a4:	df 91       	pop	r29
    64a6:	cf 91       	pop	r28
    64a8:	08 95       	ret

000064aa <__subsf3>:
    64aa:	50 58       	subi	r21, 0x80	; 128

000064ac <__addsf3>:
    64ac:	bb 27       	eor	r27, r27
    64ae:	aa 27       	eor	r26, r26
    64b0:	0e 94 6d 32 	call	0x64da	; 0x64da <__addsf3x>
    64b4:	0c 94 e7 33 	jmp	0x67ce	; 0x67ce <__fp_round>
    64b8:	0e 94 d9 33 	call	0x67b2	; 0x67b2 <__fp_pscA>
    64bc:	38 f0       	brcs	.+14     	; 0x64cc <__addsf3+0x20>
    64be:	0e 94 e0 33 	call	0x67c0	; 0x67c0 <__fp_pscB>
    64c2:	20 f0       	brcs	.+8      	; 0x64cc <__addsf3+0x20>
    64c4:	39 f4       	brne	.+14     	; 0x64d4 <__addsf3+0x28>
    64c6:	9f 3f       	cpi	r25, 0xFF	; 255
    64c8:	19 f4       	brne	.+6      	; 0x64d0 <__addsf3+0x24>
    64ca:	26 f4       	brtc	.+8      	; 0x64d4 <__addsf3+0x28>
    64cc:	0c 94 d6 33 	jmp	0x67ac	; 0x67ac <__fp_nan>
    64d0:	0e f4       	brtc	.+2      	; 0x64d4 <__addsf3+0x28>
    64d2:	e0 95       	com	r30
    64d4:	e7 fb       	bst	r30, 7
    64d6:	0c 94 d0 33 	jmp	0x67a0	; 0x67a0 <__fp_inf>

000064da <__addsf3x>:
    64da:	e9 2f       	mov	r30, r25
    64dc:	0e 94 f8 33 	call	0x67f0	; 0x67f0 <__fp_split3>
    64e0:	58 f3       	brcs	.-42     	; 0x64b8 <__addsf3+0xc>
    64e2:	ba 17       	cp	r27, r26
    64e4:	62 07       	cpc	r22, r18
    64e6:	73 07       	cpc	r23, r19
    64e8:	84 07       	cpc	r24, r20
    64ea:	95 07       	cpc	r25, r21
    64ec:	20 f0       	brcs	.+8      	; 0x64f6 <__addsf3x+0x1c>
    64ee:	79 f4       	brne	.+30     	; 0x650e <__addsf3x+0x34>
    64f0:	a6 f5       	brtc	.+104    	; 0x655a <__addsf3x+0x80>
    64f2:	0c 94 1a 34 	jmp	0x6834	; 0x6834 <__fp_zero>
    64f6:	0e f4       	brtc	.+2      	; 0x64fa <__addsf3x+0x20>
    64f8:	e0 95       	com	r30
    64fa:	0b 2e       	mov	r0, r27
    64fc:	ba 2f       	mov	r27, r26
    64fe:	a0 2d       	mov	r26, r0
    6500:	0b 01       	movw	r0, r22
    6502:	b9 01       	movw	r22, r18
    6504:	90 01       	movw	r18, r0
    6506:	0c 01       	movw	r0, r24
    6508:	ca 01       	movw	r24, r20
    650a:	a0 01       	movw	r20, r0
    650c:	11 24       	eor	r1, r1
    650e:	ff 27       	eor	r31, r31
    6510:	59 1b       	sub	r21, r25
    6512:	99 f0       	breq	.+38     	; 0x653a <__addsf3x+0x60>
    6514:	59 3f       	cpi	r21, 0xF9	; 249
    6516:	50 f4       	brcc	.+20     	; 0x652c <__addsf3x+0x52>
    6518:	50 3e       	cpi	r21, 0xE0	; 224
    651a:	68 f1       	brcs	.+90     	; 0x6576 <__addsf3x+0x9c>
    651c:	1a 16       	cp	r1, r26
    651e:	f0 40       	sbci	r31, 0x00	; 0
    6520:	a2 2f       	mov	r26, r18
    6522:	23 2f       	mov	r18, r19
    6524:	34 2f       	mov	r19, r20
    6526:	44 27       	eor	r20, r20
    6528:	58 5f       	subi	r21, 0xF8	; 248
    652a:	f3 cf       	rjmp	.-26     	; 0x6512 <__addsf3x+0x38>
    652c:	46 95       	lsr	r20
    652e:	37 95       	ror	r19
    6530:	27 95       	ror	r18
    6532:	a7 95       	ror	r26
    6534:	f0 40       	sbci	r31, 0x00	; 0
    6536:	53 95       	inc	r21
    6538:	c9 f7       	brne	.-14     	; 0x652c <__addsf3x+0x52>
    653a:	7e f4       	brtc	.+30     	; 0x655a <__addsf3x+0x80>
    653c:	1f 16       	cp	r1, r31
    653e:	ba 0b       	sbc	r27, r26
    6540:	62 0b       	sbc	r22, r18
    6542:	73 0b       	sbc	r23, r19
    6544:	84 0b       	sbc	r24, r20
    6546:	ba f0       	brmi	.+46     	; 0x6576 <__addsf3x+0x9c>
    6548:	91 50       	subi	r25, 0x01	; 1
    654a:	a1 f0       	breq	.+40     	; 0x6574 <__addsf3x+0x9a>
    654c:	ff 0f       	add	r31, r31
    654e:	bb 1f       	adc	r27, r27
    6550:	66 1f       	adc	r22, r22
    6552:	77 1f       	adc	r23, r23
    6554:	88 1f       	adc	r24, r24
    6556:	c2 f7       	brpl	.-16     	; 0x6548 <__addsf3x+0x6e>
    6558:	0e c0       	rjmp	.+28     	; 0x6576 <__addsf3x+0x9c>
    655a:	ba 0f       	add	r27, r26
    655c:	62 1f       	adc	r22, r18
    655e:	73 1f       	adc	r23, r19
    6560:	84 1f       	adc	r24, r20
    6562:	48 f4       	brcc	.+18     	; 0x6576 <__addsf3x+0x9c>
    6564:	87 95       	ror	r24
    6566:	77 95       	ror	r23
    6568:	67 95       	ror	r22
    656a:	b7 95       	ror	r27
    656c:	f7 95       	ror	r31
    656e:	9e 3f       	cpi	r25, 0xFE	; 254
    6570:	08 f0       	brcs	.+2      	; 0x6574 <__addsf3x+0x9a>
    6572:	b0 cf       	rjmp	.-160    	; 0x64d4 <__addsf3+0x28>
    6574:	93 95       	inc	r25
    6576:	88 0f       	add	r24, r24
    6578:	08 f0       	brcs	.+2      	; 0x657c <__addsf3x+0xa2>
    657a:	99 27       	eor	r25, r25
    657c:	ee 0f       	add	r30, r30
    657e:	97 95       	ror	r25
    6580:	87 95       	ror	r24
    6582:	08 95       	ret

00006584 <__cmpsf2>:
    6584:	0e 94 ac 33 	call	0x6758	; 0x6758 <__fp_cmp>
    6588:	08 f4       	brcc	.+2      	; 0x658c <__cmpsf2+0x8>
    658a:	81 e0       	ldi	r24, 0x01	; 1
    658c:	08 95       	ret

0000658e <__divsf3>:
    658e:	0e 94 db 32 	call	0x65b6	; 0x65b6 <__divsf3x>
    6592:	0c 94 e7 33 	jmp	0x67ce	; 0x67ce <__fp_round>
    6596:	0e 94 e0 33 	call	0x67c0	; 0x67c0 <__fp_pscB>
    659a:	58 f0       	brcs	.+22     	; 0x65b2 <__divsf3+0x24>
    659c:	0e 94 d9 33 	call	0x67b2	; 0x67b2 <__fp_pscA>
    65a0:	40 f0       	brcs	.+16     	; 0x65b2 <__divsf3+0x24>
    65a2:	29 f4       	brne	.+10     	; 0x65ae <__divsf3+0x20>
    65a4:	5f 3f       	cpi	r21, 0xFF	; 255
    65a6:	29 f0       	breq	.+10     	; 0x65b2 <__divsf3+0x24>
    65a8:	0c 94 d0 33 	jmp	0x67a0	; 0x67a0 <__fp_inf>
    65ac:	51 11       	cpse	r21, r1
    65ae:	0c 94 1b 34 	jmp	0x6836	; 0x6836 <__fp_szero>
    65b2:	0c 94 d6 33 	jmp	0x67ac	; 0x67ac <__fp_nan>

000065b6 <__divsf3x>:
    65b6:	0e 94 f8 33 	call	0x67f0	; 0x67f0 <__fp_split3>
    65ba:	68 f3       	brcs	.-38     	; 0x6596 <__divsf3+0x8>

000065bc <__divsf3_pse>:
    65bc:	99 23       	and	r25, r25
    65be:	b1 f3       	breq	.-20     	; 0x65ac <__divsf3+0x1e>
    65c0:	55 23       	and	r21, r21
    65c2:	91 f3       	breq	.-28     	; 0x65a8 <__divsf3+0x1a>
    65c4:	95 1b       	sub	r25, r21
    65c6:	55 0b       	sbc	r21, r21
    65c8:	bb 27       	eor	r27, r27
    65ca:	aa 27       	eor	r26, r26
    65cc:	62 17       	cp	r22, r18
    65ce:	73 07       	cpc	r23, r19
    65d0:	84 07       	cpc	r24, r20
    65d2:	38 f0       	brcs	.+14     	; 0x65e2 <__divsf3_pse+0x26>
    65d4:	9f 5f       	subi	r25, 0xFF	; 255
    65d6:	5f 4f       	sbci	r21, 0xFF	; 255
    65d8:	22 0f       	add	r18, r18
    65da:	33 1f       	adc	r19, r19
    65dc:	44 1f       	adc	r20, r20
    65de:	aa 1f       	adc	r26, r26
    65e0:	a9 f3       	breq	.-22     	; 0x65cc <__divsf3_pse+0x10>
    65e2:	35 d0       	rcall	.+106    	; 0x664e <__divsf3_pse+0x92>
    65e4:	0e 2e       	mov	r0, r30
    65e6:	3a f0       	brmi	.+14     	; 0x65f6 <__divsf3_pse+0x3a>
    65e8:	e0 e8       	ldi	r30, 0x80	; 128
    65ea:	32 d0       	rcall	.+100    	; 0x6650 <__divsf3_pse+0x94>
    65ec:	91 50       	subi	r25, 0x01	; 1
    65ee:	50 40       	sbci	r21, 0x00	; 0
    65f0:	e6 95       	lsr	r30
    65f2:	00 1c       	adc	r0, r0
    65f4:	ca f7       	brpl	.-14     	; 0x65e8 <__divsf3_pse+0x2c>
    65f6:	2b d0       	rcall	.+86     	; 0x664e <__divsf3_pse+0x92>
    65f8:	fe 2f       	mov	r31, r30
    65fa:	29 d0       	rcall	.+82     	; 0x664e <__divsf3_pse+0x92>
    65fc:	66 0f       	add	r22, r22
    65fe:	77 1f       	adc	r23, r23
    6600:	88 1f       	adc	r24, r24
    6602:	bb 1f       	adc	r27, r27
    6604:	26 17       	cp	r18, r22
    6606:	37 07       	cpc	r19, r23
    6608:	48 07       	cpc	r20, r24
    660a:	ab 07       	cpc	r26, r27
    660c:	b0 e8       	ldi	r27, 0x80	; 128
    660e:	09 f0       	breq	.+2      	; 0x6612 <__divsf3_pse+0x56>
    6610:	bb 0b       	sbc	r27, r27
    6612:	80 2d       	mov	r24, r0
    6614:	bf 01       	movw	r22, r30
    6616:	ff 27       	eor	r31, r31
    6618:	93 58       	subi	r25, 0x83	; 131
    661a:	5f 4f       	sbci	r21, 0xFF	; 255
    661c:	3a f0       	brmi	.+14     	; 0x662c <__divsf3_pse+0x70>
    661e:	9e 3f       	cpi	r25, 0xFE	; 254
    6620:	51 05       	cpc	r21, r1
    6622:	78 f0       	brcs	.+30     	; 0x6642 <__divsf3_pse+0x86>
    6624:	0c 94 d0 33 	jmp	0x67a0	; 0x67a0 <__fp_inf>
    6628:	0c 94 1b 34 	jmp	0x6836	; 0x6836 <__fp_szero>
    662c:	5f 3f       	cpi	r21, 0xFF	; 255
    662e:	e4 f3       	brlt	.-8      	; 0x6628 <__divsf3_pse+0x6c>
    6630:	98 3e       	cpi	r25, 0xE8	; 232
    6632:	d4 f3       	brlt	.-12     	; 0x6628 <__divsf3_pse+0x6c>
    6634:	86 95       	lsr	r24
    6636:	77 95       	ror	r23
    6638:	67 95       	ror	r22
    663a:	b7 95       	ror	r27
    663c:	f7 95       	ror	r31
    663e:	9f 5f       	subi	r25, 0xFF	; 255
    6640:	c9 f7       	brne	.-14     	; 0x6634 <__divsf3_pse+0x78>
    6642:	88 0f       	add	r24, r24
    6644:	91 1d       	adc	r25, r1
    6646:	96 95       	lsr	r25
    6648:	87 95       	ror	r24
    664a:	97 f9       	bld	r25, 7
    664c:	08 95       	ret
    664e:	e1 e0       	ldi	r30, 0x01	; 1
    6650:	66 0f       	add	r22, r22
    6652:	77 1f       	adc	r23, r23
    6654:	88 1f       	adc	r24, r24
    6656:	bb 1f       	adc	r27, r27
    6658:	62 17       	cp	r22, r18
    665a:	73 07       	cpc	r23, r19
    665c:	84 07       	cpc	r24, r20
    665e:	ba 07       	cpc	r27, r26
    6660:	20 f0       	brcs	.+8      	; 0x666a <__divsf3_pse+0xae>
    6662:	62 1b       	sub	r22, r18
    6664:	73 0b       	sbc	r23, r19
    6666:	84 0b       	sbc	r24, r20
    6668:	ba 0b       	sbc	r27, r26
    666a:	ee 1f       	adc	r30, r30
    666c:	88 f7       	brcc	.-30     	; 0x6650 <__divsf3_pse+0x94>
    666e:	e0 95       	com	r30
    6670:	08 95       	ret

00006672 <__fixsfsi>:
    6672:	0e 94 40 33 	call	0x6680	; 0x6680 <__fixunssfsi>
    6676:	68 94       	set
    6678:	b1 11       	cpse	r27, r1
    667a:	0c 94 1b 34 	jmp	0x6836	; 0x6836 <__fp_szero>
    667e:	08 95       	ret

00006680 <__fixunssfsi>:
    6680:	0e 94 00 34 	call	0x6800	; 0x6800 <__fp_splitA>
    6684:	88 f0       	brcs	.+34     	; 0x66a8 <__fixunssfsi+0x28>
    6686:	9f 57       	subi	r25, 0x7F	; 127
    6688:	98 f0       	brcs	.+38     	; 0x66b0 <__fixunssfsi+0x30>
    668a:	b9 2f       	mov	r27, r25
    668c:	99 27       	eor	r25, r25
    668e:	b7 51       	subi	r27, 0x17	; 23
    6690:	b0 f0       	brcs	.+44     	; 0x66be <__fixunssfsi+0x3e>
    6692:	e1 f0       	breq	.+56     	; 0x66cc <__fixunssfsi+0x4c>
    6694:	66 0f       	add	r22, r22
    6696:	77 1f       	adc	r23, r23
    6698:	88 1f       	adc	r24, r24
    669a:	99 1f       	adc	r25, r25
    669c:	1a f0       	brmi	.+6      	; 0x66a4 <__fixunssfsi+0x24>
    669e:	ba 95       	dec	r27
    66a0:	c9 f7       	brne	.-14     	; 0x6694 <__fixunssfsi+0x14>
    66a2:	14 c0       	rjmp	.+40     	; 0x66cc <__fixunssfsi+0x4c>
    66a4:	b1 30       	cpi	r27, 0x01	; 1
    66a6:	91 f0       	breq	.+36     	; 0x66cc <__fixunssfsi+0x4c>
    66a8:	0e 94 1a 34 	call	0x6834	; 0x6834 <__fp_zero>
    66ac:	b1 e0       	ldi	r27, 0x01	; 1
    66ae:	08 95       	ret
    66b0:	0c 94 1a 34 	jmp	0x6834	; 0x6834 <__fp_zero>
    66b4:	67 2f       	mov	r22, r23
    66b6:	78 2f       	mov	r23, r24
    66b8:	88 27       	eor	r24, r24
    66ba:	b8 5f       	subi	r27, 0xF8	; 248
    66bc:	39 f0       	breq	.+14     	; 0x66cc <__fixunssfsi+0x4c>
    66be:	b9 3f       	cpi	r27, 0xF9	; 249
    66c0:	cc f3       	brlt	.-14     	; 0x66b4 <__fixunssfsi+0x34>
    66c2:	86 95       	lsr	r24
    66c4:	77 95       	ror	r23
    66c6:	67 95       	ror	r22
    66c8:	b3 95       	inc	r27
    66ca:	d9 f7       	brne	.-10     	; 0x66c2 <__fixunssfsi+0x42>
    66cc:	3e f4       	brtc	.+14     	; 0x66dc <__fixunssfsi+0x5c>
    66ce:	90 95       	com	r25
    66d0:	80 95       	com	r24
    66d2:	70 95       	com	r23
    66d4:	61 95       	neg	r22
    66d6:	7f 4f       	sbci	r23, 0xFF	; 255
    66d8:	8f 4f       	sbci	r24, 0xFF	; 255
    66da:	9f 4f       	sbci	r25, 0xFF	; 255
    66dc:	08 95       	ret

000066de <__floatunsisf>:
    66de:	e8 94       	clt
    66e0:	09 c0       	rjmp	.+18     	; 0x66f4 <__floatsisf+0x12>

000066e2 <__floatsisf>:
    66e2:	97 fb       	bst	r25, 7
    66e4:	3e f4       	brtc	.+14     	; 0x66f4 <__floatsisf+0x12>
    66e6:	90 95       	com	r25
    66e8:	80 95       	com	r24
    66ea:	70 95       	com	r23
    66ec:	61 95       	neg	r22
    66ee:	7f 4f       	sbci	r23, 0xFF	; 255
    66f0:	8f 4f       	sbci	r24, 0xFF	; 255
    66f2:	9f 4f       	sbci	r25, 0xFF	; 255
    66f4:	99 23       	and	r25, r25
    66f6:	a9 f0       	breq	.+42     	; 0x6722 <__floatsisf+0x40>
    66f8:	f9 2f       	mov	r31, r25
    66fa:	96 e9       	ldi	r25, 0x96	; 150
    66fc:	bb 27       	eor	r27, r27
    66fe:	93 95       	inc	r25
    6700:	f6 95       	lsr	r31
    6702:	87 95       	ror	r24
    6704:	77 95       	ror	r23
    6706:	67 95       	ror	r22
    6708:	b7 95       	ror	r27
    670a:	f1 11       	cpse	r31, r1
    670c:	f8 cf       	rjmp	.-16     	; 0x66fe <__floatsisf+0x1c>
    670e:	fa f4       	brpl	.+62     	; 0x674e <__floatsisf+0x6c>
    6710:	bb 0f       	add	r27, r27
    6712:	11 f4       	brne	.+4      	; 0x6718 <__floatsisf+0x36>
    6714:	60 ff       	sbrs	r22, 0
    6716:	1b c0       	rjmp	.+54     	; 0x674e <__floatsisf+0x6c>
    6718:	6f 5f       	subi	r22, 0xFF	; 255
    671a:	7f 4f       	sbci	r23, 0xFF	; 255
    671c:	8f 4f       	sbci	r24, 0xFF	; 255
    671e:	9f 4f       	sbci	r25, 0xFF	; 255
    6720:	16 c0       	rjmp	.+44     	; 0x674e <__floatsisf+0x6c>
    6722:	88 23       	and	r24, r24
    6724:	11 f0       	breq	.+4      	; 0x672a <__floatsisf+0x48>
    6726:	96 e9       	ldi	r25, 0x96	; 150
    6728:	11 c0       	rjmp	.+34     	; 0x674c <__floatsisf+0x6a>
    672a:	77 23       	and	r23, r23
    672c:	21 f0       	breq	.+8      	; 0x6736 <__floatsisf+0x54>
    672e:	9e e8       	ldi	r25, 0x8E	; 142
    6730:	87 2f       	mov	r24, r23
    6732:	76 2f       	mov	r23, r22
    6734:	05 c0       	rjmp	.+10     	; 0x6740 <__floatsisf+0x5e>
    6736:	66 23       	and	r22, r22
    6738:	71 f0       	breq	.+28     	; 0x6756 <__floatsisf+0x74>
    673a:	96 e8       	ldi	r25, 0x86	; 134
    673c:	86 2f       	mov	r24, r22
    673e:	70 e0       	ldi	r23, 0x00	; 0
    6740:	60 e0       	ldi	r22, 0x00	; 0
    6742:	2a f0       	brmi	.+10     	; 0x674e <__floatsisf+0x6c>
    6744:	9a 95       	dec	r25
    6746:	66 0f       	add	r22, r22
    6748:	77 1f       	adc	r23, r23
    674a:	88 1f       	adc	r24, r24
    674c:	da f7       	brpl	.-10     	; 0x6744 <__floatsisf+0x62>
    674e:	88 0f       	add	r24, r24
    6750:	96 95       	lsr	r25
    6752:	87 95       	ror	r24
    6754:	97 f9       	bld	r25, 7
    6756:	08 95       	ret

00006758 <__fp_cmp>:
    6758:	99 0f       	add	r25, r25
    675a:	00 08       	sbc	r0, r0
    675c:	55 0f       	add	r21, r21
    675e:	aa 0b       	sbc	r26, r26
    6760:	e0 e8       	ldi	r30, 0x80	; 128
    6762:	fe ef       	ldi	r31, 0xFE	; 254
    6764:	16 16       	cp	r1, r22
    6766:	17 06       	cpc	r1, r23
    6768:	e8 07       	cpc	r30, r24
    676a:	f9 07       	cpc	r31, r25
    676c:	c0 f0       	brcs	.+48     	; 0x679e <__fp_cmp+0x46>
    676e:	12 16       	cp	r1, r18
    6770:	13 06       	cpc	r1, r19
    6772:	e4 07       	cpc	r30, r20
    6774:	f5 07       	cpc	r31, r21
    6776:	98 f0       	brcs	.+38     	; 0x679e <__fp_cmp+0x46>
    6778:	62 1b       	sub	r22, r18
    677a:	73 0b       	sbc	r23, r19
    677c:	84 0b       	sbc	r24, r20
    677e:	95 0b       	sbc	r25, r21
    6780:	39 f4       	brne	.+14     	; 0x6790 <__fp_cmp+0x38>
    6782:	0a 26       	eor	r0, r26
    6784:	61 f0       	breq	.+24     	; 0x679e <__fp_cmp+0x46>
    6786:	23 2b       	or	r18, r19
    6788:	24 2b       	or	r18, r20
    678a:	25 2b       	or	r18, r21
    678c:	21 f4       	brne	.+8      	; 0x6796 <__fp_cmp+0x3e>
    678e:	08 95       	ret
    6790:	0a 26       	eor	r0, r26
    6792:	09 f4       	brne	.+2      	; 0x6796 <__fp_cmp+0x3e>
    6794:	a1 40       	sbci	r26, 0x01	; 1
    6796:	a6 95       	lsr	r26
    6798:	8f ef       	ldi	r24, 0xFF	; 255
    679a:	81 1d       	adc	r24, r1
    679c:	81 1d       	adc	r24, r1
    679e:	08 95       	ret

000067a0 <__fp_inf>:
    67a0:	97 f9       	bld	r25, 7
    67a2:	9f 67       	ori	r25, 0x7F	; 127
    67a4:	80 e8       	ldi	r24, 0x80	; 128
    67a6:	70 e0       	ldi	r23, 0x00	; 0
    67a8:	60 e0       	ldi	r22, 0x00	; 0
    67aa:	08 95       	ret

000067ac <__fp_nan>:
    67ac:	9f ef       	ldi	r25, 0xFF	; 255
    67ae:	80 ec       	ldi	r24, 0xC0	; 192
    67b0:	08 95       	ret

000067b2 <__fp_pscA>:
    67b2:	00 24       	eor	r0, r0
    67b4:	0a 94       	dec	r0
    67b6:	16 16       	cp	r1, r22
    67b8:	17 06       	cpc	r1, r23
    67ba:	18 06       	cpc	r1, r24
    67bc:	09 06       	cpc	r0, r25
    67be:	08 95       	ret

000067c0 <__fp_pscB>:
    67c0:	00 24       	eor	r0, r0
    67c2:	0a 94       	dec	r0
    67c4:	12 16       	cp	r1, r18
    67c6:	13 06       	cpc	r1, r19
    67c8:	14 06       	cpc	r1, r20
    67ca:	05 06       	cpc	r0, r21
    67cc:	08 95       	ret

000067ce <__fp_round>:
    67ce:	09 2e       	mov	r0, r25
    67d0:	03 94       	inc	r0
    67d2:	00 0c       	add	r0, r0
    67d4:	11 f4       	brne	.+4      	; 0x67da <__fp_round+0xc>
    67d6:	88 23       	and	r24, r24
    67d8:	52 f0       	brmi	.+20     	; 0x67ee <__fp_round+0x20>
    67da:	bb 0f       	add	r27, r27
    67dc:	40 f4       	brcc	.+16     	; 0x67ee <__fp_round+0x20>
    67de:	bf 2b       	or	r27, r31
    67e0:	11 f4       	brne	.+4      	; 0x67e6 <__fp_round+0x18>
    67e2:	60 ff       	sbrs	r22, 0
    67e4:	04 c0       	rjmp	.+8      	; 0x67ee <__fp_round+0x20>
    67e6:	6f 5f       	subi	r22, 0xFF	; 255
    67e8:	7f 4f       	sbci	r23, 0xFF	; 255
    67ea:	8f 4f       	sbci	r24, 0xFF	; 255
    67ec:	9f 4f       	sbci	r25, 0xFF	; 255
    67ee:	08 95       	ret

000067f0 <__fp_split3>:
    67f0:	57 fd       	sbrc	r21, 7
    67f2:	90 58       	subi	r25, 0x80	; 128
    67f4:	44 0f       	add	r20, r20
    67f6:	55 1f       	adc	r21, r21
    67f8:	59 f0       	breq	.+22     	; 0x6810 <__fp_splitA+0x10>
    67fa:	5f 3f       	cpi	r21, 0xFF	; 255
    67fc:	71 f0       	breq	.+28     	; 0x681a <__fp_splitA+0x1a>
    67fe:	47 95       	ror	r20

00006800 <__fp_splitA>:
    6800:	88 0f       	add	r24, r24
    6802:	97 fb       	bst	r25, 7
    6804:	99 1f       	adc	r25, r25
    6806:	61 f0       	breq	.+24     	; 0x6820 <__fp_splitA+0x20>
    6808:	9f 3f       	cpi	r25, 0xFF	; 255
    680a:	79 f0       	breq	.+30     	; 0x682a <__fp_splitA+0x2a>
    680c:	87 95       	ror	r24
    680e:	08 95       	ret
    6810:	12 16       	cp	r1, r18
    6812:	13 06       	cpc	r1, r19
    6814:	14 06       	cpc	r1, r20
    6816:	55 1f       	adc	r21, r21
    6818:	f2 cf       	rjmp	.-28     	; 0x67fe <__fp_split3+0xe>
    681a:	46 95       	lsr	r20
    681c:	f1 df       	rcall	.-30     	; 0x6800 <__fp_splitA>
    681e:	08 c0       	rjmp	.+16     	; 0x6830 <__fp_splitA+0x30>
    6820:	16 16       	cp	r1, r22
    6822:	17 06       	cpc	r1, r23
    6824:	18 06       	cpc	r1, r24
    6826:	99 1f       	adc	r25, r25
    6828:	f1 cf       	rjmp	.-30     	; 0x680c <__fp_splitA+0xc>
    682a:	86 95       	lsr	r24
    682c:	71 05       	cpc	r23, r1
    682e:	61 05       	cpc	r22, r1
    6830:	08 94       	sec
    6832:	08 95       	ret

00006834 <__fp_zero>:
    6834:	e8 94       	clt

00006836 <__fp_szero>:
    6836:	bb 27       	eor	r27, r27
    6838:	66 27       	eor	r22, r22
    683a:	77 27       	eor	r23, r23
    683c:	cb 01       	movw	r24, r22
    683e:	97 f9       	bld	r25, 7
    6840:	08 95       	ret

00006842 <__gesf2>:
    6842:	0e 94 ac 33 	call	0x6758	; 0x6758 <__fp_cmp>
    6846:	08 f4       	brcc	.+2      	; 0x684a <__gesf2+0x8>
    6848:	8f ef       	ldi	r24, 0xFF	; 255
    684a:	08 95       	ret

0000684c <__mulsf3>:
    684c:	0e 94 39 34 	call	0x6872	; 0x6872 <__mulsf3x>
    6850:	0c 94 e7 33 	jmp	0x67ce	; 0x67ce <__fp_round>
    6854:	0e 94 d9 33 	call	0x67b2	; 0x67b2 <__fp_pscA>
    6858:	38 f0       	brcs	.+14     	; 0x6868 <__mulsf3+0x1c>
    685a:	0e 94 e0 33 	call	0x67c0	; 0x67c0 <__fp_pscB>
    685e:	20 f0       	brcs	.+8      	; 0x6868 <__mulsf3+0x1c>
    6860:	95 23       	and	r25, r21
    6862:	11 f0       	breq	.+4      	; 0x6868 <__mulsf3+0x1c>
    6864:	0c 94 d0 33 	jmp	0x67a0	; 0x67a0 <__fp_inf>
    6868:	0c 94 d6 33 	jmp	0x67ac	; 0x67ac <__fp_nan>
    686c:	11 24       	eor	r1, r1
    686e:	0c 94 1b 34 	jmp	0x6836	; 0x6836 <__fp_szero>

00006872 <__mulsf3x>:
    6872:	0e 94 f8 33 	call	0x67f0	; 0x67f0 <__fp_split3>
    6876:	70 f3       	brcs	.-36     	; 0x6854 <__mulsf3+0x8>

00006878 <__mulsf3_pse>:
    6878:	95 9f       	mul	r25, r21
    687a:	c1 f3       	breq	.-16     	; 0x686c <__mulsf3+0x20>
    687c:	95 0f       	add	r25, r21
    687e:	50 e0       	ldi	r21, 0x00	; 0
    6880:	55 1f       	adc	r21, r21
    6882:	62 9f       	mul	r22, r18
    6884:	f0 01       	movw	r30, r0
    6886:	72 9f       	mul	r23, r18
    6888:	bb 27       	eor	r27, r27
    688a:	f0 0d       	add	r31, r0
    688c:	b1 1d       	adc	r27, r1
    688e:	63 9f       	mul	r22, r19
    6890:	aa 27       	eor	r26, r26
    6892:	f0 0d       	add	r31, r0
    6894:	b1 1d       	adc	r27, r1
    6896:	aa 1f       	adc	r26, r26
    6898:	64 9f       	mul	r22, r20
    689a:	66 27       	eor	r22, r22
    689c:	b0 0d       	add	r27, r0
    689e:	a1 1d       	adc	r26, r1
    68a0:	66 1f       	adc	r22, r22
    68a2:	82 9f       	mul	r24, r18
    68a4:	22 27       	eor	r18, r18
    68a6:	b0 0d       	add	r27, r0
    68a8:	a1 1d       	adc	r26, r1
    68aa:	62 1f       	adc	r22, r18
    68ac:	73 9f       	mul	r23, r19
    68ae:	b0 0d       	add	r27, r0
    68b0:	a1 1d       	adc	r26, r1
    68b2:	62 1f       	adc	r22, r18
    68b4:	83 9f       	mul	r24, r19
    68b6:	a0 0d       	add	r26, r0
    68b8:	61 1d       	adc	r22, r1
    68ba:	22 1f       	adc	r18, r18
    68bc:	74 9f       	mul	r23, r20
    68be:	33 27       	eor	r19, r19
    68c0:	a0 0d       	add	r26, r0
    68c2:	61 1d       	adc	r22, r1
    68c4:	23 1f       	adc	r18, r19
    68c6:	84 9f       	mul	r24, r20
    68c8:	60 0d       	add	r22, r0
    68ca:	21 1d       	adc	r18, r1
    68cc:	82 2f       	mov	r24, r18
    68ce:	76 2f       	mov	r23, r22
    68d0:	6a 2f       	mov	r22, r26
    68d2:	11 24       	eor	r1, r1
    68d4:	9f 57       	subi	r25, 0x7F	; 127
    68d6:	50 40       	sbci	r21, 0x00	; 0
    68d8:	9a f0       	brmi	.+38     	; 0x6900 <__mulsf3_pse+0x88>
    68da:	f1 f0       	breq	.+60     	; 0x6918 <__mulsf3_pse+0xa0>
    68dc:	88 23       	and	r24, r24
    68de:	4a f0       	brmi	.+18     	; 0x68f2 <__mulsf3_pse+0x7a>
    68e0:	ee 0f       	add	r30, r30
    68e2:	ff 1f       	adc	r31, r31
    68e4:	bb 1f       	adc	r27, r27
    68e6:	66 1f       	adc	r22, r22
    68e8:	77 1f       	adc	r23, r23
    68ea:	88 1f       	adc	r24, r24
    68ec:	91 50       	subi	r25, 0x01	; 1
    68ee:	50 40       	sbci	r21, 0x00	; 0
    68f0:	a9 f7       	brne	.-22     	; 0x68dc <__mulsf3_pse+0x64>
    68f2:	9e 3f       	cpi	r25, 0xFE	; 254
    68f4:	51 05       	cpc	r21, r1
    68f6:	80 f0       	brcs	.+32     	; 0x6918 <__mulsf3_pse+0xa0>
    68f8:	0c 94 d0 33 	jmp	0x67a0	; 0x67a0 <__fp_inf>
    68fc:	0c 94 1b 34 	jmp	0x6836	; 0x6836 <__fp_szero>
    6900:	5f 3f       	cpi	r21, 0xFF	; 255
    6902:	e4 f3       	brlt	.-8      	; 0x68fc <__mulsf3_pse+0x84>
    6904:	98 3e       	cpi	r25, 0xE8	; 232
    6906:	d4 f3       	brlt	.-12     	; 0x68fc <__mulsf3_pse+0x84>
    6908:	86 95       	lsr	r24
    690a:	77 95       	ror	r23
    690c:	67 95       	ror	r22
    690e:	b7 95       	ror	r27
    6910:	f7 95       	ror	r31
    6912:	e7 95       	ror	r30
    6914:	9f 5f       	subi	r25, 0xFF	; 255
    6916:	c1 f7       	brne	.-16     	; 0x6908 <__mulsf3_pse+0x90>
    6918:	fe 2b       	or	r31, r30
    691a:	88 0f       	add	r24, r24
    691c:	91 1d       	adc	r25, r1
    691e:	96 95       	lsr	r25
    6920:	87 95       	ror	r24
    6922:	97 f9       	bld	r25, 7
    6924:	08 95       	ret

00006926 <__divmodhi4>:
    6926:	97 fb       	bst	r25, 7
    6928:	07 2e       	mov	r0, r23
    692a:	16 f4       	brtc	.+4      	; 0x6930 <__divmodhi4+0xa>
    692c:	00 94       	com	r0
    692e:	07 d0       	rcall	.+14     	; 0x693e <__divmodhi4_neg1>
    6930:	77 fd       	sbrc	r23, 7
    6932:	09 d0       	rcall	.+18     	; 0x6946 <__divmodhi4_neg2>
    6934:	0e 94 be 34 	call	0x697c	; 0x697c <__udivmodhi4>
    6938:	07 fc       	sbrc	r0, 7
    693a:	05 d0       	rcall	.+10     	; 0x6946 <__divmodhi4_neg2>
    693c:	3e f4       	brtc	.+14     	; 0x694c <__divmodhi4_exit>

0000693e <__divmodhi4_neg1>:
    693e:	90 95       	com	r25
    6940:	81 95       	neg	r24
    6942:	9f 4f       	sbci	r25, 0xFF	; 255
    6944:	08 95       	ret

00006946 <__divmodhi4_neg2>:
    6946:	70 95       	com	r23
    6948:	61 95       	neg	r22
    694a:	7f 4f       	sbci	r23, 0xFF	; 255

0000694c <__divmodhi4_exit>:
    694c:	08 95       	ret

0000694e <__tablejump2__>:
    694e:	ee 0f       	add	r30, r30
    6950:	ff 1f       	adc	r31, r31
    6952:	88 1f       	adc	r24, r24
    6954:	8b bf       	out	0x3b, r24	; 59
    6956:	07 90       	elpm	r0, Z+
    6958:	f6 91       	elpm	r31, Z
    695a:	e0 2d       	mov	r30, r0
    695c:	19 94       	eijmp

0000695e <__umulhisi3>:
    695e:	a2 9f       	mul	r26, r18
    6960:	b0 01       	movw	r22, r0
    6962:	b3 9f       	mul	r27, r19
    6964:	c0 01       	movw	r24, r0
    6966:	a3 9f       	mul	r26, r19
    6968:	70 0d       	add	r23, r0
    696a:	81 1d       	adc	r24, r1
    696c:	11 24       	eor	r1, r1
    696e:	91 1d       	adc	r25, r1
    6970:	b2 9f       	mul	r27, r18
    6972:	70 0d       	add	r23, r0
    6974:	81 1d       	adc	r24, r1
    6976:	11 24       	eor	r1, r1
    6978:	91 1d       	adc	r25, r1
    697a:	08 95       	ret

0000697c <__udivmodhi4>:
    697c:	aa 1b       	sub	r26, r26
    697e:	bb 1b       	sub	r27, r27
    6980:	51 e1       	ldi	r21, 0x11	; 17
    6982:	07 c0       	rjmp	.+14     	; 0x6992 <__udivmodhi4_ep>

00006984 <__udivmodhi4_loop>:
    6984:	aa 1f       	adc	r26, r26
    6986:	bb 1f       	adc	r27, r27
    6988:	a6 17       	cp	r26, r22
    698a:	b7 07       	cpc	r27, r23
    698c:	10 f0       	brcs	.+4      	; 0x6992 <__udivmodhi4_ep>
    698e:	a6 1b       	sub	r26, r22
    6990:	b7 0b       	sbc	r27, r23

00006992 <__udivmodhi4_ep>:
    6992:	88 1f       	adc	r24, r24
    6994:	99 1f       	adc	r25, r25
    6996:	5a 95       	dec	r21
    6998:	a9 f7       	brne	.-22     	; 0x6984 <__udivmodhi4_loop>
    699a:	80 95       	com	r24
    699c:	90 95       	com	r25
    699e:	bc 01       	movw	r22, r24
    69a0:	cd 01       	movw	r24, r26
    69a2:	08 95       	ret

000069a4 <memcpy>:
    69a4:	fb 01       	movw	r30, r22
    69a6:	dc 01       	movw	r26, r24
    69a8:	02 c0       	rjmp	.+4      	; 0x69ae <memcpy+0xa>
    69aa:	01 90       	ld	r0, Z+
    69ac:	0d 92       	st	X+, r0
    69ae:	41 50       	subi	r20, 0x01	; 1
    69b0:	50 40       	sbci	r21, 0x00	; 0
    69b2:	d8 f7       	brcc	.-10     	; 0x69aa <memcpy+0x6>
    69b4:	08 95       	ret

000069b6 <memset>:
    69b6:	dc 01       	movw	r26, r24
    69b8:	01 c0       	rjmp	.+2      	; 0x69bc <memset+0x6>
    69ba:	6d 93       	st	X+, r22
    69bc:	41 50       	subi	r20, 0x01	; 1
    69be:	50 40       	sbci	r21, 0x00	; 0
    69c0:	e0 f7       	brcc	.-8      	; 0x69ba <memset+0x4>
    69c2:	08 95       	ret

000069c4 <strlen>:
    69c4:	fc 01       	movw	r30, r24
    69c6:	01 90       	ld	r0, Z+
    69c8:	00 20       	and	r0, r0
    69ca:	e9 f7       	brne	.-6      	; 0x69c6 <strlen+0x2>
    69cc:	80 95       	com	r24
    69ce:	90 95       	com	r25
    69d0:	8e 0f       	add	r24, r30
    69d2:	9f 1f       	adc	r25, r31
    69d4:	08 95       	ret

000069d6 <itoa>:
    69d6:	45 32       	cpi	r20, 0x25	; 37
    69d8:	51 05       	cpc	r21, r1
    69da:	20 f4       	brcc	.+8      	; 0x69e4 <itoa+0xe>
    69dc:	42 30       	cpi	r20, 0x02	; 2
    69de:	10 f0       	brcs	.+4      	; 0x69e4 <itoa+0xe>
    69e0:	0c 94 f6 34 	jmp	0x69ec	; 0x69ec <__itoa_ncheck>
    69e4:	fb 01       	movw	r30, r22
    69e6:	10 82       	st	Z, r1
    69e8:	cb 01       	movw	r24, r22
    69ea:	08 95       	ret

000069ec <__itoa_ncheck>:
    69ec:	bb 27       	eor	r27, r27
    69ee:	4a 30       	cpi	r20, 0x0A	; 10
    69f0:	31 f4       	brne	.+12     	; 0x69fe <__itoa_ncheck+0x12>
    69f2:	99 23       	and	r25, r25
    69f4:	22 f4       	brpl	.+8      	; 0x69fe <__itoa_ncheck+0x12>
    69f6:	bd e2       	ldi	r27, 0x2D	; 45
    69f8:	90 95       	com	r25
    69fa:	81 95       	neg	r24
    69fc:	9f 4f       	sbci	r25, 0xFF	; 255
    69fe:	0c 94 02 35 	jmp	0x6a04	; 0x6a04 <__utoa_common>

00006a02 <__utoa_ncheck>:
    6a02:	bb 27       	eor	r27, r27

00006a04 <__utoa_common>:
    6a04:	fb 01       	movw	r30, r22
    6a06:	55 27       	eor	r21, r21
    6a08:	aa 27       	eor	r26, r26
    6a0a:	88 0f       	add	r24, r24
    6a0c:	99 1f       	adc	r25, r25
    6a0e:	aa 1f       	adc	r26, r26
    6a10:	a4 17       	cp	r26, r20
    6a12:	10 f0       	brcs	.+4      	; 0x6a18 <__utoa_common+0x14>
    6a14:	a4 1b       	sub	r26, r20
    6a16:	83 95       	inc	r24
    6a18:	50 51       	subi	r21, 0x10	; 16
    6a1a:	b9 f7       	brne	.-18     	; 0x6a0a <__utoa_common+0x6>
    6a1c:	a0 5d       	subi	r26, 0xD0	; 208
    6a1e:	aa 33       	cpi	r26, 0x3A	; 58
    6a20:	08 f0       	brcs	.+2      	; 0x6a24 <__utoa_common+0x20>
    6a22:	a9 5d       	subi	r26, 0xD9	; 217
    6a24:	a1 93       	st	Z+, r26
    6a26:	00 97       	sbiw	r24, 0x00	; 0
    6a28:	79 f7       	brne	.-34     	; 0x6a08 <__utoa_common+0x4>
    6a2a:	b1 11       	cpse	r27, r1
    6a2c:	b1 93       	st	Z+, r27
    6a2e:	11 92       	st	Z+, r1
    6a30:	cb 01       	movw	r24, r22
    6a32:	0c 94 1b 35 	jmp	0x6a36	; 0x6a36 <strrev>

00006a36 <strrev>:
    6a36:	dc 01       	movw	r26, r24
    6a38:	fc 01       	movw	r30, r24
    6a3a:	67 2f       	mov	r22, r23
    6a3c:	71 91       	ld	r23, Z+
    6a3e:	77 23       	and	r23, r23
    6a40:	e1 f7       	brne	.-8      	; 0x6a3a <strrev+0x4>
    6a42:	32 97       	sbiw	r30, 0x02	; 2
    6a44:	04 c0       	rjmp	.+8      	; 0x6a4e <strrev+0x18>
    6a46:	7c 91       	ld	r23, X
    6a48:	6d 93       	st	X+, r22
    6a4a:	70 83       	st	Z, r23
    6a4c:	62 91       	ld	r22, -Z
    6a4e:	ae 17       	cp	r26, r30
    6a50:	bf 07       	cpc	r27, r31
    6a52:	c8 f3       	brcs	.-14     	; 0x6a46 <strrev+0x10>
    6a54:	08 95       	ret

00006a56 <_exit>:
    6a56:	f8 94       	cli

00006a58 <__stop_program>:
    6a58:	ff cf       	rjmp	.-2      	; 0x6a58 <__stop_program>
